 VIP Linker 7.5.
  Module 'C:\WORKS_2\WS\WS_Others\free\VX7GLZ_science-research\25_prolog\visual_prolog\ch01_p03\Exe\ch01_p03.exe' Map. Wed May 31 13:29:37 2017

Frame 001000   Size 10B950.  Name=<   .text>, 	Chars=60000020h. [CER]
Frame 10D000   Size 0EBD90.  Name=<  .rdata>, 	Chars=40000040h. [IR]
Frame 1F9000   Size 000200.  Name=< .gcroot>, 	Chars=C0000040h. [IRW]
Frame 1FA000   Size 000530.  Name=<  PRODBG>, 	Chars=40000040h. [IR]
Frame 1FB000   Size 001540.  Name=<  VIPini>, 	Chars=40000040h. [IR]
Frame 1FD000   Size 000010.  Name=<  VIPsym>, 	Chars=40000040h. [IR]
Frame 1FE000   Size 002E40.  Name=<  VIPtpd>, 	Chars=40000040h. [IR]
Frame 201000   Size 002E50.  Name=<  VIPtpl>, 	Chars=40000040h. [IR]
Frame 204000   Size 000460.  Name=<   .data>, 	Chars=C0000040h. [IRW]

	--- S e g m e n t s : ---

Frame 001000   Size 10B950.  Name=<   .text>, 	Chars=60000020h. [CER]
001000:000000 10B770   .text::CODE::<no group> F=4
   001000   Module 'Obj\ancestordialog.46A1E7BA.obj'
   0026B0   Module 'Obj\queuem_fact.5098B7D6.obj'
   002BB0   Module 'Obj\regex.BA00B3C3.obj'
   002FE0   Module 'Obj\gdiplus_api.E2AD24A1.obj'
   003080   Module 'Obj\clipboard.1ECF18C4.obj'
   003780   Module 'Obj\commondialogs.76CF8FD5.obj'
   005940   Module 'Obj\uxtheme_api.C7D10B8D.obj'
   005AC0   Module 'Obj\istream_api.8D77AD4D.obj'
   005BD0   Module 'Obj\icondirectory_api.86935A9F.obj'
   0060B0   Module 'Obj\monitorqueue.7335D9C2.obj'
   0066B0   Module 'Obj\multithread.42945F62.obj'
   008430   Module 'Obj\vpi_native.CBE05F9A.obj'
   008560   Module 'Obj\main.A22FE9BF.obj'
   0085A0   Module 'Obj\taskwindow.3D15576A.obj'
   00B160   Module 'Obj\toolbars.B027D95B.obj'
   00B230   Module 'Obj\scilexersupport.3A50A325.obj'
   0143C0   Module 'Obj\templateexpander.AAEA96F5.obj'
   014890   Module 'Obj\commoncontrols_api.5468C80D.obj'
   0148C0   Module 'Obj\vpi.BB6354DC.obj'
   017930   Module 'Obj\vpitoolbar.EDA90FC1.obj'
   020EF0   Module 'Obj\scilexer_api.849DAF4B.obj'
   025C00   Module 'Obj\gui.41D0084F.obj'
   044CC0   Module 'Obj\command.64092024.obj'
   045640   Module 'Obj\controls.EA481C3E.obj'
   078C60   Module 'Obj\gdiplus.D367CAF6.obj'
   090110   Module 'Obj\guisupport.243CF570.obj'
   091B80   Module 'Obj\imagelist.0B04176D.obj'
   092CE0   Module 'Obj\statusbarcontrol.83EE7AF0.obj'
   096DB0   Module 'Obj\tooltip.C2C27652.obj'
   098100   Module 'Obj\statusbar.91A8DF89.obj'
   09A370   Module 'Obj\tooltipsupport.97F99340.obj'
   09BE50   Module 'Obj\redblacktree.61DB29D3.obj'
   09E970   Module 'Obj\mapmsupport.B5C5E982.obj'
   09F080   Module 'Obj\collectionmsupport.1078EA0D.obj'
   09F380   Module 'Obj\collectionsupport.FBE6D943.obj'
   09F520   Module 'Obj\redblackset.D207E793.obj'
   0A16E0   Module 'Obj\errorpresentationdialog.16250CAB.obj'
   0A4DF0   Module 'Obj\messagecontrol.383256BA.obj'
   0AFED0   Module 'Obj\scilexer.AFB548FB.obj'
   0C2A90   Module 'Obj\controlsupport.CD1DE148.obj'
   0D2C80   Module 'Obj\varm.637998CB.obj'
   0D43B0   Module 'Obj\arraym_inline.0830C9D1.obj'
   0D56F0   Module 'Obj\exceptiondump.F8208295.obj'
   0D6D00   Module 'Obj\shell_api.76DAFA28.obj'
   0D70D0   Module 'Obj\registry_api.1F62FF31.obj'
   0D83F0   Module 'Obj\mapm_redblack.B30CE1C9.obj'
   0D8B20   Module 'Obj\setm_redblack.93FF0DB0.obj'
   0D9080   Module 'Obj\namedvalue.A8464E91.obj'
   0DA4D0   Module 'Obj\reflection.87B371B1.obj'
   0DA970   Module 'Obj\memory_api.066136AF.obj'
   0DB0E0   Module 'Obj\runtime_api.AAF7A8D0.obj'
   0DBCD0   Module 'Obj\registry.750278BD.obj'
   0DCB80   Module 'Obj\systeminformation_api.720D241D.obj'
   0DD130   Module 'Obj\binary.81E0542A.obj'
   0E20B0   Module 'Obj\filesystem.14FC0F0E.obj'
   0EA4D0   Module 'Obj\string.79FC483E.obj'
   0F0150   Module 'Obj\boolean.223D1EF3.obj'
   0F0280   Module 'Obj\inputstreamsupport.B96A0569.obj'
   0F0650   Module 'Obj\outputstreamsupport.9F52D3AC.obj'
   0F0B60   Module 'Obj\exe.0BB6E1A4.obj'
   0F0E70   Module 'Obj\list.90A37E7A.obj'
   0F7A30   Module 'Obj\std.01821D38.obj'
   0F8420   Module 'Obj\core.610F2EE0.obj'
   0F8800   Module 'Obj\string8.31126D59.obj'
   0F9130   Module 'Obj\string8_api.876B157C.obj'
   0F92E0   Module 'Obj\stream.99E3A2B3.obj'
   0FA1A0   Module 'Obj\exe_api.F27809B9.obj'
   0FA730   Module 'Obj\math.8BE40BD3.obj'
   0FBDC0   Module 'Obj\filesystem_api.EE6511E1.obj'
   0FE4D0   Module 'Obj\memory.F1BE59D6.obj'
   100620   Module 'Obj\event.5E0B1F78.obj'
   103EF0   Module 'Obj\time_api.3BF8D4E6.obj'
   1052F0   Module 'Obj\locale_api.2F2FFAF4.obj'
   105580   Module 'Obj\gui_api.9DA8CF80.obj'
   109130   Module 'Obj\vpidomains.97964869.obj'
   1091F0   Module 'Obj\exception.311FF4B8.obj'
   10B470   Module 'Obj\programcontrol.D3F4CEF5.obj'
   10B4B0   Module 'Obj\multithread_api.53CE32BC.obj'
   10C4C0   Module 'Obj\windowsapi.9B3D04D6.obj'
001000:10B770 0001E0   .text$mn::CODE::<no group> F=4
   10C770   Module '..\..\..\_intermediate\sourceVS\vipInit\Win32\ReleasePE\VIPMain.obj'
   10C7E0   Module '..\..\..\_intermediate\sourceVS\vipInit\Win32\ReleasePE\VIPDll.obj'
   10C930   Module '..\..\..\_intermediate\sourceVS\vipInit\Win32\ReleasePE\VIPPE.obj'

Frame 10D000   Size 0EBD90.  Name=<  .rdata>, 	Chars=40000040h. [IR]
10D000:000000 00B8A0   VIPConst::VIPConst::.rdata F=4
   10D000   Module 'Obj\regex.BA00B3C3.obj'
   10D090   Module 'Obj\clipboard.1ECF18C4.obj'
   10D0A0   Module 'Obj\vpi.BB6354DC.obj'
   110E80   Module 'Obj\gui.41D0084F.obj'
   113930   Module 'Obj\controls.EA481C3E.obj'
   113F10   Module 'Obj\gdiplus.D367CAF6.obj'
   113F70   Module 'Obj\guisupport.243CF570.obj'
   114330   Module 'Obj\namedvalue.A8464E91.obj'
   1143C0   Module 'Obj\registry.750278BD.obj'
   114560   Module 'Obj\binary.81E0542A.obj'
   1147B0   Module 'Obj\filesystem.14FC0F0E.obj'
   114A30   Module 'Obj\string.79FC483E.obj'
   114C30   Module 'Obj\stream.99E3A2B3.obj'
   114F30   Module 'Obj\math.8BE40BD3.obj'
   115290   Module 'Obj\filesystem_api.EE6511E1.obj'
   115440   Module 'Obj\time_api.3BF8D4E6.obj'
   115590   Module 'Obj\exception.311FF4B8.obj'
10D000:00B8A0 004A30   VIPTypeL::VIPTypeL::.rdata F=4
   1188A0   Module 'Obj\ancestordialog.46A1E7BA.obj'
   119480   Module 'Obj\queuem_fact.5098B7D6.obj'
   1194A0   Module 'Obj\regex.BA00B3C3.obj'
   1195D0   Module 'Obj\gdiplus_api.E2AD24A1.obj'
   119730   Module 'Obj\clipboard.1ECF18C4.obj'
   119770   Module 'Obj\commondialogs.76CF8FD5.obj'
   119810   Module 'Obj\istream_api.8D77AD4D.obj'
   119820   Module 'Obj\icondirectory_api.86935A9F.obj'
   119870   Module 'Obj\monitorqueue.7335D9C2.obj'
   1198A0   Module 'Obj\multithread.42945F62.obj'
   119990   Module 'Obj\vpi_native.CBE05F9A.obj'
   119AE0   Module 'Obj\main.A22FE9BF.obj'
   119C10   Module 'Obj\taskwindow.3D15576A.obj'
   119D30   Module 'Obj\toolbars.B027D95B.obj'
   119D70   Module 'Obj\scilexersupport.3A50A325.obj'
   119E70   Module 'Obj\templateexpander.AAEA96F5.obj'
   119ED0   Module 'Obj\commoncontrols_api.5468C80D.obj'
   11A870   Module 'Obj\vpi.BB6354DC.obj'
   11A8B0   Module 'Obj\vpitoolbar.EDA90FC1.obj'
   11A960   Module 'Obj\scilexer_api.849DAF4B.obj'
   11A9C0   Module 'Obj\gui.41D0084F.obj'
   11ADC0   Module 'Obj\command.64092024.obj'
   11ADF0   Module 'Obj\controls.EA481C3E.obj'
   11B0C0   Module 'Obj\gdiplus.D367CAF6.obj'
   11B3A0   Module 'Obj\guisupport.243CF570.obj'
   11B3D0   Module 'Obj\imagelist.0B04176D.obj'
   11B3F0   Module 'Obj\statusbarcontrol.83EE7AF0.obj'
   11B460   Module 'Obj\tooltip.C2C27652.obj'
   11B4C0   Module 'Obj\statusbar.91A8DF89.obj'
   11B4E0   Module 'Obj\tooltipsupport.97F99340.obj'
   11B520   Module 'Obj\redblacktree.61DB29D3.obj'
   11B550   Module 'Obj\mapmsupport.B5C5E982.obj'
   11B570   Module 'Obj\collectionmsupport.1078EA0D.obj'
   11B590   Module 'Obj\collectionsupport.FBE6D943.obj'
   11B5B0   Module 'Obj\redblackset.D207E793.obj'
   11B5C0   Module 'Obj\errorpresentationdialog.16250CAB.obj'
   11B630   Module 'Obj\messagecontrol.383256BA.obj'
   11B6C0   Module 'Obj\scilexer.AFB548FB.obj'
   11B700   Module 'Obj\controlsupport.CD1DE148.obj'
   11B7B0   Module 'Obj\varm.637998CB.obj'
   11B850   Module 'Obj\arraym_inline.0830C9D1.obj'
   11B8A0   Module 'Obj\exceptiondump.F8208295.obj'
   11B990   Module 'Obj\shell_api.76DAFA28.obj'
   11BA30   Module 'Obj\registry_api.1F62FF31.obj'
   11BA40   Module 'Obj\mapm_redblack.B30CE1C9.obj'
   11BA60   Module 'Obj\setm_redblack.93FF0DB0.obj'
   11BA80   Module 'Obj\namedvalue.A8464E91.obj'
   11BA90   Module 'Obj\reflection.87B371B1.obj'
   11BB00   Module 'Obj\memory_api.066136AF.obj'
   11BB20   Module 'Obj\runtime_api.AAF7A8D0.obj'
   11BB40   Module 'Obj\registry.750278BD.obj'
   11BB60   Module 'Obj\systeminformation_api.720D241D.obj'
   11BBC0   Module 'Obj\binary.81E0542A.obj'
   11BC00   Module 'Obj\filesystem.14FC0F0E.obj'
   11BD20   Module 'Obj\string.79FC483E.obj'
   11BDD0   Module 'Obj\inputstreamsupport.B96A0569.obj'
   11BDE0   Module 'Obj\outputstreamsupport.9F52D3AC.obj'
   11BE00   Module 'Obj\exe.0BB6E1A4.obj'
   11BE10   Module 'Obj\list.90A37E7A.obj'
   11BED0   Module 'Obj\core.610F2EE0.obj'
   11C3E0   Module 'Obj\stream.99E3A2B3.obj'
   11C420   Module 'Obj\exe_api.F27809B9.obj'
   11C440   Module 'Obj\math.8BE40BD3.obj'
   11C470   Module 'Obj\filesystem_api.EE6511E1.obj'
   11C590   Module 'Obj\memory.F1BE59D6.obj'
   11C7A0   Module 'Obj\event.5E0B1F78.obj'
   11CBD0   Module 'Obj\time_api.3BF8D4E6.obj'
   11CC10   Module 'Obj\locale_api.2F2FFAF4.obj'
   11CC60   Module 'Obj\gui_api.9DA8CF80.obj'
   11D0A0   Module 'Obj\vpidomains.97964869.obj'
   11D1C0   Module 'Obj\exception.311FF4B8.obj'
   11D1E0   Module 'Obj\programcontrol.D3F4CEF5.obj'
   11D200   Module 'Obj\multithread_api.53CE32BC.obj'
   11D2A0   Module 'Obj\windowsapi.9B3D04D6.obj'
10D000:0102D0 00BA40   VIPInter::VIPInter::.rdata F=4
   11D2D0   Module 'Obj\ancestordialog.46A1E7BA.obj'
   124470   Module 'Obj\queuem_fact.5098B7D6.obj'
   1251D0   Module 'Obj\regex.BA00B3C3.obj'
   125840   Module 'Obj\commondialogs.76CF8FD5.obj'
   125930   Module 'Obj\istream_api.8D77AD4D.obj'
   125A00   Module 'Obj\icondirectory_api.86935A9F.obj'
   125B00   Module 'Obj\monitorqueue.7335D9C2.obj'
   125BF0   Module 'Obj\multithread.42945F62.obj'
   126090   Module 'Obj\main.A22FE9BF.obj'
   1261D0   Module 'Obj\taskwindow.3D15576A.obj'
   1270B0   Module 'Obj\toolbars.B027D95B.obj'
   127340   Module 'Obj\scilexersupport.3A50A325.obj'
   1276C0   Module 'Obj\templateexpander.AAEA96F5.obj'
   1277A0   Module 'Obj\vpi.BB6354DC.obj'
   1278C0   Module 'Obj\controls.EA481C3E.obj'
   128110   Module 'Obj\tooltip.C2C27652.obj'
   128200   Module 'Obj\mapmsupport.B5C5E982.obj'
   128420   Module 'Obj\messagecontrol.383256BA.obj'
   1285E0   Module 'Obj\exceptiondump.F8208295.obj'
   128B60   Module 'Obj\binary.81E0542A.obj'
10D000:01BD10 01E410   .rdata::.rdata::.rdata F=4
   128D10   Module 'Obj\ancestordialog.46A1E7BA.obj'
   128F20   Module 'Obj\queuem_fact.5098B7D6.obj'
   128FD0   Module 'Obj\regex.BA00B3C3.obj'
   1290B0   Module 'Obj\gdiplus_api.E2AD24A1.obj'
   129160   Module 'Obj\imagelist_api.B0CD6213.obj'
   129220   Module 'Obj\clipboard.1ECF18C4.obj'
   129400   Module 'Obj\commondialogs.76CF8FD5.obj'
   1295F0   Module 'Obj\uxtheme_api.C7D10B8D.obj'
   129770   Module 'Obj\istream_api.8D77AD4D.obj'
   129900   Module 'Obj\icondirectory_api.86935A9F.obj'
   129AA0   Module 'Obj\monitorqueue.7335D9C2.obj'
   129C50   Module 'Obj\multithread.42945F62.obj'
   12A1A0   Module 'Obj\vpi_native.CBE05F9A.obj'
   12A240   Module 'Obj\main.A22FE9BF.obj'
   12A280   Module 'Obj\taskwindow.3D15576A.obj'
   12A5B0   Module 'Obj\toolbars.B027D95B.obj'
   12A840   Module 'Obj\scilexersupport.3A50A325.obj'
   12AE50   Module 'Obj\templateexpander.AAEA96F5.obj'
   12AF20   Module 'Obj\commoncontrols_api.5468C80D.obj'
   12AFF0   Module 'Obj\vpi.BB6354DC.obj'
   12B680   Module 'Obj\vpitoolbar.EDA90FC1.obj'
   12BA70   Module 'Obj\scilexer_api.849DAF4B.obj'
   12BB40   Module 'Obj\gui.41D0084F.obj'
   12D4E0   Module 'Obj\command.64092024.obj'
   12D6D0   Module 'Obj\controls.EA481C3E.obj'
   12F0D0   Module 'Obj\gdiplus.D367CAF6.obj'
   136C10   Module 'Obj\guisupport.243CF570.obj'
   136DB0   Module 'Obj\imagelist.0B04176D.obj'
   136FA0   Module 'Obj\statusbarcontrol.83EE7AF0.obj'
   1372B0   Module 'Obj\tooltip.C2C27652.obj'
   137340   Module 'Obj\statusbar.91A8DF89.obj'
   1374F0   Module 'Obj\tooltipsupport.97F99340.obj'
   1377C0   Module 'Obj\redblacktree.61DB29D3.obj'
   137970   Module 'Obj\mapmsupport.B5C5E982.obj'
   137B10   Module 'Obj\collectionmsupport.1078EA0D.obj'
   137BF0   Module 'Obj\collectionsupport.FBE6D943.obj'
   137CC0   Module 'Obj\redblackset.D207E793.obj'
   137EB0   Module 'Obj\errorpresentationdialog.16250CAB.obj'
   138490   Module 'Obj\messagecontrol.383256BA.obj'
   1388B0   Module 'Obj\scilexer.AFB548FB.obj'
   13C630   Module 'Obj\controlsupport.CD1DE148.obj'
   13D530   Module 'Obj\varm.637998CB.obj'
   13D630   Module 'Obj\arraym_inline.0830C9D1.obj'
   13D870   Module 'Obj\exceptiondump.F8208295.obj'
   13DCE0   Module 'Obj\shell_api.76DAFA28.obj'
   13E4F0   Module 'Obj\registry_api.1F62FF31.obj'
   13E920   Module 'Obj\collection.26E04001.obj'
   13E9B0   Module 'Obj\mapm_redblack.B30CE1C9.obj'
   13EA70   Module 'Obj\setm_redblack.93FF0DB0.obj'
   13EB30   Module 'Obj\namedvalue.A8464E91.obj'
   13EF10   Module 'Obj\reflection.87B371B1.obj'
   13F1C0   Module 'Obj\typelibrary.95661F20.obj'
   13F270   Module 'Obj\memory_api.066136AF.obj'
   13F570   Module 'Obj\runtime_api.AAF7A8D0.obj'
   13FE40   Module 'Obj\registry.750278BD.obj'
   1400D0   Module 'Obj\systeminformation_api.720D241D.obj'
   1403D0   Module 'Obj\binary.81E0542A.obj'
   140A40   Module 'Obj\filesystem.14FC0F0E.obj'
   141820   Module 'Obj\string.79FC483E.obj'
   142190   Module 'Obj\boolean.223D1EF3.obj'
   142220   Module 'Obj\string_api.9F0D2E24.obj'
   1422D0   Module 'Obj\inputstreamsupport.B96A0569.obj'
   142510   Module 'Obj\outputstreamsupport.9F52D3AC.obj'
   142790   Module 'Obj\exe.0BB6E1A4.obj'
   142830   Module 'Obj\list.90A37E7A.obj'
   142C40   Module 'Obj\std.01821D38.obj'
   142CC0   Module 'Obj\core.610F2EE0.obj'
   142D90   Module 'Obj\string8.31126D59.obj'
   142E20   Module 'Obj\string8_api.876B157C.obj'
   143040   Module 'Obj\stream.99E3A2B3.obj'
   143590   Module 'Obj\exe_api.F27809B9.obj'
   1437C0   Module 'Obj\math.8BE40BD3.obj'
   1439F0   Module 'Obj\filesystem_api.EE6511E1.obj'
   144620   Module 'Obj\memory.F1BE59D6.obj'
   1446B0   Module 'Obj\event.5E0B1F78.obj'
   144730   Module 'Obj\time_api.3BF8D4E6.obj'
   144C60   Module 'Obj\locale_api.2F2FFAF4.obj'
   144D10   Module 'Obj\gui_api.9DA8CF80.obj'
   1461E0   Module 'Obj\vpidomains.97964869.obj'
   146280   Module 'Obj\exception.311FF4B8.obj'
   146780   Module 'Obj\programcontrol.D3F4CEF5.obj'
   146820   Module 'Obj\multithread_api.53CE32BC.obj'
   146FE0   Module 'Obj\windowsapi.9B3D04D6.obj'
   147070   Module '..\..\..\_intermediate\sourceVS\vipInit\Win32\ReleasePE\VIPPE.obj'
10D000:03A120 0B1C70   VIPClass::VIPClass::.rdata F=4
   147120   Module 'Obj\ancestordialog.46A1E7BA.obj'
   1491E0   Module 'Obj\queuem_fact.5098B7D6.obj'
   149680   Module 'Obj\regex.BA00B3C3.obj'
   1497D0   Module 'Obj\gdiplus_api.E2AD24A1.obj'
   14A120   Module 'Obj\imagelist_api.B0CD6213.obj'
   14A1D0   Module 'Obj\clipboard.1ECF18C4.obj'
   14A2D0   Module 'Obj\commondialogs.76CF8FD5.obj'
   14CBF0   Module 'Obj\uxtheme_api.C7D10B8D.obj'
   14CC80   Module 'Obj\istream_api.8D77AD4D.obj'
   14CD20   Module 'Obj\icondirectory_api.86935A9F.obj'
   14D030   Module 'Obj\monitorqueue.7335D9C2.obj'
   14D2E0   Module 'Obj\multithread.42945F62.obj'
   14E210   Module 'Obj\vpi_native.CBE05F9A.obj'
   14EB70   Module 'Obj\main.A22FE9BF.obj'
   14F1A0   Module 'Obj\taskwindow.3D15576A.obj'
   1531C0   Module 'Obj\toolbars.B027D95B.obj'
   153330   Module 'Obj\scilexersupport.3A50A325.obj'
   15A570   Module 'Obj\templateexpander.AAEA96F5.obj'
   15A940   Module 'Obj\commoncontrols_api.5468C80D.obj'
   15EDB0   Module 'Obj\vpi.BB6354DC.obj'
   15F200   Module 'Obj\vpitoolbar.EDA90FC1.obj'
   15FCD0   Module 'Obj\scilexer_api.849DAF4B.obj'
   1600F0   Module 'Obj\gui.41D0084F.obj'
   171770   Module 'Obj\command.64092024.obj'
   171CE0   Module 'Obj\controls.EA481C3E.obj'
   1ACB30   Module 'Obj\gdiplus.D367CAF6.obj'
   1B1000   Module 'Obj\guisupport.243CF570.obj'
   1B1660   Module 'Obj\imagelist.0B04176D.obj'
   1B1940   Module 'Obj\statusbarcontrol.83EE7AF0.obj'
   1B6490   Module 'Obj\tooltip.C2C27652.obj'
   1B7620   Module 'Obj\statusbar.91A8DF89.obj'
   1BA600   Module 'Obj\tooltipsupport.97F99340.obj'
   1BABE0   Module 'Obj\redblacktree.61DB29D3.obj'
   1BB000   Module 'Obj\mapmsupport.B5C5E982.obj'
   1BB460   Module 'Obj\collectionmsupport.1078EA0D.obj'
   1BB770   Module 'Obj\collectionsupport.FBE6D943.obj'
   1BB9C0   Module 'Obj\redblackset.D207E793.obj'
   1BBC20   Module 'Obj\errorpresentationdialog.16250CAB.obj'
   1BE710   Module 'Obj\messagecontrol.383256BA.obj'
   1CC460   Module 'Obj\scilexer.AFB548FB.obj'
   1D1D60   Module 'Obj\controlsupport.CD1DE148.obj'
   1E0CB0   Module 'Obj\varm.637998CB.obj'
   1E1C20   Module 'Obj\arraym_inline.0830C9D1.obj'
   1E2CF0   Module 'Obj\exceptiondump.F8208295.obj'
   1E2D90   Module 'Obj\shell_api.76DAFA28.obj'
   1E35B0   Module 'Obj\registry_api.1F62FF31.obj'
   1E3750   Module 'Obj\mapm_redblack.B30CE1C9.obj'
   1E3F50   Module 'Obj\setm_redblack.93FF0DB0.obj'
   1E4450   Module 'Obj\namedvalue.A8464E91.obj'
   1E44D0   Module 'Obj\reflection.87B371B1.obj'
   1E4DF0   Module 'Obj\memory_api.066136AF.obj'
   1E5020   Module 'Obj\runtime_api.AAF7A8D0.obj'
   1E5170   Module 'Obj\registry.750278BD.obj'
   1E5460   Module 'Obj\systeminformation_api.720D241D.obj'
   1E5A40   Module 'Obj\binary.81E0542A.obj'
   1E6560   Module 'Obj\filesystem.14FC0F0E.obj'
   1E7E50   Module 'Obj\string.79FC483E.obj'
   1E9030   Module 'Obj\boolean.223D1EF3.obj'
   1E90A0   Module 'Obj\string_api.9F0D2E24.obj'
   1E9140   Module 'Obj\inputstreamsupport.B96A0569.obj'
   1E9380   Module 'Obj\outputstreamsupport.9F52D3AC.obj'
   1E9640   Module 'Obj\exe.0BB6E1A4.obj'
   1E9730   Module 'Obj\list.90A37E7A.obj'
   1EA050   Module 'Obj\std.01821D38.obj'
   1EA0A0   Module 'Obj\core.610F2EE0.obj'
   1EB590   Module 'Obj\string8.31126D59.obj'
   1EB600   Module 'Obj\string8_api.876B157C.obj'
   1EB730   Module 'Obj\stream.99E3A2B3.obj'
   1EBDB0   Module 'Obj\exe_api.F27809B9.obj'
   1EC010   Module 'Obj\math.8BE40BD3.obj'
   1EC1A0   Module 'Obj\filesystem_api.EE6511E1.obj'
   1ED430   Module 'Obj\memory.F1BE59D6.obj'
   1EE130   Module 'Obj\event.5E0B1F78.obj'
   1F4410   Module 'Obj\time_api.3BF8D4E6.obj'
   1F4740   Module 'Obj\locale_api.2F2FFAF4.obj'
   1F4940   Module 'Obj\gui_api.9DA8CF80.obj'
   1F6840   Module 'Obj\vpidomains.97964869.obj'
   1F7E30   Module 'Obj\exception.311FF4B8.obj'
   1F8500   Module 'Obj\programcontrol.D3F4CEF5.obj'
   1F8610   Module 'Obj\multithread_api.53CE32BC.obj'
   1F8BE0   Module 'Obj\windowsapi.9B3D04D6.obj'

Frame 1F9000   Size 000200.  Name=< .gcroot>, 	Chars=C0000040h. [IRW]
1F9000:000000 0001F4   .gcroot::.gcroot::.gcroot F=4
   1F9000   Module 'Obj\clipboard.1ECF18C4.obj'
   1F9004   Module 'Obj\multithread.42945F62.obj'
   1F9010   Module 'Obj\taskwindow.3D15576A.obj'
   1F9020   Module 'Obj\scilexersupport.3A50A325.obj'
   1F905C   Module 'Obj\vpi.BB6354DC.obj'
   1F9084   Module 'Obj\vpitoolbar.EDA90FC1.obj'
   1F9100   Module 'Obj\gui.41D0084F.obj'
   1F9134   Module 'Obj\controls.EA481C3E.obj'
   1F916C   Module 'Obj\gdiplus.D367CAF6.obj'
   1F9178   Module 'Obj\tooltip.C2C27652.obj'
   1F917C   Module 'Obj\tooltipsupport.97F99340.obj'
   1F9184   Module 'Obj\errorpresentationdialog.16250CAB.obj'
   1F91C0   Module 'Obj\scilexer.AFB548FB.obj'
   1F91DC   Module 'Obj\runtime_api.AAF7A8D0.obj'
   1F91E0   Module 'Obj\exe.0BB6E1A4.obj'
   1F91E4   Module 'Obj\stream.99E3A2B3.obj'
   1F91F0   Module 'Obj\multithread_api.53CE32BC.obj'

Frame 1FA000   Size 000530.  Name=<  PRODBG>, 	Chars=40000040h. [IR]
1FA000:000000 000530   PRODBG::PRODBG::PRODBG F=4
   1FA000   Module 'Obj\ancestordialog.46A1E7BA.obj'
   1FA010   Module 'Obj\queuem_fact.5098B7D6.obj'
   1FA020   Module 'Obj\regex.BA00B3C3.obj'
   1FA030   Module 'Obj\gdiplus_api.E2AD24A1.obj'
   1FA040   Module 'Obj\imagelist_api.B0CD6213.obj'
   1FA050   Module 'Obj\clipboard.1ECF18C4.obj'
   1FA060   Module 'Obj\commondialogs.76CF8FD5.obj'
   1FA070   Module 'Obj\uxtheme_api.C7D10B8D.obj'
   1FA080   Module 'Obj\istream_api.8D77AD4D.obj'
   1FA090   Module 'Obj\icondirectory_api.86935A9F.obj'
   1FA0A0   Module 'Obj\monitorqueue.7335D9C2.obj'
   1FA0B0   Module 'Obj\multithread.42945F62.obj'
   1FA0C0   Module 'Obj\vpi_native.CBE05F9A.obj'
   1FA0D0   Module 'Obj\main.A22FE9BF.obj'
   1FA0E0   Module 'Obj\taskwindow.3D15576A.obj'
   1FA0F0   Module 'Obj\toolbars.B027D95B.obj'
   1FA100   Module 'Obj\scilexersupport.3A50A325.obj'
   1FA110   Module 'Obj\templateexpander.AAEA96F5.obj'
   1FA120   Module 'Obj\commoncontrols_api.5468C80D.obj'
   1FA130   Module 'Obj\vpi.BB6354DC.obj'
   1FA140   Module 'Obj\vpitoolbar.EDA90FC1.obj'
   1FA150   Module 'Obj\scilexer_api.849DAF4B.obj'
   1FA160   Module 'Obj\gui.41D0084F.obj'
   1FA170   Module 'Obj\command.64092024.obj'
   1FA180   Module 'Obj\controls.EA481C3E.obj'
   1FA190   Module 'Obj\gdiplus.D367CAF6.obj'
   1FA1A0   Module 'Obj\guisupport.243CF570.obj'
   1FA1B0   Module 'Obj\imagelist.0B04176D.obj'
   1FA1C0   Module 'Obj\statusbarcontrol.83EE7AF0.obj'
   1FA1D0   Module 'Obj\tooltip.C2C27652.obj'
   1FA1E0   Module 'Obj\statusbar.91A8DF89.obj'
   1FA1F0   Module 'Obj\tooltipsupport.97F99340.obj'
   1FA200   Module 'Obj\redblacktree.61DB29D3.obj'
   1FA210   Module 'Obj\mapmsupport.B5C5E982.obj'
   1FA220   Module 'Obj\collectionmsupport.1078EA0D.obj'
   1FA230   Module 'Obj\collectionsupport.FBE6D943.obj'
   1FA240   Module 'Obj\redblackset.D207E793.obj'
   1FA250   Module 'Obj\errorpresentationdialog.16250CAB.obj'
   1FA260   Module 'Obj\messagecontrol.383256BA.obj'
   1FA270   Module 'Obj\scilexer.AFB548FB.obj'
   1FA280   Module 'Obj\controlsupport.CD1DE148.obj'
   1FA290   Module 'Obj\varm.637998CB.obj'
   1FA2A0   Module 'Obj\arraym_inline.0830C9D1.obj'
   1FA2B0   Module 'Obj\exceptiondump.F8208295.obj'
   1FA2C0   Module 'Obj\shell_api.76DAFA28.obj'
   1FA2D0   Module 'Obj\registry_api.1F62FF31.obj'
   1FA2E0   Module 'Obj\collection.26E04001.obj'
   1FA2F0   Module 'Obj\mapm_redblack.B30CE1C9.obj'
   1FA300   Module 'Obj\setm_redblack.93FF0DB0.obj'
   1FA310   Module 'Obj\namedvalue.A8464E91.obj'
   1FA320   Module 'Obj\reflection.87B371B1.obj'
   1FA330   Module 'Obj\typelibrary.95661F20.obj'
   1FA340   Module 'Obj\memory_api.066136AF.obj'
   1FA350   Module 'Obj\runtime_api.AAF7A8D0.obj'
   1FA360   Module 'Obj\registry.750278BD.obj'
   1FA370   Module 'Obj\systeminformation_api.720D241D.obj'
   1FA380   Module 'Obj\binary.81E0542A.obj'
   1FA390   Module 'Obj\filesystem.14FC0F0E.obj'
   1FA3A0   Module 'Obj\string.79FC483E.obj'
   1FA3B0   Module 'Obj\boolean.223D1EF3.obj'
   1FA3C0   Module 'Obj\string_api.9F0D2E24.obj'
   1FA3D0   Module 'Obj\inputstreamsupport.B96A0569.obj'
   1FA3E0   Module 'Obj\outputstreamsupport.9F52D3AC.obj'
   1FA3F0   Module 'Obj\exe.0BB6E1A4.obj'
   1FA400   Module 'Obj\list.90A37E7A.obj'
   1FA410   Module 'Obj\std.01821D38.obj'
   1FA420   Module 'Obj\core.610F2EE0.obj'
   1FA430   Module 'Obj\string8.31126D59.obj'
   1FA440   Module 'Obj\string8_api.876B157C.obj'
   1FA450   Module 'Obj\stream.99E3A2B3.obj'
   1FA460   Module 'Obj\exe_api.F27809B9.obj'
   1FA470   Module 'Obj\math.8BE40BD3.obj'
   1FA480   Module 'Obj\filesystem_api.EE6511E1.obj'
   1FA490   Module 'Obj\memory.F1BE59D6.obj'
   1FA4A0   Module 'Obj\event.5E0B1F78.obj'
   1FA4B0   Module 'Obj\time_api.3BF8D4E6.obj'
   1FA4C0   Module 'Obj\locale_api.2F2FFAF4.obj'
   1FA4D0   Module 'Obj\gui_api.9DA8CF80.obj'
   1FA4E0   Module 'Obj\vpidomains.97964869.obj'
   1FA4F0   Module 'Obj\exception.311FF4B8.obj'
   1FA500   Module 'Obj\programcontrol.D3F4CEF5.obj'
   1FA510   Module 'Obj\multithread_api.53CE32BC.obj'
   1FA520   Module 'Obj\windowsapi.9B3D04D6.obj'

Frame 1FB000   Size 001540.  Name=<  VIPini>, 	Chars=40000040h. [IR]
1FB000:000000 000004   VIPini$A::VIPini$A::VIPini F=4
   1FB000   Module 'Obj\main.A22FE9BF.obj'
1FB000:000004 000614   VIPini$C::VIPini$C::VIPini F=4
   1FB004   Module 'Obj\ancestordialog.46A1E7BA.obj'
   1FB1A0   Module 'Obj\queuem_fact.5098B7D6.obj'
   1FB1E4   Module 'Obj\regex.BA00B3C3.obj'
   1FB204   Module 'Obj\gdiplus_api.E2AD24A1.obj'
   1FB208   Module 'Obj\imagelist_api.B0CD6213.obj'
   1FB20C   Module 'Obj\clipboard.1ECF18C4.obj'
   1FB210   Module 'Obj\commondialogs.76CF8FD5.obj'
   1FB21C   Module 'Obj\uxtheme_api.C7D10B8D.obj'
   1FB220   Module 'Obj\istream_api.8D77AD4D.obj'
   1FB228   Module 'Obj\icondirectory_api.86935A9F.obj'
   1FB234   Module 'Obj\monitorqueue.7335D9C2.obj'
   1FB23C   Module 'Obj\multithread.42945F62.obj'
   1FB278   Module 'Obj\vpi_native.CBE05F9A.obj'
   1FB27C   Module 'Obj\main.A22FE9BF.obj'
   1FB290   Module 'Obj\taskwindow.3D15576A.obj'
   1FB2B0   Module 'Obj\toolbars.B027D95B.obj'
   1FB2C0   Module 'Obj\scilexersupport.3A50A325.obj'
   1FB2DC   Module 'Obj\templateexpander.AAEA96F5.obj'
   1FB2E4   Module 'Obj\commoncontrols_api.5468C80D.obj'
   1FB2EC   Module 'Obj\vpi.BB6354DC.obj'
   1FB2FC   Module 'Obj\vpitoolbar.EDA90FC1.obj'
   1FB300   Module 'Obj\scilexer_api.849DAF4B.obj'
   1FB308   Module 'Obj\gui.41D0084F.obj'
   1FB338   Module 'Obj\command.64092024.obj'
   1FB33C   Module 'Obj\controls.EA481C3E.obj'
   1FB3A0   Module 'Obj\gdiplus.D367CAF6.obj'
   1FB414   Module 'Obj\guisupport.243CF570.obj'
   1FB41C   Module 'Obj\imagelist.0B04176D.obj'
   1FB420   Module 'Obj\statusbarcontrol.83EE7AF0.obj'
   1FB428   Module 'Obj\tooltip.C2C27652.obj'
   1FB438   Module 'Obj\statusbar.91A8DF89.obj'
   1FB43C   Module 'Obj\tooltipsupport.97F99340.obj'
   1FB440   Module 'Obj\redblacktree.61DB29D3.obj'
   1FB444   Module 'Obj\mapmsupport.B5C5E982.obj'
   1FB450   Module 'Obj\collectionmsupport.1078EA0D.obj'
   1FB454   Module 'Obj\collectionsupport.FBE6D943.obj'
   1FB458   Module 'Obj\redblackset.D207E793.obj'
   1FB45C   Module 'Obj\errorpresentationdialog.16250CAB.obj'
   1FB460   Module 'Obj\messagecontrol.383256BA.obj'
   1FB474   Module 'Obj\scilexer.AFB548FB.obj'
   1FB478   Module 'Obj\controlsupport.CD1DE148.obj'
   1FB490   Module 'Obj\varm.637998CB.obj'
   1FB4A8   Module 'Obj\arraym_inline.0830C9D1.obj'
   1FB4B0   Module 'Obj\exceptiondump.F8208295.obj'
   1FB4C4   Module 'Obj\shell_api.76DAFA28.obj'
   1FB4CC   Module 'Obj\registry_api.1F62FF31.obj'
   1FB4D4   Module 'Obj\collection.26E04001.obj'
   1FB4D4   Module 'Obj\mapm_redblack.B30CE1C9.obj'
   1FB4D8   Module 'Obj\setm_redblack.93FF0DB0.obj'
   1FB4DC   Module 'Obj\namedvalue.A8464E91.obj'
   1FB4E0   Module 'Obj\reflection.87B371B1.obj'
   1FB4E8   Module 'Obj\typelibrary.95661F20.obj'
   1FB4E8   Module 'Obj\memory_api.066136AF.obj'
   1FB4F0   Module 'Obj\runtime_api.AAF7A8D0.obj'
   1FB4F4   Module 'Obj\registry.750278BD.obj'
   1FB4FC   Module 'Obj\systeminformation_api.720D241D.obj'
   1FB504   Module 'Obj\binary.81E0542A.obj'
   1FB51C   Module 'Obj\filesystem.14FC0F0E.obj'
   1FB53C   Module 'Obj\string.79FC483E.obj'
   1FB54C   Module 'Obj\boolean.223D1EF3.obj'
   1FB550   Module 'Obj\string_api.9F0D2E24.obj'
   1FB554   Module 'Obj\inputstreamsupport.B96A0569.obj'
   1FB558   Module 'Obj\outputstreamsupport.9F52D3AC.obj'
   1FB55C   Module 'Obj\exe.0BB6E1A4.obj'
   1FB560   Module 'Obj\list.90A37E7A.obj'
   1FB564   Module 'Obj\std.01821D38.obj'
   1FB568   Module 'Obj\core.610F2EE0.obj'
   1FB56C   Module 'Obj\string8.31126D59.obj'
   1FB570   Module 'Obj\string8_api.876B157C.obj'
   1FB578   Module 'Obj\stream.99E3A2B3.obj'
   1FB58C   Module 'Obj\exe_api.F27809B9.obj'
   1FB594   Module 'Obj\math.8BE40BD3.obj'
   1FB59C   Module 'Obj\filesystem_api.EE6511E1.obj'
   1FB5A8   Module 'Obj\memory.F1BE59D6.obj'
   1FB5B8   Module 'Obj\event.5E0B1F78.obj'
   1FB5D8   Module 'Obj\time_api.3BF8D4E6.obj'
   1FB5E0   Module 'Obj\locale_api.2F2FFAF4.obj'
   1FB5E8   Module 'Obj\gui_api.9DA8CF80.obj'
   1FB5F0   Module 'Obj\vpidomains.97964869.obj'
   1FB5F8   Module 'Obj\exception.311FF4B8.obj'
   1FB608   Module 'Obj\programcontrol.D3F4CEF5.obj'
   1FB60C   Module 'Obj\multithread_api.53CE32BC.obj'
   1FB614   Module 'Obj\windowsapi.9B3D04D6.obj'
1FB000:000618 000008   VIPini$E::VIPini$E::VIPini F=4
   1FB618   Module 'Obj\main.A22FE9BF.obj'

Frame 1FD000   Size 000010.  Name=<  VIPsym>, 	Chars=40000040h. [IR]
1FD000:000000 000004   VIPsym$A::VIPsym$A::VIPsym F=4
   1FD000   Module 'Obj\main.A22FE9BF.obj'
1FD000:000004 000000   VIPsym$C::VIPsym$C::VIPsym F=4
   1FD004   Module 'Obj\ancestordialog.46A1E7BA.obj'
   1FD004   Module 'Obj\queuem_fact.5098B7D6.obj'
   1FD004   Module 'Obj\regex.BA00B3C3.obj'
   1FD004   Module 'Obj\gdiplus_api.E2AD24A1.obj'
   1FD004   Module 'Obj\imagelist_api.B0CD6213.obj'
   1FD004   Module 'Obj\clipboard.1ECF18C4.obj'
   1FD004   Module 'Obj\commondialogs.76CF8FD5.obj'
   1FD004   Module 'Obj\uxtheme_api.C7D10B8D.obj'
   1FD004   Module 'Obj\istream_api.8D77AD4D.obj'
   1FD004   Module 'Obj\icondirectory_api.86935A9F.obj'
   1FD004   Module 'Obj\monitorqueue.7335D9C2.obj'
   1FD004   Module 'Obj\multithread.42945F62.obj'
   1FD004   Module 'Obj\vpi_native.CBE05F9A.obj'
   1FD004   Module 'Obj\main.A22FE9BF.obj'
   1FD004   Module 'Obj\taskwindow.3D15576A.obj'
   1FD004   Module 'Obj\toolbars.B027D95B.obj'
   1FD004   Module 'Obj\scilexersupport.3A50A325.obj'
   1FD004   Module 'Obj\templateexpander.AAEA96F5.obj'
   1FD004   Module 'Obj\commoncontrols_api.5468C80D.obj'
   1FD004   Module 'Obj\vpi.BB6354DC.obj'
   1FD004   Module 'Obj\vpitoolbar.EDA90FC1.obj'
   1FD004   Module 'Obj\scilexer_api.849DAF4B.obj'
   1FD004   Module 'Obj\gui.41D0084F.obj'
   1FD004   Module 'Obj\command.64092024.obj'
   1FD004   Module 'Obj\controls.EA481C3E.obj'
   1FD004   Module 'Obj\gdiplus.D367CAF6.obj'
   1FD004   Module 'Obj\guisupport.243CF570.obj'
   1FD004   Module 'Obj\imagelist.0B04176D.obj'
   1FD004   Module 'Obj\statusbarcontrol.83EE7AF0.obj'
   1FD004   Module 'Obj\tooltip.C2C27652.obj'
   1FD004   Module 'Obj\statusbar.91A8DF89.obj'
   1FD004   Module 'Obj\tooltipsupport.97F99340.obj'
   1FD004   Module 'Obj\redblacktree.61DB29D3.obj'
   1FD004   Module 'Obj\mapmsupport.B5C5E982.obj'
   1FD004   Module 'Obj\collectionmsupport.1078EA0D.obj'
   1FD004   Module 'Obj\collectionsupport.FBE6D943.obj'
   1FD004   Module 'Obj\redblackset.D207E793.obj'
   1FD004   Module 'Obj\errorpresentationdialog.16250CAB.obj'
   1FD004   Module 'Obj\messagecontrol.383256BA.obj'
   1FD004   Module 'Obj\scilexer.AFB548FB.obj'
   1FD004   Module 'Obj\controlsupport.CD1DE148.obj'
   1FD004   Module 'Obj\varm.637998CB.obj'
   1FD004   Module 'Obj\arraym_inline.0830C9D1.obj'
   1FD004   Module 'Obj\exceptiondump.F8208295.obj'
   1FD004   Module 'Obj\shell_api.76DAFA28.obj'
   1FD004   Module 'Obj\registry_api.1F62FF31.obj'
   1FD004   Module 'Obj\collection.26E04001.obj'
   1FD004   Module 'Obj\mapm_redblack.B30CE1C9.obj'
   1FD004   Module 'Obj\setm_redblack.93FF0DB0.obj'
   1FD004   Module 'Obj\namedvalue.A8464E91.obj'
   1FD004   Module 'Obj\reflection.87B371B1.obj'
   1FD004   Module 'Obj\typelibrary.95661F20.obj'
   1FD004   Module 'Obj\memory_api.066136AF.obj'
   1FD004   Module 'Obj\runtime_api.AAF7A8D0.obj'
   1FD004   Module 'Obj\registry.750278BD.obj'
   1FD004   Module 'Obj\systeminformation_api.720D241D.obj'
   1FD004   Module 'Obj\binary.81E0542A.obj'
   1FD004   Module 'Obj\filesystem.14FC0F0E.obj'
   1FD004   Module 'Obj\string.79FC483E.obj'
   1FD004   Module 'Obj\boolean.223D1EF3.obj'
   1FD004   Module 'Obj\string_api.9F0D2E24.obj'
   1FD004   Module 'Obj\inputstreamsupport.B96A0569.obj'
   1FD004   Module 'Obj\outputstreamsupport.9F52D3AC.obj'
   1FD004   Module 'Obj\exe.0BB6E1A4.obj'
   1FD004   Module 'Obj\list.90A37E7A.obj'
   1FD004   Module 'Obj\std.01821D38.obj'
   1FD004   Module 'Obj\core.610F2EE0.obj'
   1FD004   Module 'Obj\string8.31126D59.obj'
   1FD004   Module 'Obj\string8_api.876B157C.obj'
   1FD004   Module 'Obj\stream.99E3A2B3.obj'
   1FD004   Module 'Obj\exe_api.F27809B9.obj'
   1FD004   Module 'Obj\math.8BE40BD3.obj'
   1FD004   Module 'Obj\filesystem_api.EE6511E1.obj'
   1FD004   Module 'Obj\memory.F1BE59D6.obj'
   1FD004   Module 'Obj\event.5E0B1F78.obj'
   1FD004   Module 'Obj\time_api.3BF8D4E6.obj'
   1FD004   Module 'Obj\locale_api.2F2FFAF4.obj'
   1FD004   Module 'Obj\gui_api.9DA8CF80.obj'
   1FD004   Module 'Obj\vpidomains.97964869.obj'
   1FD004   Module 'Obj\exception.311FF4B8.obj'
   1FD004   Module 'Obj\programcontrol.D3F4CEF5.obj'
   1FD004   Module 'Obj\multithread_api.53CE32BC.obj'
   1FD004   Module 'Obj\windowsapi.9B3D04D6.obj'
1FD000:000004 000008   VIPsym$E::VIPsym$E::VIPsym F=4
   1FD004   Module 'Obj\main.A22FE9BF.obj'

Frame 1FE000   Size 002E40.  Name=<  VIPtpd>, 	Chars=40000040h. [IR]
1FE000:000000 000004   VIPtpd$A::VIPtpd$A::VIPtpd F=4
   1FE000   Module 'Obj\main.A22FE9BF.obj'
1FE000:000004 002E30   VIPtpd$C::VIPtpd$C::VIPtpd F=4
   1FE004   Module 'Obj\ancestordialog.46A1E7BA.obj'
   1FE320   Module 'Obj\queuem_fact.5098B7D6.obj'
   1FE378   Module 'Obj\regex.BA00B3C3.obj'
   1FE3B4   Module 'Obj\gdiplus_api.E2AD24A1.obj'
   1FE40C   Module 'Obj\imagelist_api.B0CD6213.obj'
   1FE40C   Module 'Obj\clipboard.1ECF18C4.obj'
   1FE6B8   Module 'Obj\commondialogs.76CF8FD5.obj'
   1FE6E4   Module 'Obj\uxtheme_api.C7D10B8D.obj'
   1FE6E4   Module 'Obj\istream_api.8D77AD4D.obj'
   1FE6E8   Module 'Obj\icondirectory_api.86935A9F.obj'
   1FE72C   Module 'Obj\monitorqueue.7335D9C2.obj'
   1FE73C   Module 'Obj\multithread.42945F62.obj'
   1FE770   Module 'Obj\vpi_native.CBE05F9A.obj'
   1FEA78   Module 'Obj\main.A22FE9BF.obj'
   1FEDF0   Module 'Obj\taskwindow.3D15576A.obj'
   1FF174   Module 'Obj\toolbars.B027D95B.obj'
   1FF184   Module 'Obj\scilexersupport.3A50A325.obj'
   1FF1CC   Module 'Obj\templateexpander.AAEA96F5.obj'
   1FF1E4   Module 'Obj\commoncontrols_api.5468C80D.obj'
   1FF4D0   Module 'Obj\vpi.BB6354DC.obj'
   1FF4E8   Module 'Obj\vpitoolbar.EDA90FC1.obj'
   1FF514   Module 'Obj\scilexer_api.849DAF4B.obj'
   1FF52C   Module 'Obj\gui.41D0084F.obj'
   1FF624   Module 'Obj\command.64092024.obj'
   1FF8D8   Module 'Obj\controls.EA481C3E.obj'
   1FF9C8   Module 'Obj\gdiplus.D367CAF6.obj'
   1FFA74   Module 'Obj\guisupport.243CF570.obj'
   1FFA80   Module 'Obj\imagelist.0B04176D.obj'
   1FFA88   Module 'Obj\statusbarcontrol.83EE7AF0.obj'
   1FFD80   Module 'Obj\tooltip.C2C27652.obj'
   2000A4   Module 'Obj\statusbar.91A8DF89.obj'
   2000B0   Module 'Obj\tooltipsupport.97F99340.obj'
   2000C4   Module 'Obj\redblacktree.61DB29D3.obj'
   20013C   Module 'Obj\mapmsupport.B5C5E982.obj'
   2001EC   Module 'Obj\collectionmsupport.1078EA0D.obj'
   2001F4   Module 'Obj\collectionsupport.FBE6D943.obj'
   200234   Module 'Obj\redblackset.D207E793.obj'
   2002A0   Module 'Obj\errorpresentationdialog.16250CAB.obj'
   2002C0   Module 'Obj\messagecontrol.383256BA.obj'
   200320   Module 'Obj\scilexer.AFB548FB.obj'
   200334   Module 'Obj\controlsupport.CD1DE148.obj'
   20037C   Module 'Obj\varm.637998CB.obj'
   2003B8   Module 'Obj\arraym_inline.0830C9D1.obj'
   2003FC   Module 'Obj\exceptiondump.F8208295.obj'
   200414   Module 'Obj\shell_api.76DAFA28.obj'
   20045C   Module 'Obj\registry_api.1F62FF31.obj'
   200460   Module 'Obj\collection.26E04001.obj'
   200490   Module 'Obj\mapm_redblack.B30CE1C9.obj'
   2004A8   Module 'Obj\setm_redblack.93FF0DB0.obj'
   2004B0   Module 'Obj\namedvalue.A8464E91.obj'
   2004B0   Module 'Obj\reflection.87B371B1.obj'
   2004CC   Module 'Obj\typelibrary.95661F20.obj'
   2004CC   Module 'Obj\memory_api.066136AF.obj'
   200500   Module 'Obj\runtime_api.AAF7A8D0.obj'
   200504   Module 'Obj\registry.750278BD.obj'
   20050C   Module 'Obj\systeminformation_api.720D241D.obj'
   200528   Module 'Obj\binary.81E0542A.obj'
   2005CC   Module 'Obj\filesystem.14FC0F0E.obj'
   20061C   Module 'Obj\string.79FC483E.obj'
   200644   Module 'Obj\boolean.223D1EF3.obj'
   200644   Module 'Obj\string_api.9F0D2E24.obj'
   200654   Module 'Obj\inputstreamsupport.B96A0569.obj'
   2006D8   Module 'Obj\outputstreamsupport.9F52D3AC.obj'
   2006E4   Module 'Obj\exe.0BB6E1A4.obj'
   200770   Module 'Obj\list.90A37E7A.obj'
   2007A0   Module 'Obj\std.01821D38.obj'
   2007B0   Module 'Obj\core.610F2EE0.obj'
   2009DC   Module 'Obj\string8.31126D59.obj'
   2009DC   Module 'Obj\string8_api.876B157C.obj'
   2009DC   Module 'Obj\stream.99E3A2B3.obj'
   2009EC   Module 'Obj\exe_api.F27809B9.obj'
   2009F4   Module 'Obj\math.8BE40BD3.obj'
   200A00   Module 'Obj\filesystem_api.EE6511E1.obj'
   200A60   Module 'Obj\memory.F1BE59D6.obj'
   200B0C   Module 'Obj\event.5E0B1F78.obj'
   200C18   Module 'Obj\time_api.3BF8D4E6.obj'
   200C2C   Module 'Obj\locale_api.2F2FFAF4.obj'
   200C40   Module 'Obj\gui_api.9DA8CF80.obj'
   200D68   Module 'Obj\vpidomains.97964869.obj'
   200DC0   Module 'Obj\exception.311FF4B8.obj'
   200DF4   Module 'Obj\programcontrol.D3F4CEF5.obj'
   200DFC   Module 'Obj\multithread_api.53CE32BC.obj'
   200E28   Module 'Obj\windowsapi.9B3D04D6.obj'
1FE000:002E34 000008   VIPtpd$E::VIPtpd$E::VIPtpd F=4
   200E34   Module 'Obj\main.A22FE9BF.obj'

Frame 201000   Size 002E50.  Name=<  VIPtpl>, 	Chars=40000040h. [IR]
201000:000000 000004   VIPtpl$A::VIPtpl$A::VIPtpl F=4
   201000   Module 'Obj\main.A22FE9BF.obj'
201000:000004 002E40   VIPtpl$C::VIPtpl$C::VIPtpl F=4
   201004   Module 'Obj\ancestordialog.46A1E7BA.obj'
   2012FC   Module 'Obj\queuem_fact.5098B7D6.obj'
   201314   Module 'Obj\regex.BA00B3C3.obj'
   201360   Module 'Obj\gdiplus_api.E2AD24A1.obj'
   2013B8   Module 'Obj\imagelist_api.B0CD6213.obj'
   2013B8   Module 'Obj\clipboard.1ECF18C4.obj'
   201674   Module 'Obj\commondialogs.76CF8FD5.obj'
   2016B4   Module 'Obj\uxtheme_api.C7D10B8D.obj'
   2016B8   Module 'Obj\istream_api.8D77AD4D.obj'
   2016BC   Module 'Obj\icondirectory_api.86935A9F.obj'
   2016D4   Module 'Obj\monitorqueue.7335D9C2.obj'
   2016E4   Module 'Obj\multithread.42945F62.obj'
   201724   Module 'Obj\vpi_native.CBE05F9A.obj'
   201A28   Module 'Obj\main.A22FE9BF.obj'
   201D74   Module 'Obj\taskwindow.3D15576A.obj'
   2020D4   Module 'Obj\toolbars.B027D95B.obj'
   2020E4   Module 'Obj\scilexersupport.3A50A325.obj'
   202134   Module 'Obj\templateexpander.AAEA96F5.obj'
   202154   Module 'Obj\commoncontrols_api.5468C80D.obj'
   202400   Module 'Obj\vpi.BB6354DC.obj'
   202420   Module 'Obj\vpitoolbar.EDA90FC1.obj'
   20244C   Module 'Obj\scilexer_api.849DAF4B.obj'
   202464   Module 'Obj\gui.41D0084F.obj'
   20260C   Module 'Obj\command.64092024.obj'
   2028C8   Module 'Obj\controls.EA481C3E.obj'
   2029BC   Module 'Obj\gdiplus.D367CAF6.obj'
   202A9C   Module 'Obj\guisupport.243CF570.obj'
   202AB0   Module 'Obj\imagelist.0B04176D.obj'
   202AB8   Module 'Obj\statusbarcontrol.83EE7AF0.obj'
   202DC0   Module 'Obj\tooltip.C2C27652.obj'
   2030C0   Module 'Obj\statusbar.91A8DF89.obj'
   2030CC   Module 'Obj\tooltipsupport.97F99340.obj'
   2030E8   Module 'Obj\redblacktree.61DB29D3.obj'
   203130   Module 'Obj\mapmsupport.B5C5E982.obj'
   203178   Module 'Obj\collectionmsupport.1078EA0D.obj'
   203180   Module 'Obj\collectionsupport.FBE6D943.obj'
   203188   Module 'Obj\redblackset.D207E793.obj'
   2031CC   Module 'Obj\errorpresentationdialog.16250CAB.obj'
   2031F4   Module 'Obj\messagecontrol.383256BA.obj'
   20325C   Module 'Obj\scilexer.AFB548FB.obj'
   2032A8   Module 'Obj\controlsupport.CD1DE148.obj'
   20331C   Module 'Obj\varm.637998CB.obj'
   203360   Module 'Obj\arraym_inline.0830C9D1.obj'
   203388   Module 'Obj\exceptiondump.F8208295.obj'
   203400   Module 'Obj\shell_api.76DAFA28.obj'
   20343C   Module 'Obj\registry_api.1F62FF31.obj'
   203444   Module 'Obj\collection.26E04001.obj'
   203444   Module 'Obj\mapm_redblack.B30CE1C9.obj'
   20344C   Module 'Obj\setm_redblack.93FF0DB0.obj'
   203454   Module 'Obj\namedvalue.A8464E91.obj'
   203464   Module 'Obj\reflection.87B371B1.obj'
   20348C   Module 'Obj\typelibrary.95661F20.obj'
   20348C   Module 'Obj\memory_api.066136AF.obj'
   2034CC   Module 'Obj\runtime_api.AAF7A8D0.obj'
   2034DC   Module 'Obj\registry.750278BD.obj'
   2034E8   Module 'Obj\systeminformation_api.720D241D.obj'
   203500   Module 'Obj\binary.81E0542A.obj'
   203598   Module 'Obj\filesystem.14FC0F0E.obj'
   2035FC   Module 'Obj\string.79FC483E.obj'
   203644   Module 'Obj\boolean.223D1EF3.obj'
   203644   Module 'Obj\string_api.9F0D2E24.obj'
   203654   Module 'Obj\inputstreamsupport.B96A0569.obj'
   2036B4   Module 'Obj\outputstreamsupport.9F52D3AC.obj'
   2036C8   Module 'Obj\exe.0BB6E1A4.obj'
   203730   Module 'Obj\list.90A37E7A.obj'
   203768   Module 'Obj\std.01821D38.obj'
   203778   Module 'Obj\core.610F2EE0.obj'
   20397C   Module 'Obj\string8.31126D59.obj'
   203984   Module 'Obj\string8_api.876B157C.obj'
   203984   Module 'Obj\stream.99E3A2B3.obj'
   203998   Module 'Obj\exe_api.F27809B9.obj'
   2039A0   Module 'Obj\math.8BE40BD3.obj'
   2039AC   Module 'Obj\filesystem_api.EE6511E1.obj'
   203A14   Module 'Obj\memory.F1BE59D6.obj'
   203AC8   Module 'Obj\event.5E0B1F78.obj'
   203BF4   Module 'Obj\time_api.3BF8D4E6.obj'
   203C04   Module 'Obj\locale_api.2F2FFAF4.obj'
   203C18   Module 'Obj\gui_api.9DA8CF80.obj'
   203D58   Module 'Obj\vpidomains.97964869.obj'
   203DB4   Module 'Obj\exception.311FF4B8.obj'
   203DFC   Module 'Obj\programcontrol.D3F4CEF5.obj'
   203E04   Module 'Obj\multithread_api.53CE32BC.obj'
   203E34   Module 'Obj\windowsapi.9B3D04D6.obj'
201000:002E44 000008   VIPtpl$E::VIPtpl$E::VIPtpl F=4
   203E44   Module 'Obj\main.A22FE9BF.obj'

Frame 204000   Size 000460.  Name=<   .data>, 	Chars=C0000040h. [IRW]
204000:000000 000448   .data::DATA::DGROUP F=4
   204000   Module 'Obj\ancestordialog.46A1E7BA.obj'
   204008   Module 'Obj\queuem_fact.5098B7D6.obj'
   204010   Module 'Obj\regex.BA00B3C3.obj'
   204014   Module 'Obj\commondialogs.76CF8FD5.obj'
   20401C   Module 'Obj\monitorqueue.7335D9C2.obj'
   204024   Module 'Obj\multithread.42945F62.obj'
   204064   Module 'Obj\taskwindow.3D15576A.obj'
   204074   Module 'Obj\scilexersupport.3A50A325.obj'
   204084   Module 'Obj\templateexpander.AAEA96F5.obj'
   20408C   Module 'Obj\vpi.BB6354DC.obj'
   204098   Module 'Obj\gui.41D0084F.obj'
   2040EC   Module 'Obj\command.64092024.obj'
   2040F8   Module 'Obj\controls.EA481C3E.obj'
   204180   Module 'Obj\gdiplus.D367CAF6.obj'
   204258   Module 'Obj\guisupport.243CF570.obj'
   204260   Module 'Obj\imagelist.0B04176D.obj'
   204268   Module 'Obj\statusbarcontrol.83EE7AF0.obj'
   204278   Module 'Obj\tooltip.C2C27652.obj'
   204290   Module 'Obj\statusbar.91A8DF89.obj'
   204298   Module 'Obj\tooltipsupport.97F99340.obj'
   2042A0   Module 'Obj\mapmsupport.B5C5E982.obj'
   2042A8   Module 'Obj\collectionmsupport.1078EA0D.obj'
   2042B0   Module 'Obj\collectionsupport.FBE6D943.obj'
   2042B8   Module 'Obj\errorpresentationdialog.16250CAB.obj'
   2042C0   Module 'Obj\messagecontrol.383256BA.obj'
   2042D8   Module 'Obj\scilexer.AFB548FB.obj'
   2042E0   Module 'Obj\controlsupport.CD1DE148.obj'
   204314   Module 'Obj\varm.637998CB.obj'
   204344   Module 'Obj\arraym_inline.0830C9D1.obj'
   204354   Module 'Obj\registry_api.1F62FF31.obj'
   204358   Module 'Obj\mapm_redblack.B30CE1C9.obj'
   204360   Module 'Obj\setm_redblack.93FF0DB0.obj'
   204368   Module 'Obj\runtime_api.AAF7A8D0.obj'
   20436C   Module 'Obj\systeminformation_api.720D241D.obj'
   204370   Module 'Obj\binary.81E0542A.obj'
   204380   Module 'Obj\filesystem.14FC0F0E.obj'
   204398   Module 'Obj\string.79FC483E.obj'
   2043A8   Module 'Obj\inputstreamsupport.B96A0569.obj'
   2043B0   Module 'Obj\outputstreamsupport.9F52D3AC.obj'
   2043B8   Module 'Obj\stream.99E3A2B3.obj'
   2043D0   Module 'Obj\filesystem_api.EE6511E1.obj'
   2043D8   Module 'Obj\memory.F1BE59D6.obj'
   2043E8   Module 'Obj\event.5E0B1F78.obj'
   204428   Module 'Obj\time_api.3BF8D4E6.obj'
   204430   Module 'Obj\gui_api.9DA8CF80.obj'
   204438   Module 'Obj\exception.311FF4B8.obj'
   204440   Module 'Obj\multithread_api.53CE32BC.obj'
204000:000448 00000C   .bss::BSS::DGROUP F=4
   204448   Module '..\..\..\_intermediate\sourceVS\vipInit\Win32\ReleasePE\VIPDll.obj'

	     ------- Names by value Map ---------
Frame 001000   Size 10B950.  Name=<   .text>, 	Chars=60000020h. [CER]
001000:000000 10B770   .text::CODE::<no group> F=4
--- From 'Obj\ancestordialog.46A1E7BA.obj'
01:00001000 ?_display@ancestorDialog@@SAXQAVwindow@@@PAPAV1@@@Z  (Idle)
01:00001028 ?new@ancestorDialog@@SAXQAV1@@QAVwindow@@@@Z  (Idle)
01:00001048 ?generatedInitialize@ancestorDialog@@SAXQAV1@@@Z 
01:000013F0 ?_new@ancestorDialog@@SAXQAVwindow@@@PAPAV1@@@Z 
01:00002640 ancestorDialog?_initObject@@@QAGXQAV1@H@Z 
01:00002678 ?@create_object@ancestorDialog@@SGQAV1@@XZ 
01:00002694 ancestorDialog?_InternalFinalizer@@@QAGXQAV1@@Z 
--- From 'Obj\queuem_fact.5098B7D6.obj'
01:000026B0 ?new@queueM_fact@@SAXQAV1@@PAXQAVrTypeLibrary@TypeLibraries@RunTime@VIP@@@Z  (Idle)
01:000026C8 ?contains@queueM_fact@@SAXQAVcollection@@@PAXPAX@Z 
01:00002728 ?_getAll_nd@queueM_fact@@SAXQAVcollection@@@PAXPAPAX@Z 
01:00002774 ?insert@queueM_fact@@SAXQAVmodifiable@@@PAXPAX@Z 
01:0000279C ?insertFirst@queueM_fact@@SAXQAVqueueM@@@PAXPAX@Z 
01:000027C4 ?remove@queueM_fact@@SAXQAVmodifiable@@@PAXPAX@Z 
01:0000287C ?clear@queueM_fact@@SAXQAVmodifiable@@@PAX@Z 
01:000028B8 ?_tryRemoveFirst@queueM_fact@@SAXQAVmodifiable@@@PAXPAPAX@Z 
--- From 'Obj\regex.BA00B3C3.obj'
01:00002928 ?_new@queueM_fact@@SAXQAVrTypeLibrary@TypeLibraries@RunTime@VIP@@PAPAVqueueM@@@PAPAX@Z 
--- From 'Obj\queuem_fact.5098B7D6.obj'
01:00002954 ?_object_typelib_initializer@queueM_fact@@SGXQAV1@@PAXQAVrTypeLibrary@TypeLibraries@RunTime@VIP@@@Z 
01:00002B34 queueM_fact{@Type}?_initObject@@@QAGXQAV1@H@Z 
01:00002B70 ?@create_object@queueM_fact@@SGQAV1@@PAXQAVrTypeLibrary@TypeLibraries@RunTime@VIP@@@Z 
01:00002B94 queueM_fact{@Type}?_InternalFinalizer@@@QAGXQAV1@@Z 
--- From 'Obj\clipboard.1ECF18C4.obj'
01:00002BB0 ?search@regEx@@SAXPB_W0AAUcharCount@@2@Z 
--- From 'Obj\templateexpander.AAEA96F5.obj'
01:00002BE4 ?search@regEx@@SAXPB_W0PAUboolean_struct@_builtIn@@AAUcharCount@@3@Z 
--- From 'Obj\regex.BA00B3C3.obj'
01:00002C10 ?search@regEx@@SAXPB_W0PAUboolean_struct@_builtIn@@PBUcharCount@@PBUcharOffset@@AAU4@5@Z 
--- From 'Obj\clipboard.1ECF18C4.obj'
01:00002CA0 ?_replace@regEx@@SAXPB_W00PAPB_W@Z 
--- From 'Obj\regex.BA00B3C3.obj'
01:00002CBC ?_search_and_replace@regEx@@SAXPB_W0PAUboolean_struct@_builtIn@@PBUcharCount@@PBUcharOffset@@0AAU4@6PAPB_W@Z  (Idle)
--- From 'Obj\templateexpander.AAEA96F5.obj'
01:00002D24 ?match@regEx@@SAXPB_W0PAUboolean_struct@_builtIn@@AAUcharCount@@3PAPAU?$__packedList_struct@Ustring@@@@@Z 
--- From 'Obj\regex.BA00B3C3.obj'
01:00002D5C ?match@regEx@@SAXPB_W0PAUboolean_struct@_builtIn@@PBUcharCount@@PBUcharOffset@@AAU4@5PAPAU?$__packedList_struct@Ustring@@@@@Z 
01:00002E88 ?_ignoreCaseFlag@regEx@@SAXPAUboolean_struct@_builtIn@@AAUflags@@@Z 
01:00002EAC ?resultCallback@regEx@@SGXQAVqueueM@@@PAUtuple_struct@core@@PBUcharCountOptional@@PBUcharCount@@PBUintegerNative@@1@Z 
01:00002F18 ?_init@regEx@@SAXPAH@Z  (Idle)
01:00002F38 ?exceptionRaiser8@regEx@@SGXPAD@Z 
01:00002F84 ?stringCopy@regEx@@SGPB_W0@Z 
01:00002FAC ?_class_facts_initializer@regEx@@SGXXZ 
--- From 'Obj\gdiplus_api.E2AD24A1.obj'
01:00002FE0 ?_getPixelFormatSize@gdiplus_native@@SAXPBUpixelFormat@@PAI@Z  (Idle)
01:00003020 ?isIndexedPixelFormat@gdiplus_native@@SAXPBUpixelFormat@@@Z  (Idle)
01:0000303C ?isAlphaPixelFormat@gdiplus_native@@SAXPBUpixelFormat@@@Z  (Idle)
01:00003058 ?isExtendedPixelFormat@gdiplus_native@@SAXPBUpixelFormat@@@Z  (Idle)
--- From 'Obj\clipboard.1ECF18C4.obj'
01:00003080 ?putString@clipboard@@SAXPB_W@Z  (Idle)
--- From 'Obj\errorpresentationdialog.16250CAB.obj'
01:0000309C ?putString@clipboard@@SAXQAVwindow@@@PB_W@Z 
--- From 'Obj\clipboard.1ECF18C4.obj'
01:000030EC ?putUserDefined@clipboard@@SAXQAVwindow@@@PB_WQAE@Z  (Idle)
01:0000314C ?openClipboardInner@clipboard@@SAXQAVwindow@@@@Z  (Idle)
01:000031AC ?put@clipboard@@SAXQAVwindow@@@IPBUhGlobal@windowsAPI@@@Z 
01:00003234 ?putHtml@clipboard@@SAXPB_W0@Z  (Idle)
01:0000326C ?putHtml@clipboard@@SAXPB_W000@Z  (Idle)
--- From 'Obj\scilexer.AFB548FB.obj'
01:000032A4 ?putHtml@clipboard@@SAXQAVwindow@@@PB_W1@Z 
--- From 'Obj\clipboard.1ECF18C4.obj'
01:000032C4 ?putHtml@clipboard@@SAXQAVwindow@@@PB_W111@Z 
01:00003488 ?_tryGetString@clipboard@@SAXPAPB_W@Z  (Idle)
01:000034BC ?_tryGetHTML@clipboard@@SAXPAPB_W@Z  (Idle)
01:00003510 ?_tryGetUserDefined@clipboard@@SAXPB_WQAPAE@Z  (Idle)
01:00003558 ?_tryGetFormatData@clipboard@@SAXQAVrTypeLibrary@TypeLibraries@RunTime@VIP@@IXPAPAX@Z 
01:00003604 ?_lf_crlf@clipboard@@SAXPB_WPAPB_W@Z 
01:00003678 ?_onNative@clipboard@@SAXQAVwindow@@@IPBUwParam@@PBUlParam@@PAPAUnativeResponse_struct@2@@Z 
01:000036CC ?updateClipboardEvent@clipboard@@SGQAVevent0@@@QAVwindow@@@XZ  (Idle)
--- From 'Obj\scilexer.AFB548FB.obj'
01:00003780 ?_newGet_integerControl@commonDialogs@@SAXQAVwindow@@@PB_W1PAPAVcommonDialog@@@PAPAV4@@PAH@Z 
--- From 'Obj\commondialogs.76CF8FD5.obj'
01:000037A0 ?_anonymous$c0$1$newget_integercontrol/4nf$commonDialogs@1@SAXPAUanonymous$c0$1$newget_integercontrol/4nf$commonDialogsc_struct@1@QAVintegerControl@@@PAH@Z 
01:000037C4 ?_newGet_integerControl@commonDialogs@@SAXQAVwindow@@@PB_W11PAPAVcommonDialog@@@PAPAV4@@PAH@Z 
01:00003878 ?_tryGet_integer@commonDialogs@@SAXQAVwindow@@@PB_W1PAH@Z  (Idle)
01:00003898 ?_tryGet_integer@commonDialogs@@SAXQAVwindow@@@PB_W11PAH@Z 
01:000038D4 ?_newGet_realControl@commonDialogs@@SAXQAVwindow@@@PB_W1PAPAVcommonDialog@@@PAPAV4@@PAPAN@Z  (Idle)
01:000038F4 ?_anonymous$c0$1$newget_realcontrol/4nf$commonDialogs@1@SAXPAUanonymous$c0$1$newget_realcontrol/4nf$commonDialogsc_struct@1@QAVrealControl@@@PAPAN@Z 
01:00003918 ?_newGet_realControl@commonDialogs@@SAXQAVwindow@@@PB_W11PAPAVcommonDialog@@@PAPAV4@@PAPAN@Z 
01:000039CC ?_tryGet_real@commonDialogs@@SAXQAVwindow@@@PB_W1PAPAN@Z  (Idle)
01:000039EC ?_tryGet_real@commonDialogs@@SAXQAVwindow@@@PB_W11PAPAN@Z 
01:00003A28 ?_newGet_editControl@commonDialogs@@SAXQAVwindow@@@PB_W1PAPAVcommonDialog@@@PAPAV4@@PAPB_W@Z  (Idle)
01:00003A48 ?_newGet_editControl@commonDialogs@@SAXQAVwindow@@@PB_W11PAPAVcommonDialog@@@PAPAV4@@PAPB_W@Z 
01:00003A68 ?_anonymous$c0$1$newget_editcontrol/5nf$commonDialogs@1@SAXPAUanonymous$c0$1$newget_editcontrol/5nf$commonDialogsc_struct@1@QAVeditControl@@@PAPB_W@Z 
01:00003A8C ?_newGet_editControl@commonDialogs@@SAXQAVwindow@@@PB_W111PAPAVcommonDialog@@@PAPAV4@@PAPB_W@Z 
01:00003B40 ?_newGet_editControl@commonDialogs@@SAXQAVwindow@@@PB_W111XPAPAVcommonDialog@@@PAPAV4@@PAPB_W@Z  (Idle)
01:00003B68 ?_anonymous$c0$1$newget_editcontrol/7nf$commonDialogs@1@SAXPAUanonymous$c0$1$newget_editcontrol/7nf$commonDialogsc_struct@1@QAVeditControl@@@PAPB_W@Z 
01:00003B8C ?_anonymous$c0$2$newget_editcontrol/7nf$commonDialogs@1@SAXPAUanonymous$c0$2$newget_editcontrol/7nf$commonDialogsc_struct@1@QAVcontrol@@@PAPAUvalidateResult_struct@4@@Z 
01:00003C2C ?_newGet_editControl@commonDialogs@@SAXQAVwindow@@@PB_W111HXPAPAVcommonDialog@@@PAPAV4@@PAPB_W@Z 
01:00003D50 ?_tryGet_string@commonDialogs@@SAXQAVwindow@@@PB_W1PAPB_W@Z  (Idle)
01:00003D70 ?_tryGet_string@commonDialogs@@SAXQAVwindow@@@PB_W11PAPB_W@Z 
01:00003D90 ?_tryGet_string@commonDialogs@@SAXQAVwindow@@@PB_W111PAPB_W@Z 
01:00003DD0 ?_tryGet_string@commonDialogs@@SAXQAVwindow@@@PB_W111XPAPB_W@Z  (Idle)
01:00003E14 ?_tryGet_string@commonDialogs@@SAXQAVwindow@@@PB_W111HXPAPB_W@Z  (Idle)
01:00003E58 ?_tryGet@commonDialog@@SAXQAV1@@PAXPAXPAPAX@Z 
01:00003E9C ?onShow@commonDialog@@SAXQAV1@@PAXPAXQAVwindow@@@PBUlParam@gui_native@@@Z 
01:00004164 ?_setPromptWidth@commonDialog@@SAXQAV1@@PAXPAXPAUoptional_struct@core@@QAVtextControl@@@PAH@Z 
01:00004240 ?_anonymous$o0$1$new/6np$commonDialog{@Control,@Elem}@commonDialog@@SAXPAUanonymous$o0$1$new/6np$commonDialog{@Control,@Elem}c_struct@1/2@QAVbutton@@@PAPAUactionResponse_struct@4@@Z 
01:000042D4 ?new@commonDialog@@SAXQAV1@@PAXPAXQAVrTypeLibrary@TypeLibraries@RunTime@VIP@@1QAVwindow@@@PB_W4QAVcontrol@@@PAXX@Z  (Idle)
01:000045AC ?_new@commonDialog@@SAXQAVrTypeLibrary@TypeLibraries@RunTime@VIP@@0QAVwindow@@@PB_W3QAVcontrol@@@PAXXPAPAV1@@PAPAXPAPAX@Z 
01:000045F0 ?_object_typelib_initializer@commonDialog@@SGXQAV1@@PAXPAXQAVrTypeLibrary@TypeLibraries@RunTime@VIP@@1@Z 
01:0000460C ?_control@commonDialog@@SAXQAV1@@PAXPAXPAPAX@Z 
01:000058B0 commonDialog{@Control,@Elem}?_initObject@@@QAGXQAV1@H@Z 
01:000058FC ?@create_object@commonDialog@@SGQAV1@@PAXPAXQAVrTypeLibrary@TypeLibraries@RunTime@VIP@@0@Z 
01:00005924 commonDialog{@Control,@Elem}?_InternalFinalizer@@@QAGXQAV1@@Z 
--- From 'Obj\scilexersupport.3A50A325.obj'
01:00005940 ?isAppThemed@uxTheme_api@@SAXXZ 
--- From 'Obj\gui.41D0084F.obj'
01:00005988 ?setWindowTheme@uxTheme_api@@SAXPBUhwnd@@PB_W1@Z 
--- From 'Obj\uxtheme_api.C7D10B8D.obj'
01:00005A1C ?_nvs@uxTheme_api@@SAXPB_W0PAPAUnamedValue_struct@core@@@Z 
--- From 'Obj\istream_api.8D77AD4D.obj'
01:00005AC0 ?_createStream_string@iStream_api@@SAXPB_WPAPAViStream_native@@@@Z  (Idle)
--- From 'Obj\gdiplus.D367CAF6.obj'
01:00005B14 ?_createStream@iStream_api@@SAXQAEPAPAViStream_native@@@@Z 
01:00005B50 ?_createStream@iStream_api@@SAXPAXPBUbyteCount@@PAPAViStream_native@@@@Z 
--- From 'Obj\icondirectory_api.86935A9F.obj'
01:00005BD0 ?_mkIconDirectory@iconDirectory_api@@SAXPAXPAPAU?$__packedList_struct@UiconDirectoryEntry@@@@@Z  (Idle)
01:00005BDC ?_mkIconDirectory2@iconDirectory_api@@SAXPAUiconDir_struct@iconDirectory_native@@PAPAU?$__packedList_struct@UiconDirectoryEntry@@@@@Z 
01:00005D2C ?_correctSize@iconDirectory_api@@SAXPBUunsigned8@@AAUpositive@@@Z 
--- From 'Obj\gdiplus.D367CAF6.obj'
01:00005D54 ?_createIcon@iconDirectory_api@@SAXPAU?$__packedList_struct@UiconDirectoryEntry@@@@PBUpositive@@1IAAUhIcon@gui_native@@@Z 
--- From 'Obj\icondirectory_api.86935A9F.obj'
01:00005DCC ?_findNearest@iconDirectory_api@@SAXPAU?$__packedList_struct@UiconDirectoryEntry@@@@PBUpositive@@1PAPAUiconDirectoryEntry_struct@1@@Z 
01:00005E78 ?_scalingDistance@iconDirectory_api@@SAXPAUiconDirectoryEntry_struct@1@PBUpositive@@1PAPAN@Z 
01:00005EBC ?_scalingDistance@iconDirectory_api@@SAXPBUpositive@@0PAPAN@Z  (Idle)
--- From 'Obj\gdiplus.D367CAF6.obj'
01:00005F60 ?_scalingDistance@iconDirectory_api@@SAXPBUpositive@@000PAPAN@Z 
01:00005FC8 ?_mkIconDirectory@iconDirectory_api@@SAXQAEPAPAU?$__packedList_struct@UiconDirectoryEntry@@@@@Z 
--- From 'Obj\icondirectory_api.86935A9F.obj'
01:00005FD4 ?_scalingDistance@iconDirectory_api@@SAXPANPANPAPAN@Z  (Idle)
01:00006048 ?_scalingDistance@iconDirectory_api@@SAXPANPANPANPANPAPAN@Z  (Idle)
--- From 'Obj\monitorqueue.7335D9C2.obj'
01:000060B0 ?enqueue@monitorQueue@@SAXQAV1@@PAXPAX@Z 
01:0000613C ?enqueueAtFront@monitorQueue@@SAXQAV1@@PAXPAX@Z 
01:000061C8 ?_dequeue@monitorQueue@@SAXQAV1@@PAXPAPAX@Z 
01:00006314 ?_tryDequeue@monitorQueue@@SAXQAV1@@PAXPAPAX@Z 
01:000064A0 ?new@monitorQueue@@SAXQAV1@@PAXQAVrTypeLibrary@TypeLibraries@RunTime@VIP@@@Z  (Idle)
--- From 'Obj\gui.41D0084F.obj'
01:000064AC ?_new@monitorQueue@@SAXQAVrTypeLibrary@TypeLibraries@RunTime@VIP@@PAPAV1@@PAPAX@Z 
--- From 'Obj\monitorqueue.7335D9C2.obj'
01:000064D4 ?_object_typelib_initializer@monitorQueue@@SGXQAV1@@PAXQAVrTypeLibrary@TypeLibraries@RunTime@VIP@@@Z 
01:000064EC ?_dequeue/0nf_guard@monitorQueue@@SAXQAV1@@PAX@Z  (Idle)
01:0000650C ?_object_facts_initializer@monitorQueue@@SGXQAV1@@PAX@Z 
01:00006528 ?_monitor_initializer@monitorQueue@@SAXQAV1@@PAX@Z 
01:0000654C ?_set_guard_events@monitorQueue@@SAXQAV1@@PAX@Z 
01:0000659C ?_leave_guarded_monitor@monitorQueue@@SAXQAV1@@PAX@Z 
01:000065BC ?_close_monitor@monitorQueue@@SGXQAV1@@PAX@Z 
01:000065E8 ?finalize@monitorQueue@@SGXQAV1@@PAX@Z 
01:00006608 monitorQueue{@Elem}?_initObject@@@QAGXQAV1@H@Z 
01:00006638 ?@create_object@monitorQueue@@SGQAV1@@PAXQAVrTypeLibrary@TypeLibraries@RunTime@VIP@@@Z 
01:0000665C monitorQueue{@Elem}?_InternalFinalizer@@@QAGXQAV1@@Z 
--- From 'Obj\multithread.42945F62.obj'
01:000066B0 ?create@waitableTimer@@SAXQAV1@@PAUboolean_struct@_builtIn@@@Z  (Idle)
01:000066CC ?createNamed@waitableTimer@@SAXQAV1@@PB_WPAUboolean_struct@_builtIn@@@Z 
01:000066FC ?openTimer@waitableTimer@@SAXQAV1@@PB_W@Z  (Idle)
01:0000672C ?setTimer@waitableTimer@@SAXQAV1@@PAPBUtimeIntervalValue@@HPAUboolean_struct@_builtIn@@@Z 
01:00006744 ?setTimer@waitableTimer@@SAXQAV1@@PAPBUtimeIntervalValue@@HXPAXPAUboolean_struct@_builtIn@@@Z 
01:0000675C ?freeze@waitableTimer@@SAXQAV1@@@Z 
01:00006774 ?_create@waitableTimer@@SAXPAUboolean_struct@_builtIn@@PAPAV1@@@Z  (Idle)
01:0000679C ?_createNamed@waitableTimer@@SAXPB_WPAUboolean_struct@_builtIn@@PAPAV1@@@Z  (Idle)
01:000067C8 ?_openTimer@waitableTimer@@SAXPB_WPAPAV1@@@Z  (Idle)
01:000067F0 ?start@thread@@SAXQAV1@@X@Z  (Idle)
01:0000680C ?start@thread@@SAXQAV1@@XPBUbyteCount@@@Z  (Idle)
01:00006820 ?start_comMultiThread@thread@@SAXQAV1@@X@Z  (Idle)
01:00006848 ?start_comMultiThread@thread@@SAXQAV1@@XPBUbyteCount@@@Z  (Idle)
01:00006868 ?createSuspended@thread@@SAXQAV1@@X@Z  (Idle)
01:00006884 ?createSuspended@thread@@SAXQAV1@@XPBUbyteCount@@@Z  (Idle)
01:00006898 ?threadEntry@thread@@SGIPAX@Z 
01:00006A94 ?create@thread@@SAXQAV1@@XPBUbyteCount@@I@Z 
01:00006B44 ?attach@thread@@SAXQAV1@@PBUthreadHandle@multiThread_native@@@Z  (Idle)
01:00006B58 ?attach@thread@@SAXQAV1@@PBUthreadHandle@multiThread_native@@PBUthreadId@4@@Z 
01:00006B74 ?priority@thread@@SGPBUthreadPriority@multiThread_native@@QAV1@@@Z 
01:00006BB4 ?priority@thread@@SGXQAV1@@PBUthreadPriority@multiThread_native@@@Z 
01:00006BF0 ?_suspend@thread@@SAXQAV1@@PAI@Z 
01:00006C28 ?_resume@thread@@SAXQAV1@@PAI@Z 
01:00006C60 ?isActive@thread@@SAXQAV1@@@Z 
01:00006C8C ?exitCode@thread@@SGIQAV1@@@Z 
01:00006CCC ?terminate@thread@@SAXQAV1@@I@Z 
01:00006D00 ?getTimes@thread@@SAXQAV1@@PAAAUgmtTimeValue@@111@Z 
01:00006DB8 ?assertKeepAlive@thread@@SAXPAUthreadEntryParam_struct@1@@Z 
01:00006E98 ?retractKeepAlive@thread@@SAXPAUthreadEntryParam_struct@1@@Z 
01:00007034 ?raise_@thread@@SAXPB_W@Z 
01:00007058 ?setThreadName@thread@@SAXIPB_W@Z 
01:000070E4 ?threadName@thread@@SGXQAV1@@PB_W@Z 
01:00007110 ?threadName@thread@@SGPB_WQAV1@@@Z 
01:00007128 ?_getThreadId@thread@@SAXQAV1@@AAUthreadID@multiThread_native@@@Z 
01:0000713C ?_getPriority@thread@@SAXQAV1@@AAUthreadPriority@multiThread_native@@@Z 
01:00007154 ?setPriority@thread@@SAXQAV1@@PBUthreadPriority@multiThread_native@@@Z 
01:00007168 ?_getExitCode@thread@@SAXQAV1@@PAI@Z 
01:00007180 ?_start@thread@@SAXXPAPAV1@@@Z  (Idle)
01:000071A8 ?_start@thread@@SAXXPBUbyteCount@@PAPAV1@@@Z  (Idle)
01:000071D4 ?_start_comMultiThread@thread@@SAXXPAPAV1@@@Z  (Idle)
01:000071FC ?_start_comMultiThread@thread@@SAXXPBUbyteCount@@PAPAV1@@@Z  (Idle)
01:00007228 ?_createSuspended@thread@@SAXXPAPAV1@@@Z  (Idle)
01:00007250 ?_createSuspended@thread@@SAXXPBUbyteCount@@PAPAV1@@@Z  (Idle)
01:0000727C ?_attach@thread@@SAXPBUthreadHandle@multiThread_native@@PAPAV1@@@Z  (Idle)
01:000072A4 ?_attach@thread@@SAXPBUthreadHandle@multiThread_native@@PBUthreadId@3@PAPAV1@@@Z  (Idle)
01:000072D0 ?_object_facts_initializer@thread@@SGXQAV1@@@Z 
01:000072F8 ?threadId@thread@@SGPBUthreadID@multiThread_native@@QAV1@@@Z 
01:00007304 ?codeForExit@thread@@SGXQAV1@@I@Z 
01:00007314 ?codeForExit@thread@@SGIQAV1@@@Z 
01:00007320 ?runMode@thread@@SGXQAV1@@PAUrunMode_struct@exe_api@@@Z 
01:00007330 ?runMode@thread@@SGPAUrunMode_struct@exe_api@@QAV1@@@Z 
01:0000733C ?new@syncObject@@SAXQAV1@@PBUsyncHandle@windowsAPI@@PAUboolean_struct@_builtIn@@@Z 
01:00007378 ?_wait@syncObject@@SAXQAV1@@PAI@Z 
01:00007394 ?_wait@syncObject@@SAXQAV1@@IPAI@Z 
01:00007494 $waitAny$syncObject_class$predicate$(i,o)$b$_c2  (Idle)
01:000074B0 $waitAll$syncObject_class$predicate$(i,o)$b$_c4  (Idle)
01:000074CC $waitAll$syncObject_class$predicate$(i,i,o)$b$_c5 
01:000074E8 $waitAny$syncObject_class$predicate$(i,i,o)$b$_c3 
01:00007504 ?close@syncObject@@SAXQAV1@@@Z 
01:00007524 ?finalize@syncObject@@SGXQAV1@@@Z 
01:00007550 $waitList$syncObject_implement$predicate$(i,i,i,o)$c$_m4 
01:000075E4 $copyHandles$syncObject_implement$predicate$(i,i)$c$_m5 
01:00007650 ?_getHandle@syncObject@@SAXQAV1@@AAUsyncHandle@windowsAPI@@@Z 
01:00007664 ?_new@syncObject@@SAXPBUsyncHandle@windowsAPI@@PAUboolean_struct@_builtIn@@PAPAV1@@@Z  (Idle)
01:00007690 ?handle@syncObject@@SGPBUsyncHandle@windowsAPI@@QAV1@@@Z 
01:0000769C ?create@semaphore@@SAXQAV1@@II@Z  (Idle)
01:000076C4 ?createNamed@semaphore@@SAXQAV1@@PB_WII@Z 
01:000076F8 ?openSemaphore@semaphore@@SAXQAV1@@PB_W@Z  (Idle)
01:00007728 ?_release@semaphore@@SAXQAV1@@IPAI@Z 
01:00007740 ?_create@semaphore@@SAXIIPAPAV1@@@Z  (Idle)
01:0000776C ?_createNamed@semaphore@@SAXPB_WIIPAPAV1@@@Z  (Idle)
01:0000779C ?_openSemaphore@semaphore@@SAXPB_WPAPAV1@@@Z  (Idle)
01:000077C4 ?create@mutex@@SAXQAV1@@PAUboolean_struct@_builtIn@@@Z  (Idle)
01:00007824 ?createNamed@mutex@@SAXQAV1@@PB_W@Z  (Idle)
01:000078D8 ?release@mutex@@SAXQAV1@@@Z 
01:000078F0 ?_create@mutex@@SAXPAUboolean_struct@_builtIn@@PAPAV1@@@Z  (Idle)
01:00007918 ?_createNamed@mutex@@SAXPB_WPAPAV1@@@Z  (Idle)
01:00007940 ?create@event@@SAXQAV1@@PAUboolean_struct@_builtIn@@1@Z  (Idle)
01:00007968 ?createNamed@event@@SAXQAV1@@PB_WPAUboolean_struct@_builtIn@@2@Z 
01:0000799C ?openEvent@event@@SAXQAV1@@PB_W@Z  (Idle)
01:000079CC ?createByHandle@event@@SAXQAV1@@PBUsyncHandle@windowsAPI@@@Z  (Idle)
01:000079E0 ?setSignaled@event@@SAXQAV1@@PAUboolean_struct@_builtIn@@@Z 
01:00007A14 ?pulse@event@@SAXQAV1@@@Z 
01:00007A2C ?_create@event@@SAXPAUboolean_struct@_builtIn@@0PAPAV1@@@Z  (Idle)
01:00007A58 ?_createNamed@event@@SAXPB_WPAUboolean_struct@_builtIn@@1PAPAV1@@@Z  (Idle)
01:00007A88 ?_openEvent@event@@SAXPB_WPAPAV1@@@Z  (Idle)
01:00007AB0 ?_createByHandle@event@@SAXPBUsyncHandle@windowsAPI@@PAPAV1@@@Z  (Idle)
01:00007AD8 ?new@criticalSection@@SAXQAV1@@@Z  (Idle)
01:00007B08 ?new@criticalSection@@SAXQAV1@@I@Z  (Idle)
01:00007B68 ?enter@criticalSection@@SAXQAV1@@@Z 
01:00007B80 ?tryEnter@criticalSection@@SAXQAV1@@@Z 
01:00007BA0 ?leave@criticalSection@@SAXQAV1@@@Z 
01:00007BB8 ?synchronize@criticalSection@@SAXQAV1@@X@Z 
01:00007C3C ?_synchronize@criticalSection@@SAXQAV1@@QAVrTypeLibrary@TypeLibraries@RunTime@VIP@@XPAPAX@Z 
01:00007CC8 ?_setSpinCount@criticalSection@@SAXQAV1@@IPAI@Z 
01:00007CE8 ?delete@criticalSection@@SAXQAV1@@@Z 
01:00007D08 ?finalize@criticalSection@@SGXQAV1@@@Z 
--- From 'Obj\gui.41D0084F.obj'
01:00007D6C ?_new@criticalSection@@SAXPAPAV1@@@Z 
--- From 'Obj\multithread.42945F62.obj'
01:00007D94 ?_new@criticalSection@@SAXIPAPAV1@@@Z  (Idle)
01:00007DBC ?create@consoleSync@@SAXQAV1@@@Z  (Idle)
01:00007E20 ?_create@consoleSync@@SAXPAPAVsyncObject@@@@Z  (Idle)
01:00007EBC waitableTimer?_initObject@@@QAGXQAV1@H@Z 
01:00007EE8 ?@create_object@waitableTimer@@SGQAV1@@XZ 
01:00007F04 waitableTimer?_InternalFinalizer@@@QAGXQAV1@@Z 
01:00007F8C thread?_initObject@@@QAGXQAV1@H@Z 
01:00007FCC ?@create_object@thread@@SGQAV1@@XZ 
01:00007FE8 thread?_InternalFinalizer@@@QAGXQAV1@@Z 
01:00008000 syncObject?_initObject@@@QAGXQAV1@H@Z 
01:00008014 ?@create_object@syncObject@@SGQAV1@@XZ 
01:00008030 syncObject?_InternalFinalizer@@@QAGXQAV1@@Z 
01:000080F0 semaphore?_initObject@@@QAGXQAV1@H@Z 
01:0000811C ?@create_object@semaphore@@SGQAV1@@XZ 
01:00008138 semaphore?_InternalFinalizer@@@QAGXQAV1@@Z 
01:000081C0 mutex?_initObject@@@QAGXQAV1@H@Z 
01:000081EC ?@create_object@mutex@@SGQAV1@@XZ 
01:00008208 mutex?_InternalFinalizer@@@QAGXQAV1@@Z 
01:00008290 event?_initObject@@@QAGXQAV1@H@Z 
01:000082BC ?@create_object@event@@SGQAV1@@XZ 
01:000082D8 event?_InternalFinalizer@@@QAGXQAV1@@Z 
01:000082F0 criticalSection?_initObject@@@QAGXQAV1@H@Z 
01:00008304 ?@create_object@criticalSection@@SGQAV1@@XZ 
01:00008320 criticalSection?_InternalFinalizer@@@QAGXQAV1@@Z 
01:000083D0 consoleSync?_initObject@@@QAGXQAV1@H@Z 
01:000083FC ?@create_object@consoleSync@@SGQAV1@@XZ 
01:00008418 consoleSync?_InternalFinalizer@@@QAGXQAV1@@Z 
--- From 'Obj\gui.41D0084F.obj'
01:00008430 ?_tryGetWinData@vpi_native@@SAXQAVwindow@@@PAPAUwin_data_struct@1@@Z 
--- From 'Obj\vpi_native.CBE05F9A.obj'
01:000084B4 ?_tryGetTaskWinData@vpi_native@@SAXPAPAUtaskwin_data_struct@1@@Z  (Idle)
--- From '..\..\..\_intermediate\sourceVS\vipInit\Win32\ReleasePE\VIPDll.obj'
01:00008560 _PROLOG_Goal 
--- From 'Obj\main.A22FE9BF.obj'
01:0000857C ?run@main@@SAXXZ 
--- From 'Obj\taskwindow.3D15576A.obj'
01:000085A0 ?new@taskWindow@@SAXQAV1@@@Z  (Idle)
01:000085BC ?onShow@taskWindow@@SAXQAV1@@QAVwindow@@@PBUlParam@@@Z 
01:000085F0 ?onDestroy@taskWindow@@SAXQAVwindow@@@@Z 
01:000085F8 ?onHelpAbout@taskWindow@@SAXQAVwindow@@@PBUmenuTag@@@Z 
01:00008614 ?onFileExit@taskWindow@@SAXQAV1@@QAVwindow@@@PBUmenuTag@@@Z 
01:00008620 ?onSizeChanged@taskWindow@@SAXQAV1@@QAVwindow@@@@Z 
01:00008648 ?onFileOpen@taskWindow@@SAXQAVwindow@@@PBUmenuTag@@@Z 
01:00008650 ?anonymous$o0$1$generatedinitialize/0np$taskWindow@1@SAXPAUanonymous$o0$1$generatedinitialize/0np$taskWindowc_struct@1@@Z 
01:00008680 ?anonymous$o0$2$generatedinitialize/0np$taskWindow@1@SAXPAUanonymous$o0$2$generatedinitialize/0np$taskWindowc_struct@1@QAVwindow@@@@Z 
01:000086B0 ?generatedInitialize@taskWindow@@SAXQAV1@@@Z 
01:00008860 ?_new@taskWindow@@SAXPAPAV1@@@Z 
01:00008888 ?_display@aboutDialog@@SAXQAVwindow@@@PAPAV1@@@Z 
01:000088B0 ?new@aboutDialog@@SAXQAV1@@QAVwindow@@@@Z  (Idle)
01:000088D0 ?generatedInitialize@aboutDialog@@SAXQAV1@@@Z 
01:00008D3C ?_new@aboutDialog@@SAXQAVwindow@@@PAPAV1@@@Z 
01:00009E7C taskWindow?_initObject@@@QAGXQAV1@H@Z 
01:00009EB0 ?@create_object@taskWindow@@SGQAV1@@XZ 
01:00009ECC taskWindow?_InternalFinalizer@@@QAGXQAV1@@Z 
01:0000B0F4 aboutDialog?_initObject@@@QAGXQAV1@H@Z 
01:0000B12C ?@create_object@aboutDialog@@SGQAV1@@XZ 
01:0000B148 aboutDialog?_InternalFinalizer@@@QAGXQAV1@@Z 
--- From 'Obj\toolbars.B027D95B.obj'
01:0000B160 ?anonymous$c0$1$create/1np$projectToolbar@1@SAXPAUanonymous$c0$1$create/1np$projectToolbarc_struct@1@PB_W@Z 
01:0000B17C ?create@projectToolbar@@SAXPBUwindowHandle@vpiDomains@@@Z 
--- From 'Obj\scilexer.AFB548FB.obj'
01:0000B230 ?_displayModal@incrementalFindDialog@sciLexerSupport@@SAXQAVsciLexer@@@PAPAV1@2@@Z 
--- From 'Obj\scilexersupport.3A50A325.obj'
01:0000B258 ?newModal@incrementalFindDialog@sciLexerSupport@@SAXQAV1@2@QAVsciLexer@@@@Z  (Idle)
01:0000B2A4 ?_onNative@incrementalFindDialog@sciLexerSupport@@SAXQAVwindow@@@IPBUwParam@@PBUlParam@@PAPAUnativeResponse_struct@3@@Z 
01:0000B3E8 ?incrementalSearch@incrementalFindDialog@sciLexerSupport@@SAXQAV1@2@H@Z  (Idle)
01:0000B5D0 ?onFindText_editModified@incrementalFindDialog@sciLexerSupport@@SAXQAV1@2@QAVeditControl@@@@Z 
01:0000B5E0 ?_onForward_btnClick@incrementalFindDialog@sciLexerSupport@@SAXQAV1@2@QAVbutton@@@PAPAUactionResponse_struct@5@@Z 
01:0000B610 ?generatedInitialize@incrementalFindDialog@sciLexerSupport@@SAXQAV1@2@@Z 
01:0000B8D8 ?_newModal@incrementalFindDialog@sciLexerSupport@@SAXQAVsciLexer@@@PAPAV1@2@@Z 
--- From 'Obj\scilexer.AFB548FB.obj'
01:0000B900 ?_displayModal@findAndReplaceControl@sciLexerSupport@@SAXQAVsciLexer@@@PAPAV1@2@@Z 
01:0000B97C ?_displayModeless@findAndReplaceControl@sciLexerSupport@@SAXQAVsciLexer@@@PAUboolean_struct@_builtIn@@PAPAV1@2@@Z 
--- From 'Obj\scilexersupport.3A50A325.obj'
01:0000BAD8 ?reactivateModeless@findAndReplaceControl@sciLexerSupport@@SAXQAV1@2@@Z 
01:0000BB14 ?anonymous$o0$1$new/3np$sciLexerSupport\findAndReplaceControl@1sciLexerSupport@@SAXPAUanonymous$o0$1$new/3np$sciLexerSupport\findAndReplaceControlc_struct@12@QAVwindow@@@@Z 
01:0000BBBC ?anonymous$o0$2$new/3np$sciLexerSupport\findAndReplaceControl@1sciLexerSupport@@SAXPAUanonymous$o0$2$new/3np$sciLexerSupport\findAndReplaceControlc_struct@12@@Z 
01:0000BC70 ?anonymous$o0$3$new/3np$sciLexerSupport\findAndReplaceControl@1sciLexerSupport@@SAXPAUanonymous$o0$3$new/3np$sciLexerSupport\findAndReplaceControlc_struct@12@@Z 
01:0000BCD8 ?anonymous$o0$4$new/3np$sciLexerSupport\findAndReplaceControl@1sciLexerSupport@@SAXPAUanonymous$o0$4$new/3np$sciLexerSupport\findAndReplaceControlc_struct@12@@Z 
01:0000BD30 ?new@findAndReplaceControl@sciLexerSupport@@SAXQAV1@2@QAVsciLexer@@@QAVdialog@@@QAVwindow@@@@Z  (Idle)
--- From 'Obj\scilexer.AFB548FB.obj'
01:0000C410 ?_tryGetModeless@findAndReplaceControl@sciLexerSupport@@SAXPAPAV1@2@@Z 
--- From 'Obj\scilexersupport.3A50A325.obj'
01:0000C434 ?anonymous$o0$1$setfromeditorstate/0np$sciLexerSupport\findAndReplaceControl@1sciLexerSupport@@SAXPAUanonymous$o0$1$setfromeditorstate/0np$sciLexerSupport\findAndReplaceControlc_struct@12@@Z 
01:0000C464 ?setFromEditorState@findAndReplaceControl@sciLexerSupport@@SAXQAV1@2@@Z 
01:0000C568 ?_tryGetEditor@findAndReplaceControl@sciLexerSupport@@SAXQAV1@2@PAPAVsciLexer@@@@Z 
01:0000C5D0 ?loadSettings@findAndReplaceControl@sciLexerSupport@@SAXPAU?$__packedList_struct@Uboolean@@@@@Z  (Idle)
01:0000C694 ?findTextFromHistory@findAndReplaceControl@sciLexerSupport@@SGPB_WXZ 
01:0000C6DC ?replaceTextFromHistory@findAndReplaceControl@sciLexerSupport@@SGPB_WXZ 
01:0000C724 ?updateHistory@findAndReplaceControl@sciLexerSupport@@SAXQAV1@2@@Z 
01:0000C800 ?updateSettings@findAndReplaceControl@sciLexerSupport@@SAXXZ  (Idle)
01:0000C8B0 ?updateHistoryIfFoundOrNonIncremental@findAndReplaceControl@sciLexerSupport@@SAXQAV1@2@PAUboolean_struct@_builtIn@@1@Z  (Idle)
01:0000C8D4 ?setScopeAndTarget@findAndReplaceControl@sciLexerSupport@@SAXQAVsciLexer@@@@Z 
01:0000C9B8 ?isMultiLineSelection@findAndReplaceControl@sciLexerSupport@@SAXQAVsciLexer@@@@Z 
01:0000CA28 ?_onDialogNative@findAndReplaceControl@sciLexerSupport@@SAXQAVwindow@@@IPBUwParam@@PBUlParam@@PAPAUnativeResponse_struct@3@@Z 
01:0000CB18 ?_onFrameNative@findAndReplaceControl@sciLexerSupport@@SAXQAV1@2@QAVwindow@@@IPBUwParam@@PBUlParam@@PAPAUnativeResponse_struct@5@@Z 
01:0000CFCC ?findFlags@findAndReplaceControl@sciLexerSupport@@SGHXZ 
01:0000D048 ?incrementalFindInit@findAndReplaceControl@sciLexerSupport@@SAXQAV1@2@@Z  (Idle)
01:0000D07C ?incrementalFindInitDelayed@findAndReplaceControl@sciLexerSupport@@SAXQAV1@2@@Z 
01:0000D15C ?_incrementalFindNextRange@findAndReplaceControl@sciLexerSupport@@SAXQAV1@2@QAVsciLexer@@@PAPAUboolean_struct@_builtIn@@@Z 
01:0000D190 ?_incrementalFindPreviousRange@findAndReplaceControl@sciLexerSupport@@SAXQAV1@2@QAVsciLexer@@@PAPAUboolean_struct@_builtIn@@@Z 
01:0000D1C4 ?_incrementalFindDialog@findAndReplaceControl@sciLexerSupport@@SAXQAV1@2@QAVsciLexer@@@PAUcharRange_struct@12@PAPAUboolean_struct@_builtIn@@@Z 
01:0000D280 ?_doIncrementalFind@findAndReplaceControl@sciLexerSupport@@SAXQAVsciLexer@@@PAUcharRange_struct@12@PB_WPAPAUboolean_struct@_builtIn@@@Z 
01:0000D30C ?_formatStatus@findAndReplaceControl@sciLexerSupport@@SAXQAVsciLexer@@@PAUboolean_struct@_builtIn@@PAPB_W@Z 
01:0000D3E8 ?_tryFind@findAndReplaceControl@sciLexerSupport@@SAXQAVsciLexer@@@PAUcharRange_struct@12@PB_WPAUboolean_struct@_builtIn@@PAH@Z 
01:0000D460 ?_initialFindRange@findAndReplaceControl@sciLexerSupport@@SAXQAVsciLexer@@@PAPAUcharRange_struct@12@@Z 
01:0000D4F4 ?setMatchSelection@findAndReplaceControl@sciLexerSupport@@SAXQAVsciLexer@@@HH@Z 
01:0000D5C4 ?restoreOneSelection@findAndReplaceControl@sciLexerSupport@@SAXQAVsciLexer@@@PAUboolean_struct@_builtIn@@@Z 
01:0000D64C ?_onNext_btnClick@findAndReplaceControl@sciLexerSupport@@SAXQAV1@2@QAVbutton@@@PAPAUactionResponse_struct@5@@Z 
01:0000D6CC ?_onPrev_btnClick@findAndReplaceControl@sciLexerSupport@@SAXQAV1@2@QAVbutton@@@PAPAUactionResponse_struct@5@@Z 
--- From 'Obj\scilexer.AFB548FB.obj'
01:0000D74C ?findNext@findAndReplaceControl@sciLexerSupport@@SAXXZ 
01:0000D84C ?findPrevious@findAndReplaceControl@sciLexerSupport@@SAXXZ 
--- From 'Obj\scilexersupport.3A50A325.obj'
01:0000D938 ?_tryGetControl_nextPrevious@findAndReplaceControl@sciLexerSupport@@SAXQAVsciLexer@@@PAPAV1@2@@Z 
01:0000D990 ?nextPrev@findAndReplaceControl@sciLexerSupport@@SAXQAVsciLexer@@@PAUcharRange_struct@12@@Z 
01:0000DA14 ?_nextRange@findAndReplaceControl@sciLexerSupport@@SAXQAVsciLexer@@@PAPAUcharRange_struct@12@@Z 
01:0000DA98 ?_previousRange@findAndReplaceControl@sciLexerSupport@@SAXQAVsciLexer@@@PAPAUcharRange_struct@12@@Z 
01:0000DB1C ?_onReplace_btnClick@findAndReplaceControl@sciLexerSupport@@SAXQAV1@2@QAVbutton@@@PAPAUactionResponse_struct@5@@Z 
01:0000DBAC ?doReplace@findAndReplaceControl@sciLexerSupport@@SAXQAV1@2@QAVsciLexer@@@@Z 
01:0000DC24 ?_onReplaceAll_btnClick@findAndReplaceControl@sciLexerSupport@@SAXQAV1@2@QAVbutton@@@PAPAUactionResponse_struct@5@@Z 
01:0000DE00 ?replaceAll@findAndReplaceControl@sciLexerSupport@@SAXQAVsciLexer@@@PAUcharRange_struct@12@PB_W2QAVvarM_unsigned@@@@Z 
01:0000DEB4 ?replaceTarget_re@findAndReplaceControl@sciLexerSupport@@SAXQAVsciLexer@@@PB_W@Z 
01:0000DEE4 ?onFindText_editModified@findAndReplaceControl@sciLexerSupport@@SAXQAV1@2@QAVeditControl@@@@Z 
01:0000DFB8 ?enableReplaceButtons@findAndReplaceControl@sciLexerSupport@@SAXQAV1@2@@Z 
01:0000E060 ?onIncremental_chkStateChanged@findAndReplaceControl@sciLexerSupport@@SAXQAV1@2@QAVcheckButton@@@PAUstate_struct@5@2@Z 
01:0000E110 ?_onFirst_btnClick@findAndReplaceControl@sciLexerSupport@@SAXQAV1@2@QAVbutton@@@PAPAUactionResponse_struct@5@@Z 
01:0000E128 ?onWholeWords_chkStateChanged@findAndReplaceControl@sciLexerSupport@@SAXQAV1@2@QAVcheckButton@@@PAUstate_struct@5@2@Z 
01:0000E160 ?onCaseSensitive_chkStateChanged@findAndReplaceControl@sciLexerSupport@@SAXQAV1@2@QAVcheckButton@@@PAUstate_struct@5@2@Z 
01:0000E198 ?onRegularExpression_chkStateChanged@findAndReplaceControl@sciLexerSupport@@SAXQAV1@2@QAVcheckButton@@@PAUstate_struct@5@2@Z 
01:0000E1D0 ?onInSelection_chkStateChanged@findAndReplaceControl@sciLexerSupport@@SAXQAV1@2@QAVcheckButton@@@PAUstate_struct@5@2@Z 
01:0000E214 ?onDestroy@findAndReplaceControl@sciLexerSupport@@SAXQAV1@2@QAVwindow@@@@Z 
01:0000E2E0 ?_getFirstOrEmpty@findAndReplaceControl@sciLexerSupport@@SAXPAU?$__packedList_struct@Ustring@@@@PAPB_W@Z 
01:0000E304 ?onParentSize@findAndReplaceControl@sciLexerSupport@@SAXQAV1@2@QAVwindow@@@@Z 
01:0000E3D0 ?switchLayout@findAndReplaceControl@sciLexerSupport@@SAXQAV1@2@PAUboolean_struct@_builtIn@@@Z 
01:0000E8C0 ?generatedInitialize@findAndReplaceControl@sciLexerSupport@@SAXQAV1@2@@Z 
01:0000FC30 ?_new@findAndReplaceControl@sciLexerSupport@@SAXQAVsciLexer@@@QAVdialog@@@QAVwindow@@@PAPAV1@2@@Z 
01:0000FC60 ?_anonymous$c0$1$trygeteditor/0nf$sciLexerSupport\findAndReplaceControl@1sciLexerSupport@@SAXPAUboolean_struct@_builtIn@@PAPAU?$__packedList_struct@Ustring@@@@@Z 
01:0000FC88 ?anonymous$c0$2$trygeteditor/0nf$sciLexerSupport\findAndReplaceControl@1sciLexerSupport@@SAXPAUboolean_struct@_builtIn@@PB_W@Z 
01:0000FD18 ?anonymous$c0$3$trygeteditor/0nf$sciLexerSupport\findAndReplaceControl@1sciLexerSupport@@SAXPAU?$__packedList_struct@Uboolean@@@@@Z 
01:0000FD2C ?_anonymous$c0$4$switchlayout/1np$sciLexerSupport\findAndReplaceControl@1sciLexerSupport@@SAXPAPAUrct_struct@vpiDomains@@@Z 
01:0000FD38 ?_object_facts_initializer@findAndReplaceControl@sciLexerSupport@@SGXQAV1@2@@Z 
01:0000FD58 ?readHistory@findAndReplaceControl@sciLexerSupport@@SGXX@Z  (Idle)
01:0000FD64 ?readHistory@findAndReplaceControl@sciLexerSupport@@SGXXZ  (Idle)
01:0000FD6C ?appendHistory@findAndReplaceControl@sciLexerSupport@@SGXX@Z  (Idle)
01:0000FD78 ?appendHistory@findAndReplaceControl@sciLexerSupport@@SGXXZ  (Idle)
01:0000FD80 ?writeSettings@findAndReplaceControl@sciLexerSupport@@SGXX@Z  (Idle)
01:0000FD8C ?writeSettings@findAndReplaceControl@sciLexerSupport@@SGXXZ  (Idle)
01:0000FD94 ?writeRect@findAndReplaceControl@sciLexerSupport@@SGXX@Z  (Idle)
01:0000FDA0 ?readRect@findAndReplaceControl@sciLexerSupport@@SGXX@Z  (Idle)
01:00010FF4 sciLexerSupport\incrementalFindDialog?_initObject@@@QAGXQAV1@H@Z 
01:0001102C ?@create_object@incrementalFindDialog@sciLexerSupport@@SGQAV1@2@XZ 
01:00011048 sciLexerSupport\incrementalFindDialog?_InternalFinalizer@@@QAGXQAV1@@Z 
01:00014350 sciLexerSupport\findAndReplaceControl?_initObject@@@QAGXQAV1@H@Z 
01:00014388 ?@create_object@findAndReplaceControl@sciLexerSupport@@SGQAV1@2@XZ 
01:000143A4 sciLexerSupport\findAndReplaceControl?_InternalFinalizer@@@QAGXQAV1@@Z 
--- From 'Obj\templateexpander.AAEA96F5.obj'
01:000143C0 ?new@templateExpander@@SAXQAV1@@PB_WX@Z  (Idle)
01:000143D8 ?expand_stream@templateExpander@@SAXQAV1@@QAVinputStream@@@QAVoutputStream@@@@Z 
01:00014414 ?_expand_stream@templateExpander@@SAXQAV1@@QAVinputStream@@@PAPB_W@Z 
01:00014450 ?expand@templateExpander@@SAXQAV1@@PB_WQAVoutputStream@@@@Z 
01:0001448C ?_expand@templateExpander@@SAXQAV1@@PB_WPAPB_W@Z 
01:000144C8 ?canMatch@templateExpander@@SAXQAV1@@PB_W@Z 
01:000144F8 ?anonymous$c0$1$expand_stream/3nf$templateExpander@1@SAXPAUanonymous$c0$1$expand_stream/3nf$templateExpanderc_struct@1@QAVoutputStream@@@@Z 
01:00014538 ?_expand_stream@templateExpander@@SAXQAVinputStream@@@PB_WXPAPB_W@Z 
01:00014580 ?anonymous$c0$1$expand/3nf$templateExpander@1@SAXPAUanonymous$c0$1$expand/3nf$templateExpanderc_struct@1@QAVoutputStream@@@@Z 
01:000145C0 ?_expand@templateExpander@@SAXPB_W0XPAPB_W@Z 
01:00014608 ?expand_stream@templateExpander@@SAXQAVinputStream@@@QAVoutputStream@@@PB_WX@Z 
--- From 'Obj\controls.EA481C3E.obj'
01:0001466C ?expand@templateExpander@@SAXPB_WQAVoutputStream@@@0X@Z 
--- From 'Obj\templateexpander.AAEA96F5.obj'
01:00014810 ?substitute@templateExpander@@SAXQAVinputStream@@@QAVoutputStream@@@PB_WX@Z  (Idle)
01:00014818 ?substitute_string@templateExpander@@SAXPB_WQAVoutputStream@@@0X@Z  (Idle)
01:00014820 ?_new@templateExpander@@SAXPB_WXPAPAV1@@@Z  (Idle)
01:00014854 templateExpander?_initObject@@@QAGXQAV1@H@Z 
01:00014868 ?@create_object@templateExpander@@SGQAV1@@XZ 
01:00014884 templateExpander?_InternalFinalizer@@@QAGXQAV1@@Z 
--- From 'Obj\commoncontrols_api.5468C80D.obj'
01:00014890 ?_compareToInt@commonControls_api@@SAXPAUcompareResult_struct@_builtIn@@PAH@Z  (Idle)
--- From 'Obj\vpi.BB6354DC.obj'
01:000148C0 ?_getString@vpiCommonDialogs@@SAXPB_W00PAPB_W@Z  (Idle)
01:0001490C ?_getString@vpiCommonDialogs@@SAXPBUwindowHandle@vpiDomains@@PB_W11PAPB_W@Z 
01:00014ACC ?_dlg_getstring_eh@vpiCommonDialogs@@SAXPBUwindowHandle@@PAUevent_struct@vpiDomains@@AAUlResult@@@Z 
01:00014B34 ?ok_getstring@vpiCommonDialogs@@SAXPBUwindowHandle@@@Z 
01:00014B80 ?init_getstring@vpiCommonDialogs@@SAXPBUwindowHandle@@@Z 
01:00014BB4 ?_ask@vpiCommonDialogs@@SAXPB_WPAU?$__packedList_struct@Ustring@@@@PAH@Z  (Idle)
01:00014C00 ?_ask@vpiCommonDialogs@@SAXPB_W0PAU?$__packedList_struct@Ustring@@@@PAH@Z  (Idle)
01:00014C4C ?_messageBox@vpiCommonDialogs@@SAXPB_W0HHHHPAH@Z  (Idle)
01:00014C88 ?_getFileName@vpiCommonDialogs@@SAXPB_WPAU?$__packedList_struct@Ustring@@@@0PAU?$__packedList_struct@Uinteger@@@@0PAPAU?$__packedList_struct@U2@@@PAHPAPB_W@Z  (Idle)
01:00014CC8 ?_ask@vpiCommonDialogs@@SAXPBUwindowHandle@vpiDomains@@PB_W1PAU?$__packedList_struct@Ustring@@@@PAH@Z 
01:00014D88 ?_dlg_ask_eh@vpiCommonDialogs@@SAXPBUwindowHandle@@PAUevent_struct@vpiDomains@@AAUlResult@@@Z 
01:00014E20 ?_getButtonsList@vpiCommonDialogs@@SAXPAU?$__packedList_struct@Ustring@@@@PB_WPAHPAPAU?$__packedList_struct@Uwindef@@@@@Z 
01:00015034 ?_getFirstButton@vpiCommonDialogs@@SAXPB_WPAPAUwindef_struct@vpiDomains@@@Z 
01:000150A0 ?_getSecondButton@vpiCommonDialogs@@SAXPB_WPAPAUwindef_struct@vpiDomains@@@Z 
01:0001510C ?_getLastButton@vpiCommonDialogs@@SAXPB_WPAPAUwindef_struct@vpiDomains@@@Z 
01:00015178 ?_getStaticText@vpiCommonDialogs@@SAXPB_WPAPAUwindef_struct@vpiDomains@@@Z 
01:000151E4 ?_getAskResult@vpiCommonDialogs@@SAXHPAH@Z 
01:00015224 ?_listSelect@vpiCommonDialogs@@SAXPB_WPAU?$__packedList_struct@Ustring@@@@HPAPB_WPAHAAUbooleanInt@@@Z  (Idle)
01:00015288 ?_listSelect@vpiCommonDialogs@@SAXPBUwindowHandle@vpiDomains@@PB_WPAU?$__packedList_struct@Ustring@@@@HPAPB_WPAHAAUbooleanInt@@@Z 
01:000152A4 ?_listSelect@vpiCommonDialogs@@SAXPBUwindowHandle@vpiDomains@@PB_WPAU?$__packedList_struct@Ustring@@@@HPAPB_WPAHPBUbooleanInt@@AAU5@@Z 
01:000152C0 ?_listSelect@vpiCommonDialogs@@SAXPBUwindowHandle@vpiDomains@@PB_WPAU?$__packedList_struct@Ustring@@@@HPAPB_WPAHPBUbooleanInt@@6AAU5@@Z 
01:00015494 ?_dlg_list_select_eh@vpiCommonDialogs@@SAXPBUwindowHandle@@PAUevent_struct@vpiDomains@@AAUlResult@@@Z 
01:00015594 ?resizeControls@vpiCommonDialogs@@SAXPBUwindowHandle@@HH@Z 
01:00015708 ?storeResult_listSelect@vpiCommonDialogs@@SAXPBUwindowHandle@@@Z 
01:00015784 ?storeListSelectResult@vpiCommonDialogs@@SAXPBUwindowHandle@@PAU?$__packedList_struct@Ustring@@@@PAU?$__packedList_struct@Uinteger@@@@@Z 
01:000157E4 ?storeNewValue@vpiCommonDialogs@@SAXPBUwindowHandle@@PB_W@Z 
01:0001581C ?_getComboFlags@vpiCommonDialogs@@SAXPBUbooleanInt@@AAUwsFlag@@@Z 
01:00015840 ?init_listSelect@vpiCommonDialogs@@SAXPBUwindowHandle@@@Z 
01:00015898 ?note@vpiCommonDialogs@@SAXPB_W@Z  (Idle)
--- From 'Obj\controlsupport.CD1DE148.obj'
01:000158B0 ?error@vpiCommonDialogs@@SAXPB_W@Z 
--- From 'Obj\vpi.BB6354DC.obj'
01:000158C8 ?_getFileName@vpiCommonDialogs@@SAXPB_WPAU?$__packedList_struct@Ustring@@@@0PAU?$__packedList_struct@Uinteger@@@@0PAPAU?$__packedList_struct@U2@@@PAPB_W@Z  (Idle)
01:000158F8 ?_getFont@vpiCommonDialogs@@SAXPBUfont@vpiDomains@@AAU23@@Z  (Idle)
01:0001591C ?_getColor@vpiCommonDialogs@@SAXPBUcolor@vpiDomains@@AAU23@@Z  (Idle)
01:00015948 ?setCustomColors@vpiCommonDialogs@@SAXQAE@Z  (Idle)
01:0001595C ?_getCustomColors@vpiCommonDialogs@@SAXQAPAE@Z  (Idle)
01:00015984 ?_askBox@vpiCommonDialogs@@SAXPB_W0HHPAH@Z  (Idle)
--- From 'Obj\gui.41D0084F.obj'
01:000159D4 ?init@vpi@@SAXXZ 
01:000159E8 ?init@vpi@@SAXPAU?$__packedList_struct@Uwsflag@@@@XPAUmenu_struct@vpiDomains@@PB_W3@Z 
--- From 'Obj\vpi.BB6354DC.obj'
01:00015A10 ?setExceptionHandlers@vpi@@SAXXZ 
01:00015A38 ?_winCreateResDialog@vpi@@SAXPBUwindowHandle@vpiDomains@@PBUwintype@3@PBUresid@3@XPBUlParam@gui_native@@AAU23@@Z  (Idle)
01:00015A70 ?_getResStr@vpi@@SAXPBUresid@vpiDomains@@PAPB_W@Z  (Idle)
01:00015A9C ?_winGetResDialog@vpi@@SAXPBUresid@vpiDomains@@PAPAU?$__packedList_struct@Uwindef@3@@@@Z  (Idle)
01:00015AC8 ?_checkExistDialog@vpi@@SAXPBUresid@vpiDomains@@AAUbooleanInt@@@Z  (Idle)
01:00015AF4 ?_checkExistString@vpi@@SAXPBUresid@vpiDomains@@AAUbooleanInt@@@Z  (Idle)
01:00015B20 ?_menuGetRes@vpi@@SAXPBUresid@vpiDomains@@PAPAUmenu_struct@3@@Z  (Idle)
01:00015B4C ?_pictGetFromRes@vpi@@SAXPBUresid@vpiDomains@@AAUpicture@3@@Z  (Idle)
--- From 'Obj\vpitoolbar.EDA90FC1.obj'
01:00015B78 ?_pictLoad@vpi@@SAXPAUbitmapId_struct@vpiDomains@@IIIAAUpicture@3@@Z 
--- From 'Obj\gui.41D0084F.obj'
01:00015CAC ?pictDraw@vpi@@SAXPBUwindowHandle@vpiDomains@@PBUpicture@3@PAUpnt_struct@3@PBUrop@3@@Z 
01:00015CC8 ?pictDraw@vpi@@SAXPBUwindowHandle@vpiDomains@@PBUpicture@3@PAUrct_struct@3@2PBUrop@3@@Z 
01:00015CE8 ?cursorSet@vpi@@SAXPBUwindowHandle@vpiDomains@@PBUcursor@3@@Z 
01:00015D00 ?caretSet@vpi@@SAXPBUwindowHandle@vpiDomains@@PBUpositive@@1@Z 
--- From 'Obj\vpi.BB6354DC.obj'
01:00015D1C ?cursorSetArrow@vpi@@SAXXZ  (Idle)
01:00015D38 ?cursorSetWait@vpi@@SAXXZ  (Idle)
--- From 'Obj\gui.41D0084F.obj'
01:00015D54 ?winValidateRect@vpi@@SAXPBUwindowHandle@vpiDomains@@PAUrct_struct@3@@Z 
--- From 'Obj\controls.EA481C3E.obj'
01:00015D94 ?winInvalidate@vpi@@SAXPBUwindowHandle@vpiDomains@@@Z 
--- From 'Obj\gui.41D0084F.obj'
01:00015DB0 ?winInvalidate@vpi@@SAXPBUwindowHandle@vpiDomains@@PAUrct_struct@3@@Z 
--- From 'Obj\controlsupport.CD1DE148.obj'
01:00015DC4 ?_winGetFocus@vpi@@SAXAAUwindowHandle@vpiDomains@@@Z 
--- From 'Obj\messagecontrol.383256BA.obj'
01:00015DF0 ?_winGetClientRect@vpi@@SAXPBUwindowHandle@vpiDomains@@PAPAUrct_struct@3@@Z 
--- From 'Obj\gui.41D0084F.obj'
01:00015DF8 ?_winSendEvent@vpi@@SAXPBUwindowHandle@vpiDomains@@PAUevent_struct@3@AAUlResult@gui_native@@@Z 
01:00015E18 ?drawIcon@vpi@@SAXPBUwindowHandle@vpiDomains@@HHPBUresid@3@@Z 
01:00015E40 ?drawText@vpi@@SAXPBUwindowHandle@vpiDomains@@HHPB_W@Z 
01:00015E5C ?drawTextInRect@vpi@@SAXPBUwindowHandle@vpiDomains@@PAUrct_struct@3@PB_WPAU?$__packedList_struct@Uinteger@@@@@Z 
--- From 'Obj\vpi.BB6354DC.obj'
01:00015E78 ?_mfLoad@vpi@@SAXPB_WAAUmetafile@vpiDomains@@@Z  (Idle)
--- From 'Obj\gui.41D0084F.obj'
01:00015E9C ?winGetTextExtent@vpi@@SAXPBUwindowHandle@vpiDomains@@PB_WAAUpositive@@2@Z 
--- From 'Obj\vpi.BB6354DC.obj'
01:00015EB8 ?runWithProcessEventsBlocked@vpi@@SAXXPAUboolean_struct@_builtIn@@@Z  (Idle)
01:00016028 ?_processEvents@vpi@@SAXAAUbooleanInt@@@Z  (Idle)
01:00016048 ?_processEvents@vpi@@SAXPBUbooleanInt@@AAU2@@Z  (Idle)
01:00016064 ?_processEvents@vpi@@SAXPBUbooleanInt@@0AAU2@@Z  (Idle)
01:0001606C ?_processEvents2@vpi@@SAXPBUbooleanInt@@0AAU2@@Z 
--- From 'Obj\gui.41D0084F.obj'
01:00016118 ?_winGetAttrVal@vpi@@SAXPBUwindowHandle@vpiDomains@@HPAH@Z 
--- From 'Obj\vpitoolbar.EDA90FC1.obj'
01:00016130 ?_winGetAttrNativeVal@vpi@@SAXPBUwindowHandle@vpiDomains@@HAAUintegerNative@@@Z 
--- From 'Obj\messagecontrol.383256BA.obj'
01:00016148 ?_fontCreateByName@vpi@@SAXPB_WPBUpositive@@AAUfont@vpiDomains@@@Z 
--- From 'Obj\vpi.BB6354DC.obj'
01:000162CC ?dumpErrorHandler@vpi@@SAXPBUwindowHandle@@PBUtraceId@@@Z 
--- From 'Obj\gui.41D0084F.obj'
01:000162F4 ?setErrorHandler@vpi@@SAXX@Z 
--- From 'Obj\vpi.BB6354DC.obj'
01:00016304 ?safeErrorHandler@vpi@@SAXPBUwindowHandle@@PBUtraceId@@@Z 
01:000163C4 _vpiExceptionRaiser 
01:000164A0 ?_exceptionFromErrorCode@vpi@@SAXIPAPAUexception_struct@core@@@Z 
01:000164D8 ?_tryGetVpiError@vpi@@SAXIPAPAUexception_struct@core@@@Z 
01:00016F38 ?trySetFocusOnFirstControl@vpi@@SAXPBUwindowHandle@vpiDomains@@@Z  (Idle)
--- From 'Obj\controls.EA481C3E.obj'
01:00016F98 ?_createCustomControl@vpi@@SAXXPAUrct_struct@vpiDomains@@PBUunitType@3@PB_WPBUwindowHandle@3@PAU?$__packedList_struct@Uwsflag@@@@PBUctlid@3@AAU63@@Z 
--- From 'Obj\controlsupport.CD1DE148.obj'
01:00016FB4 ?_createCustomControl@vpi@@SAXXPAUrct_struct@vpiDomains@@PBUunitType@3@PB_WPBUwindowHandle@3@PAU?$__packedList_struct@Uwsflag@@@@PBUctlid@3@PBUbooleanInt@@AAU63@@Z 
--- From 'Obj\vpi.BB6354DC.obj'
01:0001707C ?_anonymous$c0$1$registercustomctrl/0np$vpi@1@SAXPBUwindowHandle@@PAUevent_struct@vpiDomains@@AAUlResult@@@Z 
01:00017088 ?registerCustomCtrl@vpi@@SAXXZ 
--- From 'Obj\gui.41D0084F.obj'
01:000170E0 ?winCenter@vpi@@SAXPBUwindowHandle@vpiDomains@@@Z 
01:0001711C ?winCenter@vpi@@SAXPBUwindowHandle@vpiDomains@@PAUrct_struct@3@@Z 
--- From 'Obj\vpi.BB6354DC.obj'
01:00017144 ?winGetMonitorRects@vpi@@SAXPBUwindowHandle@vpiDomains@@PAPAUrct_struct@3@1@Z  (Idle)
01:000171AC ?rctCenter@vpi@@SAXPAUrct_struct@vpiDomains@@PAPAU23@@Z 
01:00017200 ?rctCenter@vpi@@SAXPBUwindowHandle@vpiDomains@@PAUrct_struct@3@PAPAU43@@Z  (Idle)
01:00017228 ?rctCenter_inner@vpi@@SAXPAUrct_struct@vpiDomains@@0PAPAU23@@Z 
--- From 'Obj\gui.41D0084F.obj'
01:000172E8 ?winMapPnt@vpi@@SAXPAUpnt_struct@vpiDomains@@PBUwindowHandle@3@1PAPAU23@@Z 
--- From 'Obj\vpi.BB6354DC.obj'
01:0001734C ?_winCtlGetText@vpi@@SAXPBUwindowHandle@vpiDomains@@PBUctlid@3@PAPB_W@Z  (Idle)
01:00017374 ?winCtlSelectText@vpi@@SAXPBUwindowHandle@vpiDomains@@PBUctlid@3@@Z  (Idle)
01:000173BC ?winCtlIsChecked@vpi@@SAXPBUwindowHandle@vpiDomains@@PBUctlid@3@@Z  (Idle)
01:000173E8 ?winCtlSetFocus@vpi@@SAXPBUwindowHandle@vpiDomains@@PBUctlid@3@@Z  (Idle)
01:00017408 ?winCtlSetState@vpi@@SAXPBUwindowHandle@vpiDomains@@PBUctlid@3@PAU?$__packedList_struct@Uwsflag@@@@@Z  (Idle)
--- From 'Obj\gui.41D0084F.obj'
01:0001742C ?mdiWinGetRestoredRect@vpi@@SAXPBUwindowHandle@vpiDomains@@PAPAUrct_struct@3@@Z 
--- From 'Obj\vpi.BB6354DC.obj'
01:000174AC ?dialogWinSetRestoredRect@vpi@@SAXPBUwindowHandle@vpiDomains@@PAUrct_struct@3@@Z  (Idle)
01:00017528 ?dialogWinGetRestoredRect@vpi@@SAXPBUwindowHandle@vpiDomains@@PAPAUrct_struct@3@@Z  (Idle)
01:00017570 ?_test_taskwindow@vpi@@SAXPBUwindowHandle@@AAUbooleanInt@@@Z 
01:0001759C ?winCtlRadioGet@vpi@@SAXPBUwindowHandle@vpiDomains@@PAU?$__packedList_struct@Uinteger@@@@AAUctlid@3@@Z  (Idle)
01:000175E4 ?decomposeRGB@vpi@@SAXPBUcolor@vpiDomains@@AAUinteger16@@11@Z  (Idle)
01:00017678 ?winCtlGetNextTabStop@vpi@@SAXPBUwindowHandle@vpiDomains@@0AAU23@@Z  (Idle)
01:000176A0 ?winCtlGetPrevTabStop@vpi@@SAXPBUwindowHandle@vpiDomains@@0AAU23@@Z  (Idle)
01:000176C8 ?_menuPopUp@vpi@@SAXPBUwindowHandle@vpiDomains@@PAUmenu_struct@3@PAUpnt_struct@3@PBUmenuAlign@3@PAPAUboolean_struct@_builtIn@@@Z  (Idle)
--- From 'Obj\vpitoolbar.EDA90FC1.obj'
01:00017704 ?rectPntInside@vpi@@SAXPAUrct_struct@vpiDomains@@PAUpnt_struct@3@@Z 
--- From 'Obj\vpi.BB6354DC.obj'
01:00017764 ?_winGetData_integer@vpi@@SAXPBUwindowHandle@vpiDomains@@PAH@Z  (Idle)
01:00017780 ?_getParentWindow@vpi@@SAXAAUwindowHandle@vpiDomains@@@Z 
01:000177A4 ?_getParentWindowForFocus@vpi@@SAXPBUwindowHandle@@AAU2@@Z 
01:000177FC ?_checkOrGetTopLevel@vpi@@SAXPBUwindowHandle@@PBUwintype@@AAU2@@Z 
01:00017890 ?isTopLevelType@vpi@@SAXPBUwintype@@@Z 
01:000178B8 ?isNonVPIParent@vpi@@SAXPBUwintype@@@Z 
01:000178D4 ?_rectIntersect_dt@vpi@@SAXPAUrct_struct@vpiDomains@@0PAPAU23@@Z  (Idle)
--- From 'Obj\vpitoolbar.EDA90FC1.obj'
01:00017930 ?pictureGetSize@vpiToolbar@@SAXPAUbitmapId_struct@vpiDomains@@AAUpositive@@1@Z  (Idle)
01:00017968 ?toolbar_set_flagMouseDown@vpiToolbar@@SAXPBUwindowHandle@@@Z  (Idle)
01:000179B4 ?toolbar_release_flagMouseDown@vpiToolbar@@SAXXZ  (Idle)
01:000179E8 ?tooltip_firstTimeTimerHandler@vpiToolbar@@SAXPBUwindowHandle@@@Z  (Idle)
01:00017A10 ?tooltip_ShowTimerHandler@vpiToolbar@@SAXPBUwindowHandle@@@Z  (Idle)
01:00017DA8 ?tooltip_HideTimerHandler@vpiToolbar@@SAXPBUwindowHandle@@H@Z  (Idle)
01:00017EA8 ?_tooltip_handler@vpiToolbar@@SAXPBUwindowHandle@@PAUevent_struct@vpiDomains@@AAUlResult@@@Z 
01:00017FFC ?tooltip_create@vpiToolbar@@SAXPBUwindowHandle@@@Z  (Idle)
01:000180D0 ?tooltip_register@vpiToolbar@@SAXPBUwindowHandle@@PAUrct_struct@vpiDomains@@PB_W@Z  (Idle)
01:00018200 ?tooltip_clean_up@vpiToolbar@@SAXPBUwindowHandle@@@Z  (Idle)
01:000183A4 ?tooltip_validate_rect@vpiToolbar@@SAXPAUrct_struct@vpiDomains@@0PAPAU23@@Z 
01:00018454 ?_tooltip_validate@vpiToolbar@@SAXHHPAH@Z 
01:0001847C ?tooltip_set_usage@vpiToolbar@@SAXXZ  (Idle)
01:000184D8 ?tooltip_stop_usage@vpiToolbar@@SAXXZ  (Idle)
01:0001851C ?tooltip_check_first_time@vpiToolbar@@SAXXZ  (Idle)
01:00018544 ?tooltip_check_first_time@vpiToolbar@@SAXPBUwindowHandle@@@Z  (Idle)
01:000185C8 ?tooltip_check_mousemove@vpiToolbar@@SAXPBUwindowHandle@@PAUpnt_struct@vpiDomains@@@Z  (Idle)
01:00018690 ?tooltip_check_mousetimer@vpiToolbar@@SAXPBUwindowHandle@@@Z  (Idle)
01:00018850 ?tooltip_mouse_in_TB@vpiToolbar@@SAXPBUwindowHandle@@PAPAUpnt_struct@vpiDomains@@@Z  (Idle)
01:0001892C ?hide_tooltip@vpiToolbar@@SAXPBUwindowHandle@@@Z  (Idle)
01:00018A20 ?tooltip_hide@vpiToolbar@@SAXXZ  (Idle)
01:00018B08 ?tooltip_change_if_not_current@vpiToolbar@@SAXPBUwindowHandle@@@Z  (Idle)
01:00018BBC ?tooltip_change_if_not_current@vpiToolbar@@SAXPBUwindowHandle@@PAUrct_struct@vpiDomains@@PB_WPAUpnt_struct@4@@Z 
01:00018CD0 ?tooltip_set_first_time_timer@vpiToolbar@@SAXPBUwindowHandle@@@Z 
01:00018D28 ?tooltip_kill_first_time_timer@vpiToolbar@@SAXXZ 
01:00018D88 ?tooltip_set_show@vpiToolbar@@SAXPBUwindowHandle@@@Z 
01:00018DE4 ?tooltip_try_show@vpiToolbar@@SAXPBUwindowHandle@@PBUbooleanInt@@@Z  (Idle)
01:00018F20 ?safeTimerKill@vpiToolbar@@SAXPBUtimerId@@@Z 
01:00018F6C ?tooltip_kill_show_timer@vpiToolbar@@SAXXZ 
01:00018FCC ?tooltip_set_hide_timer@vpiToolbar@@SAXPBUwindowHandle@@@Z 
01:0001902C ?tooltip_kill_hide_timer@vpiToolbar@@SAXXZ 
01:0001908C ?tooltip_get_color@vpiToolbar@@SAXAAU2@0@Z  (Idle)
01:000190CC ?_tooltip_child_handler@vpiToolbar@@SAXPBUwindowHandle@@PAUevent_struct@vpiDomains@@AAUlResult@@@Z 
01:00019250 ?get_flag@vpiToolbar@@SAXPBUbooleanInt@@AAUwsflag@@@Z  (Idle)
01:00019280 ?buttonColors@vpiToolbar@@SAXAAUcolor@@00@Z  (Idle)
01:000192B8 ?getAddOrnamentationByStyle@vpiToolbar@@SAXPAUstyle_struct@1@AAUbooleanInt@@@Z  (Idle)
01:00019310 ?split_control_text@vpiToolbar@@SAXPB_WPAPB_W1@Z  (Idle)
01:00019388 ?set_ctrl_to_tb_win1@vpiToolbar@@SAXPBUwindowHandle@@@Z  (Idle)
01:00019414 ?multiple_rows@vpiToolbar@@SAXPAUstyle_struct@1@@Z  (Idle)
01:0001944C ?horizontal@vpiToolbar@@SAXPAUstyle_struct@1@@Z  (Idle)
01:000194DC ?toolbar_retract_controls@vpiToolbar@@SAXPBUwindowHandle@@@Z  (Idle)
01:000195A8 ?set_new_VPITBarAttr@vpiToolbar@@SAXPAUstyle_struct@1@HPBUwindowHandle@@@Z  (Idle)
01:000196FC ?remove_VPITBarAttr@vpiToolbar@@SAXPAUstyle_struct@1@PBUwindowHandle@@@Z  (Idle)
01:000198CC ?give_flags_and_title@vpiToolbar@@SAXPAUstyle_struct@1@PAPAU?$__packedList_struct@Uwsflag@@@@PAPB_W@Z  (Idle)
01:00019918 ?resendToParentWindow@vpiToolbar@@SAXPBUwindowHandle@@PBUmenuTag@@PAUvalue_struct@1@@Z 
01:00019CE0 ?set_ctrl_to_tb_win@vpiToolbar@@SAXPBUwindowHandle@@0@Z  (Idle)
01:0001A460 ?create_listcontrols@vpiToolbar@@SAXPBUwindowHandle@@@Z  (Idle)
01:0001A5AC ?get_inits_for_twin@vpiToolbar@@SAXPBUwindowHandle@@PAHPAHPAHPAH@Z  (Idle)
01:0001A62C ?get_inits@vpiToolbar@@SAXPBUwindowHandle@@PAUstyle_struct@1@HHPAHPAH@Z  (Idle)
01:0001A85C ?_createToolbarFont@vpiToolbar@@SAXPBUfontFamily@@PAU?$__packedList_struct@Ufs@@@@PBUpositive@@AAUfont@@@Z  (Idle)
01:0001A8D8 ?getLeftOffset@vpiToolbar@@SAXPAUstyle_struct@1@PAH@Z  (Idle)
01:0001A904 ?getTopOffset@vpiToolbar@@SAXPAUstyle_struct@1@PAH@Z  (Idle)
01:0001A994 ?getBottomOffset@vpiToolbar@@SAXPAUstyle_struct@1@PAH@Z  (Idle)
01:0001AA24 ?rightBottom@vpiToolbar@@SAXPBUwindowHandle@@PAUstyle_struct@1@HHHPAHPAH@Z  (Idle)
01:0001AE44 ?build_control_database8@vpiToolbar@@SAXPBUwindowHandle@@PAUstyle_struct@1@PAU?$__packedList_struct@Ucontrol@@@@HHHPAHPAH@Z  (Idle)
01:0001BEE0 ?build_control_database@vpiToolbar@@SAXPBUwindowHandle@@PAUstyle_struct@1@PAU?$__packedList_struct@Ucontrol@@@@PAHPAH@Z  (Idle)
01:0001BF3C ?getControlSize@vpiToolbar@@SAXPBUwindowHandle@@PAUcontrol_struct@1@PAHPAH@Z  (Idle)
01:0001C0BC ?getMaxControlSize6@vpiToolbar@@SAXPBUwindowHandle@@PAU?$__packedList_struct@Ucontrol@@@@HHPAHPAH@Z  (Idle)
01:0001C144 ?getMaxControlSize@vpiToolbar@@SAXPBUwindowHandle@@PAU?$__packedList_struct@Ucontrol@@@@PAHPAH@Z  (Idle)
01:0001C198 ?drawButtonFrame@vpiToolbar@@SAXPBUwindowHandle@@PAUrct_struct@vpiDomains@@PBUcolor@@2@Z  (Idle)
01:0001C350 ?drawButtonFrame_raised@vpiToolbar@@SAXPBUwindowHandle@@PAUrct_struct@vpiDomains@@@Z  (Idle)
01:0001C388 ?drawButtonFrame_sunken@vpiToolbar@@SAXPBUwindowHandle@@PAUrct_struct@vpiDomains@@@Z  (Idle)
01:0001C3C0 ?drawButtonFrame_none@vpiToolbar@@SAXPBUwindowHandle@@PAUrct_struct@vpiDomains@@@Z  (Idle)
01:0001C3F8 ?toolbar_if_draw_frame@vpiToolbar@@SAXPBUwindowHandle@@PAUrct_struct@vpiDomains@@PBUbooleanInt@@2@Z  (Idle)
01:0001C46C ?imagePosition@vpiToolbar@@SAXPAUrct_struct@vpiDomains@@PBUpicture@@HPAPAUpnt_struct@3@@Z  (Idle)
01:0001C500 ?drawImage_released@vpiToolbar@@SAXPBUwindowHandle@@PAUbitmapId_struct@vpiDomains@@PAUrct_struct@4@@Z  (Idle)
01:0001C550 ?drawImage_pressed@vpiToolbar@@SAXPBUwindowHandle@@PAUbitmapId_struct@vpiDomains@@PAUrct_struct@4@@Z  (Idle)
01:0001C680 ?drawImage_monocolor@vpiToolbar@@SAXPBUwindowHandle@@PBUpicture@@PAUrct_struct@vpiDomains@@HPBU6@@Z  (Idle)
01:0001C794 ?drawImage_gray@vpiToolbar@@SAXPBUwindowHandle@@PAUbitmapId_struct@vpiDomains@@PAUrct_struct@4@@Z  (Idle)
01:0001C80C ?drawButton@vpiToolbar@@SAXPBUwindowHandle@@PAUrct_struct@vpiDomains@@PAUbitmapId_struct@4@PBUbooleanInt@@3@Z  (Idle)
01:0001C8AC ?drawTextControl@vpiToolbar@@SAXPBUwindowHandle@@HHHH@Z  (Idle)
01:0001CAC0 ?show_text@vpiToolbar@@SAXPBUwindowHandle@@PAUrct_struct@vpiDomains@@PBUfs@@PBUfontFamily@@PBUpositive@@PBUcolor@@PB_W@Z  (Idle)
01:0001CBE8 ?show_toolbar_controls@vpiToolbar@@SAXPBUwindowHandle@@@Z  (Idle)
01:0001CE3C ?set_button_released@vpiToolbar@@SAXPBUwindowHandle@@@Z  (Idle)
01:0001CEC8 ?eraseFrame@vpiToolbar@@SAXPBUwindowHandle@@PAUrct_struct@vpiDomains@@PBUbooleanInt@@@Z  (Idle)
01:0001CEE0 ?test_not_leave_ctrl@vpiToolbar@@SAXPBUwindowHandle@@PBUmenuTag@@PAUpnt_struct@vpiDomains@@@Z 
01:0001D0E4 ?test_enter_ctrl@vpiToolbar@@SAXPBUwindowHandle@@PAUpnt_struct@vpiDomains@@PBUbooleanInt@@@Z  (Idle)
01:0001D210 ?restore_pressed_button@vpiToolbar@@SAXPBUwindowHandle@@PBUmenuTag@@PBUbooleanInt@@2@Z 
01:0001D3D8 ?show_status_text@vpiToolbar@@SAXPBUwindowHandle@@PB_W@Z 
01:0001D5C4 ?restore_initial_status_text@vpiToolbar@@SAXPBUwindowHandle@@@Z 
01:0001D69C ?_get_win_with_context@vpiToolbar@@SAXPBUwindowHandle@@AAU2@@Z 
01:0001D7D4 ?set_flagMouseDown@vpiToolbar@@SAXPBUwindowHandle@@PAUcontrol_style_struct@1@H@Z  (Idle)
01:0001D7F4 ?isTopToolbarExists@vpiToolbar@@SAXPBUwindowHandle@@@Z  (Idle)
01:0001D884 ?drawOrnamentation@vpiToolbar@@SAXPBUwindowHandle@@PAUstyle_struct@1@HH@Z  (Idle)
01:0001DC50 ?tb_rect@vpiToolbar@@SAXPBUwindowHandle@@PAUstyle_struct@1@HHPAPAUrct_struct@vpiDomains@@@Z  (Idle)
01:0001DF8C ?_tb_handler@vpiToolbar@@SAXPBUwindowHandle@@PAUevent_struct@vpiDomains@@AAUlResult@@@Z 
01:0001F420 ?_is_call_user_func@vpiToolbar@@SAXHPAUcontrol_style_struct@1@PAPAUboolean_struct@_builtIn@@@Z 
01:0001F458 ?call_user_func@vpiToolbar@@SAXPBUwindowHandle@@PBUmenuTag@@PAUboolean_struct@_builtIn@@@Z 
01:0001F6B0 ?_no_handler@vpiToolbar@@SAXPBUwindowHandle@@PAUevent_struct@vpiDomains@@AAUlResult@@@Z 
01:0001F6BC ?_create@vpiToolbar@@SAXPAUstyle_struct@1@PBUwindowHandle@@PAU?$__packedList_struct@Ucontrol@@@@AAU4@@Z 
01:0001F6DC ?_create@vpiToolbar@@SAXPAUstyle_struct@1@PBUwindowHandle@@PAU?$__packedList_struct@Ucontrol@@@@XAAU4@@Z 
01:0001F710 ?_create@vpiToolbar@@SAXPAUstyle_struct@1@PBUwindowHandle@@PAU?$__packedList_struct@Ucontrol@@@@XPBUbooleanInt@@AAU4@@Z 
01:0001F8FC ?getPressedButton@vpiToolbar@@SAXPBUwindowHandle@@HAAUmenuTag@@@Z  (Idle)
01:0001F994 ?setPressedButton@vpiToolbar@@SAXPBUwindowHandle@@HPBUmenuTag@@@Z 
01:0001FA8C ?mesRedirect@vpiToolbar@@SAXPBUwindowHandle@@0@Z  (Idle)
01:0001FC3C ?noAction@vpiToolbar@@SAXPBUwindowHandle@@PBUmenuTag@@PAUvalue_struct@1@@Z  (Idle)
01:0001FC44 ?reload@vpiToolbar@@SAXPBUwindowHandle@@PAU?$__packedList_struct@Ucontrol@@@@@Z  (Idle)
01:0001FEB4 ?resize@vpiToolbar@@SAXPBUwindowHandle@@@Z 
01:0001FF5C ?remove@vpiToolbar@@SAXPBUwindowHandle@@@Z  (Idle)
01:00020070 ?_setTextValue@vpiToolbar@@SAXPBUwindowHandle@@PBUmenuTag@@PB_WPAPB_W@Z  (Idle)
01:00020238 ?setValue@vpiToolbar@@SAXPBUwindowHandle@@PBUmenuTag@@PAUvalue_struct@1@@Z 
01:00020830 ?getValue@vpiToolbar@@SAXPBUwindowHandle@@PBUmenuTag@@PAPAUvalue_struct@1@@Z  (Idle)
01:00020AB0 ?getRect@vpiToolbar@@SAXPBUwindowHandle@@PAUstyle_struct@1@PAPAUrct_struct@vpiDomains@@@Z  (Idle)
01:00020B50 ?groupControls@vpiToolbar@@SAXPBUwindowHandle@@HPAU?$__packedList_struct@UmenuTag@@@@@Z  (Idle)
01:00020D70 ?getToolbar_nd@vpiToolbar@@SAXPBUwindowHandle@@AAU2@@Z  (Idle)
01:00020DC4 ?getToolbar_nd@vpiToolbar@@SAXPBUwindowHandle@@AAU2@PAPAUstyle_struct@1@PAPAU?$__packedList_struct@Ucontrol@@@@@Z  (Idle)
01:00020E28 ?setStatusHandler@vpiToolbar@@SAXPBUwindowHandle@@X@Z 
--- From 'Obj\scilexer_api.849DAF4B.obj'
01:00020EF0 ?_createWindowEx@sciLexer_api@@SAXIPB_WIHHHHPBUhwnd@@HPBUhModule@@AAU2@@Z  (Idle)
--- From 'Obj\scilexer.AFB548FB.obj'
01:00020F88 ?_getScintillaObject@sciLexer_api@@SAXPBUhwnd@@AAUscintillaObject@@@Z 
01:00020FA8 ?getText@sciLexer_api@@SAXPBUscintillaObject@@HPAD@Z 
01:00020FD0 ?setText@sciLexer_api@@SAXPBUscintillaObject@@PAD@Z 
01:00020FF0 ?setSavePoint@sciLexer_api@@SAXPBUscintillaObject@@@Z 
01:00021004 ?getLine@sciLexer_api@@SAXPBUscintillaObject@@HPAD@Z 
01:0002102C ?replaceSel@sciLexer_api@@SAXPBUscintillaObject@@PAD@Z 
01:0002104C ?setReadOnly@sciLexer_api@@SAXPBUscintillaObject@@PBUbooleanInt@@@Z 
01:00021068 ?_getReadOnly@sciLexer_api@@SAXPBUscintillaObject@@AAUbooleanInt@@@Z 
01:00021084 ?_getTextRange@sciLexer_api@@SAXPBUscintillaObject@@PAUsci_textRange_struct@sciLexer_native@@PAH@Z 
--- From 'Obj\scilexer_api.849DAF4B.obj'
01:000210B0 ?getStyledText@sciLexer_api@@SAXPBUscintillaObject@@PAUsci_textRange_struct@sciLexer_native@@@Z  (Idle)
--- From 'Obj\scilexer.AFB548FB.obj'
01:000210D0 ?allocate@sciLexer_api@@SAXPBUscintillaObject@@H@Z 
01:000210EC ?addText@sciLexer_api@@SAXPBUscintillaObject@@HPAD@Z 
--- From 'Obj\scilexer_api.849DAF4B.obj'
01:00021114 ?addStyledText@sciLexer_api@@SAXPBUscintillaObject@@HPAUcell_struct@sciLexer_native@@@Z  (Idle)
--- From 'Obj\scilexer.AFB548FB.obj'
01:0002113C ?appendText@sciLexer_api@@SAXPBUscintillaObject@@HPAD@Z 
01:00021164 ?insertText@sciLexer_api@@SAXPBUscintillaObject@@HPAD@Z 
01:0002118C ?clearAll@sciLexer_api@@SAXPBUscintillaObject@@@Z 
01:000211A0 ?deleteRange@sciLexer_api@@SAXPBUscintillaObject@@HH@Z 
01:000211C8 ?clearDocumentStyle@sciLexer_api@@SAXPBUscintillaObject@@@Z 
01:000211DC ?_getCharAt@sciLexer_api@@SAXPBUscintillaObject@@HAAUchar8@@@Z 
01:00021204 ?_getStyleAt@sciLexer_api@@SAXPBUscintillaObject@@HAAUsci_style@@@Z 
01:0002122C ?setStyleBits@sciLexer_api@@SAXPBUscintillaObject@@H@Z 
01:00021248 ?_getStyleBits@sciLexer_api@@SAXPBUscintillaObject@@PAH@Z 
--- From 'Obj\scilexer_api.849DAF4B.obj'
01:00021264 ?targetasUtf8@sciLexer_api@@SAXPBUscintillaObject@@PAD@Z  (Idle)
01:00021284 ?encodedFromUtf8@sciLexer_api@@SAXPBUscintillaObject@@PADPAD@Z  (Idle)
01:000212AC ?setLengthforEncode@sciLexer_api@@SAXPBUscintillaObject@@H@Z  (Idle)
--- From 'Obj\scilexer.AFB548FB.obj'
01:000212C8 ?_findText@sciLexer_api@@SAXPBUscintillaObject@@HPAUsci_textToFind_struct@sciLexer_native@@PAH@Z 
01:000212FC ?searchAnchor@sciLexer_api@@SAXPBUscintillaObject@@@Z 
01:00021310 ?_searchNext@sciLexer_api@@SAXPBUscintillaObject@@HPADPAH@Z 
01:00021344 ?_searchPrev@sciLexer_api@@SAXPBUscintillaObject@@HPADPAH@Z 
01:00021378 ?setTargetStart@sciLexer_api@@SAXPBUscintillaObject@@H@Z 
01:00021394 ?_getTargetStart@sciLexer_api@@SAXPBUscintillaObject@@PAH@Z 
01:000213B0 ?setTargetEnd@sciLexer_api@@SAXPBUscintillaObject@@H@Z 
01:000213CC ?_getTargetEnd@sciLexer_api@@SAXPBUscintillaObject@@PAH@Z 
01:000213E8 ?targetFromSelection@sciLexer_api@@SAXPBUscintillaObject@@@Z 
01:000213FC ?setSearchFlags@sciLexer_api@@SAXPBUscintillaObject@@H@Z 
01:00021418 ?_getSearchFlags@sciLexer_api@@SAXPBUscintillaObject@@PAH@Z 
01:00021434 ?_searchInTarget@sciLexer_api@@SAXPBUscintillaObject@@HPADPAH@Z 
01:00021468 ?_replaceTarget@sciLexer_api@@SAXPBUscintillaObject@@HPADPAH@Z 
01:0002149C ?_replaceTargetRE@sciLexer_api@@SAXPBUscintillaObject@@HPADPAH@Z 
01:000214D0 ?_getTag@sciLexer_api@@SAXPBUscintillaObject@@HPADPAH@Z 
01:00021504 ?setOverType@sciLexer_api@@SAXPBUscintillaObject@@PBUbooleanInt@@@Z 
01:00021520 ?_getOverType@sciLexer_api@@SAXPBUscintillaObject@@AAUbooleanInt@@@Z 
--- From 'Obj\scilexer_api.849DAF4B.obj'
01:0002153C ?cut@sciLexer_api@@SAXPBUscintillaObject@@@Z  (Idle)
01:00021550 ?copy@sciLexer_api@@SAXPBUscintillaObject@@@Z  (Idle)
--- From 'Obj\scilexer.AFB548FB.obj'
01:00021564 ?paste@sciLexer_api@@SAXPBUscintillaObject@@@Z 
01:00021578 ?clear@sciLexer_api@@SAXPBUscintillaObject@@@Z 
01:0002158C ?_canPaste@sciLexer_api@@SAXPBUscintillaObject@@AAUbooleanInt@@@Z 
01:000215A8 ?copyAllowLine@sciLexer_api@@SAXPBUscintillaObject@@@Z 
01:000215BC ?copyRange@sciLexer_api@@SAXPBUscintillaObject@@HH@Z 
01:000215E4 ?copyText@sciLexer_api@@SAXPBUscintillaObject@@HPAD@Z 
01:0002160C ?setPasteConvertEndings@sciLexer_api@@SAXPBUscintillaObject@@PBUbooleanInt@@@Z 
01:00021628 ?_getPasteConvertEndings@sciLexer_api@@SAXPBUscintillaObject@@AAUbooleanInt@@@Z 
01:00021644 ?setStatus@sciLexer_api@@SAXPBUscintillaObject@@H@Z 
01:00021660 ?_getStatus@sciLexer_api@@SAXPBUscintillaObject@@PAH@Z 
01:0002167C ?undo@sciLexer_api@@SAXPBUscintillaObject@@@Z 
01:00021690 ?_canUndo@sciLexer_api@@SAXPBUscintillaObject@@AAUbooleanInt@@@Z 
01:000216AC ?redo@sciLexer_api@@SAXPBUscintillaObject@@@Z 
01:000216C0 ?_canRedo@sciLexer_api@@SAXPBUscintillaObject@@AAUbooleanInt@@@Z 
01:000216DC ?emptyUndoBuffer@sciLexer_api@@SAXPBUscintillaObject@@@Z 
01:000216F0 ?setUndoCollection@sciLexer_api@@SAXPBUscintillaObject@@PBUbooleanInt@@@Z 
01:0002170C ?_getUndoCollection@sciLexer_api@@SAXPBUscintillaObject@@AAUbooleanInt@@@Z 
01:00021728 ?beginUndoAction@sciLexer_api@@SAXPBUscintillaObject@@@Z 
01:0002173C ?endUndoAction@sciLexer_api@@SAXPBUscintillaObject@@@Z 
01:00021750 ?addUndoAction@sciLexer_api@@SAXPBUscintillaObject@@HH@Z 
01:00021778 ?_getTextLength@sciLexer_api@@SAXPBUscintillaObject@@PAH@Z 
--- From 'Obj\scilexer_api.849DAF4B.obj'
01:00021794 ?_getLength@sciLexer_api@@SAXPBUscintillaObject@@PAH@Z  (Idle)
--- From 'Obj\scilexer.AFB548FB.obj'
01:000217B0 ?_getLineCount@sciLexer_api@@SAXPBUscintillaObject@@AAUlineNumber@@@Z 
01:000217CC ?setFirstVisibleLine@sciLexer_api@@SAXPBUscintillaObject@@H@Z 
01:000217E8 ?_getFirstVisibleLine@sciLexer_api@@SAXPBUscintillaObject@@PAH@Z 
01:00021804 ?_linesOnScreen@sciLexer_api@@SAXPBUscintillaObject@@PAH@Z 
01:00021820 ?_getModify@sciLexer_api@@SAXPBUscintillaObject@@AAUbooleanInt@@@Z 
01:0002183C ?setSel@sciLexer_api@@SAXPBUscintillaObject@@HH@Z 
01:00021864 ?goToPos@sciLexer_api@@SAXPBUscintillaObject@@H@Z 
01:00021880 ?goToLine@sciLexer_api@@SAXPBUscintillaObject@@H@Z 
01:0002189C ?setCurrentPos@sciLexer_api@@SAXPBUscintillaObject@@H@Z 
01:000218B8 ?_getCurrentPos@sciLexer_api@@SAXPBUscintillaObject@@PAH@Z 
01:000218D4 ?setAnchor@sciLexer_api@@SAXPBUscintillaObject@@H@Z 
01:000218F0 ?_getAnchor@sciLexer_api@@SAXPBUscintillaObject@@PAH@Z 
01:0002190C ?setSelectionStart@sciLexer_api@@SAXPBUscintillaObject@@H@Z 
01:00021928 ?setSelectionEnd@sciLexer_api@@SAXPBUscintillaObject@@H@Z 
01:00021944 ?_getSelectionStart@sciLexer_api@@SAXPBUscintillaObject@@PAH@Z 
01:00021960 ?_getSelectionEnd@sciLexer_api@@SAXPBUscintillaObject@@PAH@Z 
01:0002197C ?setEmptySelection@sciLexer_api@@SAXPBUscintillaObject@@H@Z 
01:00021998 ?selectAll@sciLexer_api@@SAXPBUscintillaObject@@@Z 
01:000219AC ?_lineFromPosition@sciLexer_api@@SAXPBUscintillaObject@@HPAH@Z 
01:000219D4 ?_positionFromLine@sciLexer_api@@SAXPBUscintillaObject@@HPAH@Z 
01:000219FC ?_getLineEndPosition@sciLexer_api@@SAXPBUscintillaObject@@HPAH@Z 
01:00021A24 ?_lineLength@sciLexer_api@@SAXPBUscintillaObject@@HPAH@Z 
01:00021A4C ?_getSelText@sciLexer_api@@SAXPBUscintillaObject@@PADPAH@Z 
01:00021A78 ?_getCurLine@sciLexer_api@@SAXPBUscintillaObject@@HPADPAH@Z 
01:00021AAC ?_selectionIsRectangle@sciLexer_api@@SAXPBUscintillaObject@@AAUbooleanInt@@@Z 
01:00021AC8 ?setSelectionMode@sciLexer_api@@SAXPBUscintillaObject@@H@Z 
01:00021AE4 ?_getSelectionMode@sciLexer_api@@SAXPBUscintillaObject@@PAH@Z 
01:00021B00 ?_getLineSelStartPosition@sciLexer_api@@SAXPBUscintillaObject@@HPAH@Z 
01:00021B28 ?_getLineSelEndPosition@sciLexer_api@@SAXPBUscintillaObject@@HPAH@Z 
01:00021B50 ?moveCaretInsideView@sciLexer_api@@SAXPBUscintillaObject@@@Z 
01:00021B64 ?_wordEndPosition@sciLexer_api@@SAXPBUscintillaObject@@HPBUbooleanInt@@PAH@Z 
01:00021B98 ?_wordStartPosition@sciLexer_api@@SAXPBUscintillaObject@@HPBUbooleanInt@@PAH@Z 
01:00021BCC ?_positionBefore@sciLexer_api@@SAXPBUscintillaObject@@HPAH@Z 
01:00021BF4 ?_positionAfter@sciLexer_api@@SAXPBUscintillaObject@@HPAH@Z 
01:00021C1C ?_countCharacters@sciLexer_api@@SAXPBUscintillaObject@@HHAAUcharCount@@@Z 
01:00021C5C ?_textWidth@sciLexer_api@@SAXPBUscintillaObject@@PBUsci_style@@PADPAH@Z 
01:00021C90 ?_textHeight@sciLexer_api@@SAXPBUscintillaObject@@HPAH@Z 
01:00021CB8 ?_getColumn@sciLexer_api@@SAXPBUscintillaObject@@HPAH@Z 
01:00021CE0 ?_findColumn@sciLexer_api@@SAXPBUscintillaObject@@HHPAH@Z 
01:00021D14 ?_positionFromPoint@sciLexer_api@@SAXPBUscintillaObject@@HHPAH@Z 
01:00021D48 ?_positionFromPointClose@sciLexer_api@@SAXPBUscintillaObject@@HHPAH@Z 
01:00021D7C ?_charPositionFromPoint@sciLexer_api@@SAXPBUscintillaObject@@HHPAH@Z 
01:00021DB0 ?_charPositionFromPointClose@sciLexer_api@@SAXPBUscintillaObject@@HHPAH@Z 
01:00021DE4 ?_pointxFromPosition@sciLexer_api@@SAXPBUscintillaObject@@HPAH@Z 
01:00021E10 ?_pointyFromPosition@sciLexer_api@@SAXPBUscintillaObject@@HPAH@Z 
01:00021E3C ?hideSelection@sciLexer_api@@SAXPBUscintillaObject@@PBUbooleanInt@@@Z 
01:00021E58 ?chooseCaretX@sciLexer_api@@SAXPBUscintillaObject@@@Z 
01:00021E6C ?moveSelectedLinesUp@sciLexer_api@@SAXPBUscintillaObject@@@Z 
01:00021E80 ?moveSelectedLinesDown@sciLexer_api@@SAXPBUscintillaObject@@@Z 
01:00021E94 ?setMultipleSelection@sciLexer_api@@SAXPBUscintillaObject@@PBUbooleanInt@@@Z 
01:00021EB0 ?_getMultipleSelection@sciLexer_api@@SAXPBUscintillaObject@@AAUbooleanInt@@@Z 
01:00021ECC ?setAdditionalSelectionTyping@sciLexer_api@@SAXPBUscintillaObject@@PBUbooleanInt@@@Z 
01:00021EE8 ?_getAdditionalSelectionTyping@sciLexer_api@@SAXPBUscintillaObject@@AAUbooleanInt@@@Z 
01:00021F04 ?setMultiPaste@sciLexer_api@@SAXPBUscintillaObject@@H@Z 
01:00021F20 ?_getMultiPaste@sciLexer_api@@SAXPBUscintillaObject@@PAH@Z 
01:00021F3C ?setVirtualSpaceOptions@sciLexer_api@@SAXPBUscintillaObject@@H@Z 
01:00021F58 ?_getVirtualSpaceOptions@sciLexer_api@@SAXPBUscintillaObject@@PAH@Z 
--- From 'Obj\scilexer_api.849DAF4B.obj'
01:00021F74 ?setRectangularSelectionModifier@sciLexer_api@@SAXPBUscintillaObject@@H@Z  (Idle)
01:00021F90 ?_getRectangularSelectionModifier@sciLexer_api@@SAXPBUscintillaObject@@PAH@Z  (Idle)
--- From 'Obj\scilexer.AFB548FB.obj'
01:00021FAC ?_getSelections@sciLexer_api@@SAXPBUscintillaObject@@PAH@Z 
01:00021FC8 ?clearSelections@sciLexer_api@@SAXPBUscintillaObject@@@Z 
01:00021FDC ?setSelection@sciLexer_api@@SAXPBUscintillaObject@@HH@Z 
01:00022004 ?addSelection@sciLexer_api@@SAXPBUscintillaObject@@HH@Z 
01:0002202C ?setMainSelection@sciLexer_api@@SAXPBUscintillaObject@@H@Z 
01:00022048 ?_getMainSelection@sciLexer_api@@SAXPBUscintillaObject@@PAH@Z 
01:00022064 ?setSelectionNCaret@sciLexer_api@@SAXPBUscintillaObject@@HH@Z 
01:0002208C ?_getSelectionNCaret@sciLexer_api@@SAXPBUscintillaObject@@HPAH@Z 
01:000220B4 ?setSelectionNCaretVirtualSpace@sciLexer_api@@SAXPBUscintillaObject@@HH@Z 
01:000220DC ?_getSelectionNCaretVirtualSpace@sciLexer_api@@SAXPBUscintillaObject@@HPAH@Z 
01:00022104 ?setSelectionNAnchor@sciLexer_api@@SAXPBUscintillaObject@@HH@Z 
01:0002212C ?_getSelectionNAnchor@sciLexer_api@@SAXPBUscintillaObject@@HPAH@Z 
01:00022154 ?setSelectionNAnchorVirtualSpace@sciLexer_api@@SAXPBUscintillaObject@@HH@Z 
01:0002217C ?_getSelectionNAnchorVirtualSpace@sciLexer_api@@SAXPBUscintillaObject@@HPAH@Z 
01:000221A4 ?setSelectionNStart@sciLexer_api@@SAXPBUscintillaObject@@HH@Z 
01:000221CC ?_getSelectionNStart@sciLexer_api@@SAXPBUscintillaObject@@HPAH@Z 
01:000221F4 ?setSelectionNEnd@sciLexer_api@@SAXPBUscintillaObject@@HH@Z 
01:0002221C ?_getSelectionNEnd@sciLexer_api@@SAXPBUscintillaObject@@HPAH@Z 
01:00022244 ?setRectangularSelectionCaret@sciLexer_api@@SAXPBUscintillaObject@@H@Z 
01:00022260 ?_getRectangularSelectionCaret@sciLexer_api@@SAXPBUscintillaObject@@PAH@Z 
01:0002227C ?setRectangularSelectionCaretVirtualSpace@sciLexer_api@@SAXPBUscintillaObject@@H@Z 
01:00022298 ?_getRectangularSelectionCaretVirtualSpace@sciLexer_api@@SAXPBUscintillaObject@@PAH@Z 
01:000222B4 ?setRectangularSelectionAnchor@sciLexer_api@@SAXPBUscintillaObject@@H@Z 
01:000222D0 ?_getRectangularSelectionAnchor@sciLexer_api@@SAXPBUscintillaObject@@PAH@Z 
01:000222EC ?setRectangularSelectionAnchorVirtualSpace@sciLexer_api@@SAXPBUscintillaObject@@H@Z 
01:00022308 ?_getRectangularSelectionAnchorVirtualSpace@sciLexer_api@@SAXPBUscintillaObject@@PAH@Z 
01:00022324 ?setAdditionalSelAlpha@sciLexer_api@@SAXPBUscintillaObject@@H@Z 
01:00022340 ?_getAdditionalSelAlpha@sciLexer_api@@SAXPBUscintillaObject@@PAH@Z 
01:0002235C ?setAdditionalSelFore@sciLexer_api@@SAXPBUscintillaObject@@H@Z 
01:00022378 ?setAdditionalSelBack@sciLexer_api@@SAXPBUscintillaObject@@H@Z 
01:00022394 ?setAdditionalCaretFore@sciLexer_api@@SAXPBUscintillaObject@@H@Z 
01:000223B0 ?_getAdditionalCaretFore@sciLexer_api@@SAXPBUscintillaObject@@PAH@Z 
01:000223CC ?setAdditionalCaretsBlink@sciLexer_api@@SAXPBUscintillaObject@@PBUbooleanInt@@@Z 
01:000223E8 ?_getAdditionalCaretsBlink@sciLexer_api@@SAXPBUscintillaObject@@AAUbooleanInt@@@Z 
01:00022404 ?setAdditionalCaretsVisible@sciLexer_api@@SAXPBUscintillaObject@@PBUbooleanInt@@@Z 
01:00022420 ?_getAdditionalCaretsVisible@sciLexer_api@@SAXPBUscintillaObject@@AAUbooleanInt@@@Z 
01:0002243C ?swapmainAnchorCaret@sciLexer_api@@SAXPBUscintillaObject@@@Z 
01:00022450 ?rotateSelection@sciLexer_api@@SAXPBUscintillaObject@@@Z 
01:00022464 ?lineScroll@sciLexer_api@@SAXPBUscintillaObject@@HH@Z 
01:0002248C ?scrollCaret@sciLexer_api@@SAXPBUscintillaObject@@@Z 
01:000224A0 ?setXCaretPolicy@sciLexer_api@@SAXPBUscintillaObject@@HH@Z 
01:000224C8 ?setYCaretPolicy@sciLexer_api@@SAXPBUscintillaObject@@HH@Z 
01:000224F0 ?setVisiblePolicy@sciLexer_api@@SAXPBUscintillaObject@@HH@Z 
01:00022518 ?setHScrollbar@sciLexer_api@@SAXPBUscintillaObject@@PBUbooleanInt@@@Z 
01:00022534 ?_getHScrollbar@sciLexer_api@@SAXPBUscintillaObject@@AAUbooleanInt@@@Z 
01:00022550 ?setVScrollbar@sciLexer_api@@SAXPBUscintillaObject@@PBUbooleanInt@@@Z 
01:0002256C ?_getVScrollbar@sciLexer_api@@SAXPBUscintillaObject@@AAUbooleanInt@@@Z 
01:00022588 ?setXOffset@sciLexer_api@@SAXPBUscintillaObject@@H@Z 
01:000225A4 ?_getXOffset@sciLexer_api@@SAXPBUscintillaObject@@PAH@Z 
01:000225C0 ?setScrollWidth@sciLexer_api@@SAXPBUscintillaObject@@H@Z 
01:000225DC ?_getScrollWidth@sciLexer_api@@SAXPBUscintillaObject@@PAH@Z 
01:000225F8 ?setScrollWidthTracking@sciLexer_api@@SAXPBUscintillaObject@@PBUbooleanInt@@@Z 
01:00022614 ?_getScrollWidthTracking@sciLexer_api@@SAXPBUscintillaObject@@AAUbooleanInt@@@Z 
01:00022630 ?setEndatLastLine@sciLexer_api@@SAXPBUscintillaObject@@PBUbooleanInt@@@Z 
01:0002264C ?_getEndatLastLine@sciLexer_api@@SAXPBUscintillaObject@@AAUbooleanInt@@@Z 
01:00022668 ?setViewWs@sciLexer_api@@SAXPBUscintillaObject@@H@Z 
01:00022684 ?_getViewWs@sciLexer_api@@SAXPBUscintillaObject@@PAH@Z 
01:000226A0 ?setWhiteSpaceFore@sciLexer_api@@SAXPBUscintillaObject@@PBUbooleanInt@@H@Z 
01:000226C8 ?setWhiteSpaceBack@sciLexer_api@@SAXPBUscintillaObject@@PBUbooleanInt@@H@Z 
01:000226F0 ?setWhiteSpaceSize@sciLexer_api@@SAXPBUscintillaObject@@H@Z 
01:0002270C ?_getWhiteSpaceSize@sciLexer_api@@SAXPBUscintillaObject@@PAH@Z 
01:00022728 ?setExtraAscent@sciLexer_api@@SAXPBUscintillaObject@@H@Z 
01:00022744 ?_getExtraAscent@sciLexer_api@@SAXPBUscintillaObject@@PAH@Z 
01:00022760 ?setExtraDescent@sciLexer_api@@SAXPBUscintillaObject@@H@Z 
01:0002277C ?_getExtraDescent@sciLexer_api@@SAXPBUscintillaObject@@PAH@Z 
01:00022798 ?setCursor@sciLexer_api@@SAXPBUscintillaObject@@H@Z 
01:000227B4 ?_getCursor@sciLexer_api@@SAXPBUscintillaObject@@PAH@Z 
01:000227D0 ?setMouseDownCaptures@sciLexer_api@@SAXPBUscintillaObject@@PBUbooleanInt@@@Z 
01:000227EC ?_getMouseDownCaptures@sciLexer_api@@SAXPBUscintillaObject@@AAUbooleanInt@@@Z 
01:00022808 ?setEolMode@sciLexer_api@@SAXPBUscintillaObject@@H@Z 
01:00022824 ?_getEolMode@sciLexer_api@@SAXPBUscintillaObject@@PAH@Z 
01:00022840 ?convertEols@sciLexer_api@@SAXPBUscintillaObject@@H@Z 
01:0002285C ?setViewEol@sciLexer_api@@SAXPBUscintillaObject@@PBUbooleanInt@@@Z 
01:00022878 ?_getViewEol@sciLexer_api@@SAXPBUscintillaObject@@AAUbooleanInt@@@Z 
01:00022894 ?_getEndStyled@sciLexer_api@@SAXPBUscintillaObject@@PAH@Z 
01:000228B0 ?startStyling@sciLexer_api@@SAXPBUscintillaObject@@HH@Z 
01:000228D8 ?setStyling@sciLexer_api@@SAXPBUscintillaObject@@HPBUsci_style@@@Z 
01:00022908 ?setStylingeX@sciLexer_api@@SAXPBUscintillaObject@@HPAD@Z 
01:00022930 ?setLineState@sciLexer_api@@SAXPBUscintillaObject@@HH@Z 
01:00022958 ?_getLineState@sciLexer_api@@SAXPBUscintillaObject@@HPAH@Z 
01:00022980 ?_getMaxLineState@sciLexer_api@@SAXPBUscintillaObject@@PAH@Z 
01:0002299C ?styleResetDefault@sciLexer_api@@SAXPBUscintillaObject@@@Z 
01:000229B0 ?styleClearAll@sciLexer_api@@SAXPBUscintillaObject@@@Z 
01:000229C4 ?styleSetFont@sciLexer_api@@SAXPBUscintillaObject@@PBUsci_style@@PAD@Z 
01:000229F0 ?styleGetFont@sciLexer_api@@SAXPBUscintillaObject@@PBUsci_style@@PAD@Z 
01:00022A1C ?styleSetSize@sciLexer_api@@SAXPBUscintillaObject@@PBUsci_style@@H@Z 
01:00022A48 ?_styleGetSize@sciLexer_api@@SAXPBUscintillaObject@@PBUsci_style@@PAH@Z 
01:00022A74 ?styleSetSizeFractional@sciLexer_api@@SAXPBUscintillaObject@@PBUsci_style@@H@Z 
01:00022AA0 ?_styleGetSizeFractional@sciLexer_api@@SAXPBUscintillaObject@@PBUsci_style@@PAH@Z 
01:00022ACC ?styleSetBold@sciLexer_api@@SAXPBUscintillaObject@@PBUsci_style@@PBUbooleanInt@@@Z 
01:00022AF8 ?_styleGetBold@sciLexer_api@@SAXPBUscintillaObject@@PBUsci_style@@AAUbooleanInt@@@Z 
01:00022B24 ?styleSetWeight@sciLexer_api@@SAXPBUscintillaObject@@PBUsci_style@@H@Z 
01:00022B50 ?_styleGetWeight@sciLexer_api@@SAXPBUscintillaObject@@PBUsci_style@@PAH@Z 
01:00022B7C ?styleSetItalic@sciLexer_api@@SAXPBUscintillaObject@@PBUsci_style@@PBUbooleanInt@@@Z 
01:00022BA8 ?_styleGetItalic@sciLexer_api@@SAXPBUscintillaObject@@PBUsci_style@@AAUbooleanInt@@@Z 
01:00022BD4 ?styleSetUnderline@sciLexer_api@@SAXPBUscintillaObject@@PBUsci_style@@PBUbooleanInt@@@Z 
01:00022C00 ?_styleGetUnderline@sciLexer_api@@SAXPBUscintillaObject@@PBUsci_style@@AAUbooleanInt@@@Z 
01:00022C2C ?styleSetFore@sciLexer_api@@SAXPBUscintillaObject@@PBUsci_style@@H@Z 
01:00022C58 ?_styleGetFore@sciLexer_api@@SAXPBUscintillaObject@@PBUsci_style@@PAH@Z 
01:00022C84 ?styleSetBack@sciLexer_api@@SAXPBUscintillaObject@@PBUsci_style@@H@Z 
01:00022CB0 ?_styleGetBack@sciLexer_api@@SAXPBUscintillaObject@@PBUsci_style@@PAH@Z 
01:00022CDC ?styleSetEolFilled@sciLexer_api@@SAXPBUscintillaObject@@PBUsci_style@@PBUbooleanInt@@@Z 
01:00022D08 ?_styleGetEolFilled@sciLexer_api@@SAXPBUscintillaObject@@PBUsci_style@@AAUbooleanInt@@@Z 
--- From 'Obj\scilexer_api.849DAF4B.obj'
01:00022D34 ?styleSetCharacterSet@sciLexer_api@@SAXPBUscintillaObject@@PBUsci_style@@H@Z  (Idle)
01:00022D60 ?_styleGetCharacterSet@sciLexer_api@@SAXPBUscintillaObject@@PBUsci_style@@PAH@Z  (Idle)
--- From 'Obj\scilexer.AFB548FB.obj'
01:00022D8C ?styleSetCase@sciLexer_api@@SAXPBUscintillaObject@@PBUsci_style@@H@Z 
01:00022DB8 ?_styleGetCase@sciLexer_api@@SAXPBUscintillaObject@@PBUsci_style@@PAH@Z 
01:00022DE4 ?styleSetVisible@sciLexer_api@@SAXPBUscintillaObject@@PBUsci_style@@PBUbooleanInt@@@Z 
01:00022E10 ?_styleGetVisible@sciLexer_api@@SAXPBUscintillaObject@@PBUsci_style@@AAUbooleanInt@@@Z 
01:00022E3C ?styleSetChangeable@sciLexer_api@@SAXPBUscintillaObject@@PBUsci_style@@PBUbooleanInt@@@Z 
01:00022E68 ?_styleGetChangeable@sciLexer_api@@SAXPBUscintillaObject@@PBUsci_style@@AAUbooleanInt@@@Z 
01:00022E94 ?styleSetHotSpot@sciLexer_api@@SAXPBUscintillaObject@@PBUsci_style@@PBUbooleanInt@@@Z 
01:00022EC0 ?_styleGetHotSpot@sciLexer_api@@SAXPBUscintillaObject@@PBUsci_style@@AAUbooleanInt@@@Z 
01:00022EEC ?setSelFore@sciLexer_api@@SAXPBUscintillaObject@@PBUbooleanInt@@H@Z 
01:00022F14 ?setSelBack@sciLexer_api@@SAXPBUscintillaObject@@PBUbooleanInt@@H@Z 
01:00022F3C ?setSelAlpha@sciLexer_api@@SAXPBUscintillaObject@@H@Z 
01:00022F58 ?_getSelAlpha@sciLexer_api@@SAXPBUscintillaObject@@PAH@Z 
01:00022F74 ?setSelEolFilled@sciLexer_api@@SAXPBUscintillaObject@@PBUbooleanInt@@@Z 
01:00022F90 ?_getSelEolFilled@sciLexer_api@@SAXPBUscintillaObject@@AAUbooleanInt@@@Z 
01:00022FAC ?setCaretFore@sciLexer_api@@SAXPBUscintillaObject@@H@Z 
01:00022FC8 ?_getCaretFore@sciLexer_api@@SAXPBUscintillaObject@@PAH@Z 
01:00022FE4 ?setCaretLineVisible@sciLexer_api@@SAXPBUscintillaObject@@PBUbooleanInt@@@Z 
01:00023000 ?_getCaretLineVisible@sciLexer_api@@SAXPBUscintillaObject@@AAUbooleanInt@@@Z 
01:0002301C ?setCaretLineBack@sciLexer_api@@SAXPBUscintillaObject@@H@Z 
01:00023038 ?_getCaretLineBack@sciLexer_api@@SAXPBUscintillaObject@@PAH@Z 
01:00023054 ?setCaretLineBackAlpha@sciLexer_api@@SAXPBUscintillaObject@@H@Z 
01:00023070 ?_getCaretLineBackAlpha@sciLexer_api@@SAXPBUscintillaObject@@PAH@Z 
01:0002308C ?setCaretPeriod@sciLexer_api@@SAXPBUscintillaObject@@H@Z 
01:000230A8 ?_getCaretPeriod@sciLexer_api@@SAXPBUscintillaObject@@PAH@Z 
01:000230C4 ?setCaretStyle@sciLexer_api@@SAXPBUscintillaObject@@H@Z 
01:000230E0 ?_getCaretStyle@sciLexer_api@@SAXPBUscintillaObject@@PAH@Z 
01:000230FC ?setCaretWidth@sciLexer_api@@SAXPBUscintillaObject@@H@Z 
01:00023118 ?_getCaretWidth@sciLexer_api@@SAXPBUscintillaObject@@PAH@Z 
01:00023134 ?setHotSpotActiveFore@sciLexer_api@@SAXPBUscintillaObject@@PBUbooleanInt@@H@Z 
01:0002315C ?_getHotSpotActiveFore@sciLexer_api@@SAXPBUscintillaObject@@PAH@Z 
01:00023178 ?setHotSpotActiveBack@sciLexer_api@@SAXPBUscintillaObject@@PBUbooleanInt@@H@Z 
01:000231A0 ?_getHotSpotActiveBack@sciLexer_api@@SAXPBUscintillaObject@@PAH@Z 
01:000231BC ?setHotSpotActiveUnderline@sciLexer_api@@SAXPBUscintillaObject@@PBUbooleanInt@@@Z 
01:000231D8 ?_getHotSpotActiveUnderline@sciLexer_api@@SAXPBUscintillaObject@@AAUbooleanInt@@@Z 
01:000231F4 ?setHotSpotSingleLine@sciLexer_api@@SAXPBUscintillaObject@@PBUbooleanInt@@@Z 
01:00023210 ?_getHotSpotSingleLine@sciLexer_api@@SAXPBUscintillaObject@@AAUbooleanInt@@@Z 
01:0002322C ?setControlCharSymbol@sciLexer_api@@SAXPBUscintillaObject@@H@Z 
01:00023248 ?_getControlCharSymbol@sciLexer_api@@SAXPBUscintillaObject@@PAH@Z 
01:00023264 ?setCaretSticky@sciLexer_api@@SAXPBUscintillaObject@@H@Z 
01:00023280 ?_getCaretSticky@sciLexer_api@@SAXPBUscintillaObject@@PAH@Z 
01:0002329C ?toggleCaretSticky@sciLexer_api@@SAXPBUscintillaObject@@@Z 
01:000232B0 ?setMarginTypeN@sciLexer_api@@SAXPBUscintillaObject@@HH@Z 
01:000232D8 ?_getMarginTypeN@sciLexer_api@@SAXPBUscintillaObject@@HPAH@Z 
01:00023300 ?setMarginWidthN@sciLexer_api@@SAXPBUscintillaObject@@HH@Z 
01:00023328 ?_getMarginWidthN@sciLexer_api@@SAXPBUscintillaObject@@HPAH@Z 
01:00023350 ?setMarginMaskN@sciLexer_api@@SAXPBUscintillaObject@@HI@Z 
01:00023378 ?_getMarginMaskN@sciLexer_api@@SAXPBUscintillaObject@@HPAI@Z 
01:000233A0 ?setMarginSensitiveN@sciLexer_api@@SAXPBUscintillaObject@@HPBUbooleanInt@@@Z 
01:000233C8 ?_getMarginSensitiveN@sciLexer_api@@SAXPBUscintillaObject@@HAAUbooleanInt@@@Z 
01:000233F0 ?setMarginCursorN@sciLexer_api@@SAXPBUscintillaObject@@HH@Z 
01:00023418 ?_getMarginCursorN@sciLexer_api@@SAXPBUscintillaObject@@HPAH@Z 
01:00023440 ?setMarginLeft@sciLexer_api@@SAXPBUscintillaObject@@H@Z 
01:00023460 ?_getMarginLeft@sciLexer_api@@SAXPBUscintillaObject@@PAH@Z 
01:0002347C ?setMarginRight@sciLexer_api@@SAXPBUscintillaObject@@H@Z 
01:0002349C ?_getMarginRight@sciLexer_api@@SAXPBUscintillaObject@@PAH@Z 
01:000234B8 ?setFoldMarginColor@sciLexer_api@@SAXPBUscintillaObject@@PBUbooleanInt@@H@Z 
01:000234E0 ?setFoldMarginHiColor@sciLexer_api@@SAXPBUscintillaObject@@PBUbooleanInt@@H@Z 
01:00023508 ?marginSetText@sciLexer_api@@SAXPBUscintillaObject@@HPAD@Z 
01:00023530 ?marginGetText@sciLexer_api@@SAXPBUscintillaObject@@HPAD@Z 
01:00023558 ?marginSetStyle@sciLexer_api@@SAXPBUscintillaObject@@HH@Z 
01:00023580 ?_marginGetStyle@sciLexer_api@@SAXPBUscintillaObject@@HPAH@Z 
01:000235A8 ?marginSetStyles@sciLexer_api@@SAXPBUscintillaObject@@HPAD@Z 
01:000235D0 ?marginGetStyles@sciLexer_api@@SAXPBUscintillaObject@@HPAD@Z 
01:000235F8 ?marginTextClearAll@sciLexer_api@@SAXPBUscintillaObject@@@Z 
01:0002360C ?marginSetStyleOffset@sciLexer_api@@SAXPBUscintillaObject@@H@Z 
01:00023628 ?_marginGetStyleOffset@sciLexer_api@@SAXPBUscintillaObject@@PAH@Z 
--- From 'Obj\scilexer_api.849DAF4B.obj'
01:00023644 ?setMarginOptions@sciLexer_api@@SAXPBUscintillaObject@@H@Z  (Idle)
01:00023660 ?_getMarginOptions@sciLexer_api@@SAXPBUscintillaObject@@PAH@Z  (Idle)
--- From 'Obj\scilexer.AFB548FB.obj'
01:0002367C ?annotationSetText@sciLexer_api@@SAXPBUscintillaObject@@HPAD@Z 
01:000236A4 ?annotationGetText@sciLexer_api@@SAXPBUscintillaObject@@HPAD@Z 
01:000236CC ?annotationSetStyle@sciLexer_api@@SAXPBUscintillaObject@@HH@Z 
01:000236F4 ?_annotationGetStyle@sciLexer_api@@SAXPBUscintillaObject@@HPAH@Z 
01:0002371C ?annotationSetStyles@sciLexer_api@@SAXPBUscintillaObject@@HPAD@Z 
01:00023744 ?annotationGetStyles@sciLexer_api@@SAXPBUscintillaObject@@HPAD@Z 
01:0002376C ?_annotationGetLines@sciLexer_api@@SAXPBUscintillaObject@@HPAH@Z 
01:00023794 ?annotationClearAll@sciLexer_api@@SAXPBUscintillaObject@@@Z 
01:000237A8 ?annotationSetVisible@sciLexer_api@@SAXPBUscintillaObject@@H@Z 
01:000237C4 ?_annotationGetVisible@sciLexer_api@@SAXPBUscintillaObject@@PAH@Z 
01:000237E0 ?annotationSetStyleOffset@sciLexer_api@@SAXPBUscintillaObject@@H@Z 
01:000237FC ?_annotationGetStyleOffset@sciLexer_api@@SAXPBUscintillaObject@@PAH@Z 
01:00023818 ?setBufferedDraw@sciLexer_api@@SAXPBUscintillaObject@@PBUbooleanInt@@@Z 
01:00023834 ?_getBufferedDraw@sciLexer_api@@SAXPBUscintillaObject@@AAUbooleanInt@@@Z 
01:00023850 ?setTwoPhaseDraw@sciLexer_api@@SAXPBUscintillaObject@@PBUbooleanInt@@@Z 
01:0002386C ?_getTwoPhaseDraw@sciLexer_api@@SAXPBUscintillaObject@@AAUbooleanInt@@@Z 
01:00023888 ?setTechnology@sciLexer_api@@SAXPBUscintillaObject@@H@Z 
01:000238A4 ?_getTechnology@sciLexer_api@@SAXPBUscintillaObject@@PAH@Z 
01:000238C0 ?setFontQuality@sciLexer_api@@SAXPBUscintillaObject@@H@Z 
01:000238DC ?_getFontQuality@sciLexer_api@@SAXPBUscintillaObject@@PAH@Z 
01:000238F8 ?setCodePage@sciLexer_api@@SAXPBUscintillaObject@@PBUcodePage@@@Z 
01:00023914 ?_getCodePage@sciLexer_api@@SAXPBUscintillaObject@@AAUcodePage@@@Z 
01:00023930 ?setKeysUnicode@sciLexer_api@@SAXPBUscintillaObject@@PBUbooleanInt@@@Z 
01:0002394C ?_getKeysUnicode@sciLexer_api@@SAXPBUscintillaObject@@AAUbooleanInt@@@Z 
01:00023968 ?setWordChars@sciLexer_api@@SAXPBUscintillaObject@@PAD@Z 
01:00023988 ?setWhiteSpaceChars@sciLexer_api@@SAXPBUscintillaObject@@PAD@Z 
01:000239A8 ?setCharsDefault@sciLexer_api@@SAXPBUscintillaObject@@@Z 
01:000239BC ?grabFocus@sciLexer_api@@SAXPBUscintillaObject@@@Z 
01:000239D0 ?setFocus@sciLexer_api@@SAXPBUscintillaObject@@PBUbooleanInt@@@Z 
01:000239EC ?_getFocus@sciLexer_api@@SAXPBUscintillaObject@@AAUbooleanInt@@@Z 
01:00023A08 ?braceHighLight@sciLexer_api@@SAXPBUscintillaObject@@HH@Z 
01:00023A30 ?braceBadLight@sciLexer_api@@SAXPBUscintillaObject@@H@Z 
01:00023A4C ?braceHighlightIndicator@sciLexer_api@@SAXPBUscintillaObject@@PBUbooleanInt@@H@Z 
01:00023A74 ?braceBadlightIndicator@sciLexer_api@@SAXPBUscintillaObject@@PBUbooleanInt@@H@Z 
01:00023A9C ?_braceMatch@sciLexer_api@@SAXPBUscintillaObject@@HHPAH@Z 
01:00023AD0 ?setTabWidth@sciLexer_api@@SAXPBUscintillaObject@@PBUcharCount@@@Z 
01:00023AEC ?_getTabWidth@sciLexer_api@@SAXPBUscintillaObject@@AAUcharCount@@@Z 
01:00023B24 ?setUseTabs@sciLexer_api@@SAXPBUscintillaObject@@PBUbooleanInt@@@Z 
01:00023B40 ?_getUseTabs@sciLexer_api@@SAXPBUscintillaObject@@AAUbooleanInt@@@Z 
01:00023B5C ?setIndent@sciLexer_api@@SAXPBUscintillaObject@@H@Z 
01:00023B78 ?_getIndent@sciLexer_api@@SAXPBUscintillaObject@@PAH@Z 
01:00023B94 ?setTabIndents@sciLexer_api@@SAXPBUscintillaObject@@PBUbooleanInt@@@Z 
01:00023BB0 ?_getTabIndents@sciLexer_api@@SAXPBUscintillaObject@@AAUbooleanInt@@@Z 
01:00023BCC ?setBackSpaceUnIndents@sciLexer_api@@SAXPBUscintillaObject@@PBUbooleanInt@@@Z 
01:00023BE8 ?_getBackSpaceUnIndents@sciLexer_api@@SAXPBUscintillaObject@@AAUbooleanInt@@@Z 
01:00023C04 ?setLineIndentation@sciLexer_api@@SAXPBUscintillaObject@@HPBUlinePosition@@@Z 
01:00023C2C ?_getLineIndentation@sciLexer_api@@SAXPBUscintillaObject@@HAAUlinePosition@@@Z 
01:00023C54 ?_getLineIndentPosition@sciLexer_api@@SAXPBUscintillaObject@@HPAH@Z 
01:00023C7C ?setIndentationGuides@sciLexer_api@@SAXPBUscintillaObject@@H@Z 
01:00023C98 ?_getIndentationGuides@sciLexer_api@@SAXPBUscintillaObject@@PAH@Z 
01:00023CB4 ?setHighLightGuide@sciLexer_api@@SAXPBUscintillaObject@@H@Z 
01:00023CD0 ?_getHighLightGuide@sciLexer_api@@SAXPBUscintillaObject@@PAH@Z 
01:00023CEC ?markerDefine@sciLexer_api@@SAXPBUscintillaObject@@HH@Z 
01:00023D14 ?markerDefinePixmap@sciLexer_api@@SAXPBUscintillaObject@@HPAD@Z 
01:00023D3C ?rgbaImageSetWidth@sciLexer_api@@SAXPBUscintillaObject@@H@Z 
01:00023D58 ?rgbaImageSetHeight@sciLexer_api@@SAXPBUscintillaObject@@H@Z 
01:00023D74 ?markerDefineRgbaImage@sciLexer_api@@SAXPBUscintillaObject@@HPAD@Z 
01:00023D9C ?_markerSymbolDefined@sciLexer_api@@SAXPBUscintillaObject@@HPAH@Z 
01:00023DC4 ?markerSetFore@sciLexer_api@@SAXPBUscintillaObject@@HH@Z 
01:00023DEC ?markerSetBack@sciLexer_api@@SAXPBUscintillaObject@@HH@Z 
01:00023E14 ?markerSetBackSelected@sciLexer_api@@SAXPBUscintillaObject@@HH@Z 
01:00023E3C ?markerEnableHighlight@sciLexer_api@@SAXPBUscintillaObject@@PBUbooleanInt@@@Z 
01:00023E58 ?markerSetAlpha@sciLexer_api@@SAXPBUscintillaObject@@HH@Z 
01:00023E80 ?_markerAdd@sciLexer_api@@SAXPBUscintillaObject@@HHPAH@Z 
01:00023EB4 ?markerAddSet@sciLexer_api@@SAXPBUscintillaObject@@HH@Z 
01:00023EDC ?markerDelete@sciLexer_api@@SAXPBUscintillaObject@@HH@Z 
01:00023F04 ?markerDeleteAll@sciLexer_api@@SAXPBUscintillaObject@@H@Z 
01:00023F20 ?_markerGet@sciLexer_api@@SAXPBUscintillaObject@@HPAH@Z 
01:00023F48 ?_markerNext@sciLexer_api@@SAXPBUscintillaObject@@HHPAH@Z 
01:00023F7C ?_markerPrevious@sciLexer_api@@SAXPBUscintillaObject@@HHPAH@Z 
01:00023FB0 ?_markerLineFromHandle@sciLexer_api@@SAXPBUscintillaObject@@HPAH@Z 
01:00023FD8 ?markerDeleteHandle@sciLexer_api@@SAXPBUscintillaObject@@H@Z 
01:00023FF4 ?indicSetStyle@sciLexer_api@@SAXPBUscintillaObject@@HH@Z 
01:0002401C ?_indicGetStyle@sciLexer_api@@SAXPBUscintillaObject@@HPAH@Z 
01:00024044 ?indicSetFore@sciLexer_api@@SAXPBUscintillaObject@@HH@Z 
01:0002406C ?_indicGetFore@sciLexer_api@@SAXPBUscintillaObject@@HPAH@Z 
01:00024094 ?indicSetAlpha@sciLexer_api@@SAXPBUscintillaObject@@HH@Z 
01:000240BC ?_indicGetAlpha@sciLexer_api@@SAXPBUscintillaObject@@HPAH@Z 
01:000240E4 ?indicSetOutlineAlpha@sciLexer_api@@SAXPBUscintillaObject@@HH@Z 
01:0002410C ?_indicGetOutlineAlpha@sciLexer_api@@SAXPBUscintillaObject@@HPAH@Z 
01:00024134 ?indicSetUnder@sciLexer_api@@SAXPBUscintillaObject@@HPBUbooleanInt@@@Z 
01:0002415C ?indicGetUnder@sciLexer_api@@SAXPBUscintillaObject@@H@Z 
01:00024178 ?setIndicatorCurrent@sciLexer_api@@SAXPBUscintillaObject@@H@Z 
01:00024194 ?_getIndicatorCurrent@sciLexer_api@@SAXPBUscintillaObject@@PAH@Z 
01:000241B0 ?setIndicatorValue@sciLexer_api@@SAXPBUscintillaObject@@H@Z 
01:000241CC ?_getIndicatorValue@sciLexer_api@@SAXPBUscintillaObject@@PAH@Z 
01:000241E8 ?indicatorFillRange@sciLexer_api@@SAXPBUscintillaObject@@HH@Z 
01:00024210 ?indicatorClearRange@sciLexer_api@@SAXPBUscintillaObject@@HH@Z 
01:00024238 ?_indicatorAllOnFor@sciLexer_api@@SAXPBUscintillaObject@@HPAI@Z 
01:00024260 ?indicatorValueAt@sciLexer_api@@SAXPBUscintillaObject@@HH@Z 
01:00024288 ?_indicatorStart@sciLexer_api@@SAXPBUscintillaObject@@HHPAH@Z 
01:000242BC ?_indicatorEnd@sciLexer_api@@SAXPBUscintillaObject@@HHPAH@Z 
01:000242F0 ?autoCShow@sciLexer_api@@SAXPBUscintillaObject@@HPAD@Z 
01:00024318 ?autoCCancel@sciLexer_api@@SAXPBUscintillaObject@@@Z 
01:0002432C ?_autoCActive@sciLexer_api@@SAXPBUscintillaObject@@AAUbooleanInt@@@Z 
01:00024348 ?_autoCPosStart@sciLexer_api@@SAXPBUscintillaObject@@PAH@Z 
01:00024364 ?autoCComplete@sciLexer_api@@SAXPBUscintillaObject@@@Z 
01:00024378 ?autoCSTops@sciLexer_api@@SAXPBUscintillaObject@@PAD@Z 
01:00024398 ?autoCSetSeparator@sciLexer_api@@SAXPBUscintillaObject@@PBUchar8@@@Z 
01:000243B4 ?_autoCGetSeparator@sciLexer_api@@SAXPBUscintillaObject@@AAUchar8@@@Z 
01:000243D0 ?autoCSelect@sciLexer_api@@SAXPBUscintillaObject@@PAD@Z 
01:000243F0 ?_autoCGetCurrent@sciLexer_api@@SAXPBUscintillaObject@@PAH@Z 
01:0002440C ?_autoCGetCurrentText@sciLexer_api@@SAXPBUscintillaObject@@PADPAH@Z 
01:00024438 ?autoCSetCancelAtStart@sciLexer_api@@SAXPBUscintillaObject@@PBUbooleanInt@@@Z 
01:00024454 ?_autoCGetCancelAtStart@sciLexer_api@@SAXPBUscintillaObject@@AAUbooleanInt@@@Z 
01:00024470 ?autoCSetFillups@sciLexer_api@@SAXPBUscintillaObject@@PAD@Z 
01:00024490 ?autoCSetChooseSingle@sciLexer_api@@SAXPBUscintillaObject@@PBUbooleanInt@@@Z 
01:000244AC ?_autoCGetChooseSingle@sciLexer_api@@SAXPBUscintillaObject@@AAUbooleanInt@@@Z 
01:000244C8 ?autoCSetIgnoreCase@sciLexer_api@@SAXPBUscintillaObject@@PBUbooleanInt@@@Z 
01:000244E4 ?_autoCGetIgnoreCase@sciLexer_api@@SAXPBUscintillaObject@@AAUbooleanInt@@@Z 
01:00024500 ?autoCSetCaseInsensitiveBehaviour@sciLexer_api@@SAXPBUscintillaObject@@H@Z 
01:0002451C ?_autoCGetCaseInsensitiveBehaviour@sciLexer_api@@SAXPBUscintillaObject@@PAH@Z 
01:00024538 ?autoCSetAutoHide@sciLexer_api@@SAXPBUscintillaObject@@PBUbooleanInt@@@Z 
01:00024554 ?_autoCGetAutoHide@sciLexer_api@@SAXPBUscintillaObject@@AAUbooleanInt@@@Z 
01:00024570 ?autoCSetDropRestOfWord@sciLexer_api@@SAXPBUscintillaObject@@PBUbooleanInt@@@Z 
01:0002458C ?_autoCGetDropRestOfWord@sciLexer_api@@SAXPBUscintillaObject@@AAUbooleanInt@@@Z 
01:000245A8 ?registerImage@sciLexer_api@@SAXPBUscintillaObject@@HPAD@Z 
01:000245D0 ?registerRgbaImage@sciLexer_api@@SAXPBUscintillaObject@@HPAD@Z 
01:000245F8 ?clearRegisteredImages@sciLexer_api@@SAXPBUscintillaObject@@@Z 
01:0002460C ?autoCSetTypeSeparator@sciLexer_api@@SAXPBUscintillaObject@@PBUchar8@@@Z 
01:00024628 ?_autoCGetTypeSeparator@sciLexer_api@@SAXPBUscintillaObject@@AAUchar8@@@Z 
01:00024644 ?autoCSetMaxHeight@sciLexer_api@@SAXPBUscintillaObject@@H@Z 
01:00024660 ?_autoCGetMaxHeight@sciLexer_api@@SAXPBUscintillaObject@@PAH@Z 
01:0002467C ?autoCSetMaxWidth@sciLexer_api@@SAXPBUscintillaObject@@H@Z 
01:00024698 ?_autoCGetMaxWidth@sciLexer_api@@SAXPBUscintillaObject@@PAH@Z 
01:000246B4 ?userListShow@sciLexer_api@@SAXPBUscintillaObject@@HPAD@Z 
01:000246DC ?calltipShow@sciLexer_api@@SAXPBUscintillaObject@@HPAD@Z 
01:00024704 ?calltipCancel@sciLexer_api@@SAXPBUscintillaObject@@@Z 
01:00024718 ?calltipActive@sciLexer_api@@SAXPBUscintillaObject@@@Z 
01:0002472C ?calltipPosStart@sciLexer_api@@SAXPBUscintillaObject@@@Z 
01:00024740 ?calltipSetHlt@sciLexer_api@@SAXPBUscintillaObject@@HH@Z 
01:00024768 ?calltipSetBack@sciLexer_api@@SAXPBUscintillaObject@@H@Z 
01:00024784 ?calltipSetFore@sciLexer_api@@SAXPBUscintillaObject@@H@Z 
01:000247A0 ?calltipSetForehlt@sciLexer_api@@SAXPBUscintillaObject@@H@Z 
01:000247BC ?calltipUseStyle@sciLexer_api@@SAXPBUscintillaObject@@H@Z 
01:000247D8 ?calltipSetPosition@sciLexer_api@@SAXPBUscintillaObject@@PBUbooleanInt@@@Z 
01:000247F4 ?lineDown@sciLexer_api@@SAXPBUscintillaObject@@@Z 
01:00024808 ?lineDownExtend@sciLexer_api@@SAXPBUscintillaObject@@@Z 
01:0002481C ?lineDownRectExtend@sciLexer_api@@SAXPBUscintillaObject@@@Z 
01:00024830 ?lineScrollDown@sciLexer_api@@SAXPBUscintillaObject@@@Z 
01:00024844 ?lineUp@sciLexer_api@@SAXPBUscintillaObject@@@Z 
01:00024858 ?lineUpExtend@sciLexer_api@@SAXPBUscintillaObject@@@Z 
01:0002486C ?lineUpRectExtend@sciLexer_api@@SAXPBUscintillaObject@@@Z 
01:00024880 ?lineScrollUp@sciLexer_api@@SAXPBUscintillaObject@@@Z 
01:00024894 ?paraDown@sciLexer_api@@SAXPBUscintillaObject@@@Z 
01:000248A8 ?paraDownExtend@sciLexer_api@@SAXPBUscintillaObject@@@Z 
01:000248BC ?paraUp@sciLexer_api@@SAXPBUscintillaObject@@@Z 
01:000248D0 ?paraUpExtend@sciLexer_api@@SAXPBUscintillaObject@@@Z 
01:000248E4 ?charLeft@sciLexer_api@@SAXPBUscintillaObject@@@Z 
01:000248F8 ?charLeftExtend@sciLexer_api@@SAXPBUscintillaObject@@@Z 
01:0002490C ?charLeftRectExtend@sciLexer_api@@SAXPBUscintillaObject@@@Z 
01:00024920 ?charRight@sciLexer_api@@SAXPBUscintillaObject@@@Z 
01:00024934 ?charRightExtend@sciLexer_api@@SAXPBUscintillaObject@@@Z 
01:00024948 ?charRightRectExtend@sciLexer_api@@SAXPBUscintillaObject@@@Z 
01:0002495C ?wordLeft@sciLexer_api@@SAXPBUscintillaObject@@@Z 
01:00024970 ?wordLeftExtend@sciLexer_api@@SAXPBUscintillaObject@@@Z 
01:00024984 ?wordRight@sciLexer_api@@SAXPBUscintillaObject@@@Z 
01:00024998 ?wordRightExtend@sciLexer_api@@SAXPBUscintillaObject@@@Z 
01:000249AC ?wordLeftEnd@sciLexer_api@@SAXPBUscintillaObject@@@Z 
01:000249C0 ?wordLeftEndExtend@sciLexer_api@@SAXPBUscintillaObject@@@Z 
01:000249D4 ?wordRightEnd@sciLexer_api@@SAXPBUscintillaObject@@@Z 
01:000249E8 ?wordRightEndExtend@sciLexer_api@@SAXPBUscintillaObject@@@Z 
01:000249FC ?wordPartLeft@sciLexer_api@@SAXPBUscintillaObject@@@Z 
01:00024A10 ?wordPartLeftExtend@sciLexer_api@@SAXPBUscintillaObject@@@Z 
01:00024A24 ?wordPartRight@sciLexer_api@@SAXPBUscintillaObject@@@Z 
01:00024A38 ?wordPartRightExtend@sciLexer_api@@SAXPBUscintillaObject@@@Z 
01:00024A4C ?home@sciLexer_api@@SAXPBUscintillaObject@@@Z 
01:00024A60 ?homeExtend@sciLexer_api@@SAXPBUscintillaObject@@@Z 
01:00024A74 ?homeRectExtend@sciLexer_api@@SAXPBUscintillaObject@@@Z 
01:00024A88 ?homeDisplay@sciLexer_api@@SAXPBUscintillaObject@@@Z 
01:00024A9C ?homeDisplayExtend@sciLexer_api@@SAXPBUscintillaObject@@@Z 
01:00024AB0 ?homeWrap@sciLexer_api@@SAXPBUscintillaObject@@@Z 
01:00024AC4 ?homeWrapExtend@sciLexer_api@@SAXPBUscintillaObject@@@Z 
01:00024AD8 ?vcHome@sciLexer_api@@SAXPBUscintillaObject@@@Z 
01:00024AEC ?vcHomeExtend@sciLexer_api@@SAXPBUscintillaObject@@@Z 
01:00024B00 ?vcHomeRectExtend@sciLexer_api@@SAXPBUscintillaObject@@@Z 
01:00024B14 ?vcHomeWrap@sciLexer_api@@SAXPBUscintillaObject@@@Z 
01:00024B28 ?vcHomeWrapExtend@sciLexer_api@@SAXPBUscintillaObject@@@Z 
01:00024B3C ?lineEnd@sciLexer_api@@SAXPBUscintillaObject@@@Z 
01:00024B50 ?lineEndExtend@sciLexer_api@@SAXPBUscintillaObject@@@Z 
01:00024B64 ?lineEndRectExtend@sciLexer_api@@SAXPBUscintillaObject@@@Z 
01:00024B78 ?lineEndDisplay@sciLexer_api@@SAXPBUscintillaObject@@@Z 
01:00024B8C ?lineEndDisplayExtend@sciLexer_api@@SAXPBUscintillaObject@@@Z 
01:00024BA0 ?lineEndWrap@sciLexer_api@@SAXPBUscintillaObject@@@Z 
01:00024BB4 ?lineEndWrapExtend@sciLexer_api@@SAXPBUscintillaObject@@@Z 
01:00024BC8 ?documentStart@sciLexer_api@@SAXPBUscintillaObject@@@Z 
01:00024BDC ?documentStartExtend@sciLexer_api@@SAXPBUscintillaObject@@@Z 
01:00024BF0 ?documentEnd@sciLexer_api@@SAXPBUscintillaObject@@@Z 
01:00024C04 ?documentEndExtend@sciLexer_api@@SAXPBUscintillaObject@@@Z 
01:00024C18 ?pageUp@sciLexer_api@@SAXPBUscintillaObject@@@Z 
01:00024C2C ?pageUpExtend@sciLexer_api@@SAXPBUscintillaObject@@@Z 
01:00024C40 ?pageUpRectExtend@sciLexer_api@@SAXPBUscintillaObject@@@Z 
01:00024C54 ?pageDown@sciLexer_api@@SAXPBUscintillaObject@@@Z 
01:00024C68 ?pageDownExtend@sciLexer_api@@SAXPBUscintillaObject@@@Z 
01:00024C7C ?pageDownRectExtend@sciLexer_api@@SAXPBUscintillaObject@@@Z 
01:00024C90 ?stutteredPageUp@sciLexer_api@@SAXPBUscintillaObject@@@Z 
01:00024CA4 ?stutteredPageUpExtend@sciLexer_api@@SAXPBUscintillaObject@@@Z 
01:00024CB8 ?stutteredPageDown@sciLexer_api@@SAXPBUscintillaObject@@@Z 
01:00024CCC ?stutteredPageDownExtend@sciLexer_api@@SAXPBUscintillaObject@@@Z 
01:00024CE0 ?deleteBack@sciLexer_api@@SAXPBUscintillaObject@@@Z 
01:00024CF4 ?deleteBackNotLine@sciLexer_api@@SAXPBUscintillaObject@@@Z 
01:00024D08 ?delWordLeft@sciLexer_api@@SAXPBUscintillaObject@@@Z 
01:00024D1C ?delWordRight@sciLexer_api@@SAXPBUscintillaObject@@@Z 
01:00024D30 ?delWordRightEnd@sciLexer_api@@SAXPBUscintillaObject@@@Z 
01:00024D44 ?delLineLeft@sciLexer_api@@SAXPBUscintillaObject@@@Z 
01:00024D58 ?delLineRight@sciLexer_api@@SAXPBUscintillaObject@@@Z 
01:00024D6C ?lineDelete@sciLexer_api@@SAXPBUscintillaObject@@@Z 
01:00024D80 ?lineCut@sciLexer_api@@SAXPBUscintillaObject@@@Z 
01:00024D94 ?lineCopy@sciLexer_api@@SAXPBUscintillaObject@@@Z 
01:00024DA8 ?lineTranspose@sciLexer_api@@SAXPBUscintillaObject@@@Z 
01:00024DBC ?lineDuplicate@sciLexer_api@@SAXPBUscintillaObject@@@Z 
01:00024DD0 ?lowerCase@sciLexer_api@@SAXPBUscintillaObject@@@Z 
01:00024DE4 ?upperCase@sciLexer_api@@SAXPBUscintillaObject@@@Z 
01:00024DF8 ?cancel@sciLexer_api@@SAXPBUscintillaObject@@@Z 
01:00024E0C ?editToggleOvertype@sciLexer_api@@SAXPBUscintillaObject@@@Z 
01:00024E20 ?newline@sciLexer_api@@SAXPBUscintillaObject@@@Z 
01:00024E34 ?formfeed@sciLexer_api@@SAXPBUscintillaObject@@@Z 
01:00024E48 ?tab@sciLexer_api@@SAXPBUscintillaObject@@@Z 
01:00024E5C ?backTab@sciLexer_api@@SAXPBUscintillaObject@@@Z 
01:00024E70 ?selectionDuplicate@sciLexer_api@@SAXPBUscintillaObject@@@Z 
01:00024E84 ?verticalCentreCaret@sciLexer_api@@SAXPBUscintillaObject@@@Z 
01:00024E98 ?assignCmdKey@sciLexer_api@@SAXPBUscintillaObject@@HH@Z 
01:00024EC0 ?clearCmdKey@sciLexer_api@@SAXPBUscintillaObject@@H@Z 
01:00024EDC ?clearAllCmdKeys@sciLexer_api@@SAXPBUscintillaObject@@@Z 
--- From 'Obj\scilexer_api.849DAF4B.obj'
01:00024EF0 ?nullOp@sciLexer_api@@SAXPBUscintillaObject@@@Z  (Idle)
--- From 'Obj\scilexer.AFB548FB.obj'
01:00024F04 ?usePopup@sciLexer_api@@SAXPBUscintillaObject@@PBUbooleanInt@@@Z 
01:00024F20 ?startRecord@sciLexer_api@@SAXPBUscintillaObject@@@Z 
01:00024F34 ?stopRecord@sciLexer_api@@SAXPBUscintillaObject@@@Z 
01:00024F48 ?formatRange@sciLexer_api@@SAXPBUscintillaObject@@PBUbooleanInt@@PAUsci_rangeToFormat_struct@sciLexer_native@@@Z 
01:00024F70 ?setPrintMagnification@sciLexer_api@@SAXPBUscintillaObject@@H@Z 
01:00024F8C ?_getPrintMagnification@sciLexer_api@@SAXPBUscintillaObject@@PAH@Z 
01:00024FA8 ?setPrintColorMode@sciLexer_api@@SAXPBUscintillaObject@@H@Z 
01:00024FC4 ?_getPrintColorMode@sciLexer_api@@SAXPBUscintillaObject@@PAH@Z 
01:00024FE0 ?setPrintWrapMode@sciLexer_api@@SAXPBUscintillaObject@@H@Z 
01:00024FFC ?_getPrintWrapMode@sciLexer_api@@SAXPBUscintillaObject@@PAH@Z 
--- From 'Obj\scilexer_api.849DAF4B.obj'
01:00025018 ?_getDirectPointer@sciLexer_api@@SAXPBUscintillaObject@@PAPAX@Z  (Idle)
--- From 'Obj\scilexer.AFB548FB.obj'
01:00025034 ?_getCharacterPointer@sciLexer_api@@SAXPBUscintillaObject@@PAPAX@Z 
01:00025050 ?_getRangePointer@sciLexer_api@@SAXPBUscintillaObject@@HHPAPAX@Z 
01:00025084 ?_getGapPosition@sciLexer_api@@SAXPBUscintillaObject@@PAPAX@Z 
01:000250A0 ?_getDocPointer@sciLexer_api@@SAXPBUscintillaObject@@AAUdocument@@@Z 
01:000250BC ?setDocPointer@sciLexer_api@@SAXPBUscintillaObject@@PBUdocument@@@Z 
01:000250DC ?createDocument@sciLexer_api@@SAXPBUscintillaObject@@@Z 
01:000250F0 ?addrefDocument@sciLexer_api@@SAXPBUscintillaObject@@PBUdocument@@@Z 
01:00025110 ?releaseDocument@sciLexer_api@@SAXPBUscintillaObject@@PBUdocument@@@Z 
01:00025130 ?visibleFromDocLine@sciLexer_api@@SAXPBUscintillaObject@@H@Z 
01:0002514C ?docLineFromVisible@sciLexer_api@@SAXPBUscintillaObject@@H@Z 
01:00025168 ?showLines@sciLexer_api@@SAXPBUscintillaObject@@HH@Z 
01:00025190 ?hideLines@sciLexer_api@@SAXPBUscintillaObject@@HH@Z 
01:000251B8 ?_getLineVisible@sciLexer_api@@SAXPBUscintillaObject@@HAAUbooleanInt@@@Z 
01:000251E0 ?_getAllLinesVisible@sciLexer_api@@SAXPBUscintillaObject@@AAUbooleanInt@@@Z 
01:000251FC ?setFoldLevel@sciLexer_api@@SAXPBUscintillaObject@@HH@Z 
01:00025224 ?_getFoldLevel@sciLexer_api@@SAXPBUscintillaObject@@HPAH@Z 
01:0002524C ?setFoldFlags@sciLexer_api@@SAXPBUscintillaObject@@H@Z 
01:00025268 ?_getLastChild@sciLexer_api@@SAXPBUscintillaObject@@HHPAH@Z 
01:0002529C ?_getFoldParent@sciLexer_api@@SAXPBUscintillaObject@@HPAH@Z 
01:000252C4 ?toggleFold@sciLexer_api@@SAXPBUscintillaObject@@H@Z 
01:000252E0 ?setFoldExpanded@sciLexer_api@@SAXPBUscintillaObject@@HPBUbooleanInt@@@Z 
01:00025308 ?_getFoldExpanded@sciLexer_api@@SAXPBUscintillaObject@@HAAUbooleanInt@@@Z 
01:00025330 ?contractedFoldNext@sciLexer_api@@SAXPBUscintillaObject@@H@Z 
01:0002534C ?ensureVisible@sciLexer_api@@SAXPBUscintillaObject@@H@Z 
01:00025368 ?ensureVisibleEnforcePolicy@sciLexer_api@@SAXPBUscintillaObject@@H@Z 
01:00025384 ?setWrapMode@sciLexer_api@@SAXPBUscintillaObject@@H@Z 
01:000253A0 ?_getWrapMode@sciLexer_api@@SAXPBUscintillaObject@@PAH@Z 
01:000253BC ?setWrapVisualFlags@sciLexer_api@@SAXPBUscintillaObject@@H@Z 
01:000253D8 ?_getWrapVisualFlags@sciLexer_api@@SAXPBUscintillaObject@@PAH@Z 
01:000253F4 ?setWrapVisualFlagsLocation@sciLexer_api@@SAXPBUscintillaObject@@H@Z 
01:00025410 ?_getWrapVisualFlagsLocation@sciLexer_api@@SAXPBUscintillaObject@@PAH@Z 
01:0002542C ?setWrapIndentMode@sciLexer_api@@SAXPBUscintillaObject@@H@Z 
01:00025448 ?_getWrapIndentMode@sciLexer_api@@SAXPBUscintillaObject@@PAH@Z 
01:00025464 ?setWrapStartIndent@sciLexer_api@@SAXPBUscintillaObject@@H@Z 
01:00025480 ?_getWrapStartIndent@sciLexer_api@@SAXPBUscintillaObject@@PAH@Z 
01:0002549C ?setLayOutCache@sciLexer_api@@SAXPBUscintillaObject@@H@Z 
01:000254B8 ?_getLayOutCache@sciLexer_api@@SAXPBUscintillaObject@@PAH@Z 
01:000254D4 ?setPositionCache@sciLexer_api@@SAXPBUscintillaObject@@H@Z 
01:000254F0 ?_getPositionCache@sciLexer_api@@SAXPBUscintillaObject@@PAH@Z 
01:0002550C ?linesSplit@sciLexer_api@@SAXPBUscintillaObject@@H@Z 
01:00025528 ?linesJoin@sciLexer_api@@SAXPBUscintillaObject@@@Z 
01:0002553C ?wrapCount@sciLexer_api@@SAXPBUscintillaObject@@H@Z 
01:00025558 ?zoomIn@sciLexer_api@@SAXPBUscintillaObject@@@Z 
01:0002556C ?zoomOut@sciLexer_api@@SAXPBUscintillaObject@@@Z 
01:00025580 ?setZoom@sciLexer_api@@SAXPBUscintillaObject@@H@Z 
01:0002559C ?_getZoom@sciLexer_api@@SAXPBUscintillaObject@@PAH@Z 
01:000255B8 ?setEdgeMode@sciLexer_api@@SAXPBUscintillaObject@@H@Z 
01:000255D4 ?_getEdgeMode@sciLexer_api@@SAXPBUscintillaObject@@PAH@Z 
01:000255F0 ?setEdgeColumn@sciLexer_api@@SAXPBUscintillaObject@@H@Z 
01:0002560C ?_getEdgeColumn@sciLexer_api@@SAXPBUscintillaObject@@PAH@Z 
01:00025628 ?setEdgeColor@sciLexer_api@@SAXPBUscintillaObject@@H@Z 
01:00025644 ?_getEdgeColor@sciLexer_api@@SAXPBUscintillaObject@@PAH@Z 
01:00025660 ?setLexer@sciLexer_api@@SAXPBUscintillaObject@@H@Z 
01:0002567C ?_getLexer@sciLexer_api@@SAXPBUscintillaObject@@PAH@Z 
01:00025698 ?setLexerLanguage@sciLexer_api@@SAXPBUscintillaObject@@PAD@Z 
01:000256B8 ?getLexerLanguage@sciLexer_api@@SAXPBUscintillaObject@@PAD@Z 
01:000256D8 ?loadLexerLibrary@sciLexer_api@@SAXPBUscintillaObject@@PAD@Z 
01:000256F8 ?colorise@sciLexer_api@@SAXPBUscintillaObject@@HH@Z 
01:00025720 ?changeLexerState@sciLexer_api@@SAXPBUscintillaObject@@HH@Z 
01:00025748 ?_propertyNames@sciLexer_api@@SAXPBUscintillaObject@@PADPAH@Z 
01:00025774 ?propertyType@sciLexer_api@@SAXPBUscintillaObject@@PAD@Z 
01:00025790 ?_describeProperty@sciLexer_api@@SAXPBUscintillaObject@@PADPADPAH@Z 
01:000257C4 ?setProperty@sciLexer_api@@SAXPBUscintillaObject@@PADPAD@Z 
01:000257EC ?_getProperty@sciLexer_api@@SAXPBUscintillaObject@@PADPADPAH@Z 
01:00025820 ?_getPropertyExpanded@sciLexer_api@@SAXPBUscintillaObject@@PADPADPAH@Z 
01:00025854 ?_getPropertyInt@sciLexer_api@@SAXPBUscintillaObject@@PADHPAH@Z 
01:00025888 ?setKeyWords@sciLexer_api@@SAXPBUscintillaObject@@HPAD@Z 
01:000258B0 ?describeKeyWordSets@sciLexer_api@@SAXPBUscintillaObject@@PAD@Z 
01:000258D0 ?_getStyleBitsNeeded@sciLexer_api@@SAXPBUscintillaObject@@PAH@Z 
01:000258EC ?setModeventMask@sciLexer_api@@SAXPBUscintillaObject@@H@Z 
01:00025908 ?_getModeventMask@sciLexer_api@@SAXPBUscintillaObject@@PAH@Z 
01:00025924 ?setMouseDwellTime@sciLexer_api@@SAXPBUscintillaObject@@H@Z 
01:00025940 ?_getMouseDwellTime@sciLexer_api@@SAXPBUscintillaObject@@PAH@Z 
--- From 'Obj\scilexer_api.849DAF4B.obj'
01:0002595C ?action@sciLexer_api@@SAXPBUscintillaObject@@I@Z 
01:00025974 rr_v 
01:0002599C rr_p 
01:000259B8 rr_v_v 
01:000259F4 rr_vv_v 
01:00025A44 rr_vv_p 
01:00025A8C rr_vp_v 
01:00025AC8 rr_pv_v 
01:00025B04 rr_pp_v 
01:00025B2C qq_v 
01:00025B58 qq_p 
01:00025B70 qq_vv 
01:00025BB0 qq_vp 
01:00025BDC qq_pp 
--- From 'Obj\controlsupport.CD1DE148.obj'
01:00025C00 ?new@window@@SAXQAV1@@@Z 
--- From 'Obj\gui.41D0084F.obj'
01:00025C18 ?new@window@@SAXQAV1@@0@Z 
01:00025C60 ?_getWindowExtension@window@@SAXQAV1@@PAPAVwindowExtension@@@@Z 
01:00025C84 ?setWindowExtension@window@@SAXQAV1@@QAVwindowExtension@@@@Z 
01:00025CA4 ?show@window@@SAXQAV1@@@Z 
01:00025CBC ?_tryGetVpiWindow@window@@SAXQAV1@@AAUwindowHandle@vpiDomains@@@Z 
01:00025CE0 ?isShown@window@@SAXQAV1@@@Z 
01:00025CF8 ?_getVpiWindow@window@@SAXQAV1@@AAUwindowHandle@vpiDomains@@@Z 
01:00025D30 ?destroy@window@@SAXQAV1@@@Z 
01:00025D8C ?setDestroyed@window@@SAXQAV1@@@Z 
01:00025DC4 ?isDestroying@window@@SAXQAV1@@@Z 
01:00025DF0 ?isDestroyed@window@@SAXQAV1@@@Z 
01:00025E08 ?close@window@@SAXQAV1@@@Z 
01:00025E40 ?whenCreated@window@@SAXQAV1@@X@Z 
01:00025EB4 ?initialize@window@@SAXQAV1@@@Z 
01:00025EDC ?localInitialize@window@@SAXQAV1@@@Z  (Idle)
01:0002604C ?isInitializing@window@@SAXQAV1@@@Z 
01:00026068 ?setSetting@window@@SAXQAV1@@PAUsetting_struct@1@X@Z  (Idle)
01:000260D4 ?_getParent@window@@SAXQAV1@@PAPAV1@@@Z 
01:00026158 ?_tryGetParent@window@@SAXQAV1@@PAPAV1@@@Z  (Idle)
01:000261DC $getParentPath$window_implement$predicate$(i,o)$c$_m15 
01:0002626C ?setParent@window@@SAXQAV1@@0@Z 
01:0002630C ?_getDialogParent@window@@SAXQAV1@@PAPAVdialog@@@@Z 
01:00026374 ?_getText@window@@SAXQAV1@@PAPB_W@Z 
01:00026420 ?anonymous$o0$1$settext/1np$window@1@SAXPAUanonymous$o0$1$settext/1np$windowc_struct@1@@Z 
01:00026454 ?setText@window@@SAXQAV1@@PB_W@Z 
01:00026564 ?_getData@window@@SAXQAV1@@AAUlParam@gui_native@@@Z 
01:0002660C ?anonymous$o0$1$setdata/1np$window@1@SAXPAUanonymous$o0$1$setdata/1np$windowc_struct@1@@Z 
01:00026640 ?setData@window@@SAXQAV1@@PBUlParam@gui_native@@@Z 
01:00026750 ?_getOuterRect@window@@SAXQAV1@@PAPAUrct_struct@vpiDomains@@@Z 
01:0002677C ?getOuterSize@window@@SAXQAV1@@PAHPAH@Z 
01:000267F4 ?setOuterRect@window@@SAXQAV1@@PAUrct_struct@vpiDomains@@@Z 
01:00026860 ?anonymous$o0$1$setclientrect/1np$window@1@SAXPAUanonymous$o0$1$setclientrect/1np$windowc_struct@1@@Z 
01:000268A0 ?setClientRect@window@@SAXQAV1@@PAUrct_struct@vpiDomains@@@Z 
01:000269B0 ?_getClientRect@window@@SAXQAV1@@PAPAUrct_struct@vpiDomains@@@Z 
01:00026B68 ?getClientSize@window@@SAXQAV1@@PAHPAH@Z 
01:00026BCC ?setClientSize@window@@SAXQAV1@@HH@Z 
01:00026C34 ?_adjustRectEx@window@@SAXQAV1@@PAUrct_struct@vpiDomains@@PAPAU34@@Z 
01:00026E24 ?center@window@@SAXQAV1@@@Z 
01:00026E4C ?center@window@@SAXQAV1@@PAUrct_struct@vpiDomains@@@Z 
01:00026E74 ?centerTo@window@@SAXQAV1@@0@Z 
01:00027010 ?_mapPointsTo@window@@SAXQAV1@@0PAU?$__packedList_struct@Upnt@vpiDomains@@@@PAPAU?$__packedList_struct@U45@@@@Z 
01:0002705C ?_mapPointTo@window@@SAXQAV1@@0PAUpnt_struct@vpiDomains@@PAPAU45@@Z 
01:000270A8 ?_mapRectangleTo@window@@SAXQAV1@@0PAUrct_struct@vpidomains@@PAPAU4vpiDomains@@@Z 
01:0002723C ?_mapPointToScreen@window@@SAXQAV1@@PAUpnt_struct@vpiDomains@@PAPAU34@@Z 
01:00027264 ?_mapPointFromScreen@window@@SAXQAV1@@PAUpnt_struct@vpiDomains@@PAPAU34@@Z 
01:0002728C ?anonymous$o0$1$seticon/1np$window@1@SAXPAUanonymous$o0$1$seticon/1np$windowc_struct@1@@Z 
01:000272C0 ?setIcon@window@@SAXQAV1@@PBUresid@vpiDomains@@@Z 
01:000273D0 ?anonymous$o0$1$setfocus/0np$window@1@SAXPAUanonymous$o0$1$setfocus/0np$windowc_struct@1@@Z 
01:00027428 ?setFocus@window@@SAXQAV1@@@Z 
01:00027460 ?anonymous$o0$1$bringtotop/0np$window@1@SAXPAUanonymous$o0$1$bringtotop/0np$windowc_struct@1@@Z 
01:00027490 ?bringToTop@window@@SAXQAV1@@@Z 
01:000274C8 ?anonymous$o0$1$setactive/0np$window@1@SAXPAUanonymous$o0$1$setactive/0np$windowc_struct@1@@Z 
01:00027500 ?setActive@window@@SAXQAV1@@@Z 
01:00027538 ?anonymous$o0$1$forcetotop/0np$window@1@SAXPAUanonymous$o0$1$forcetotop/0np$windowc_struct@1@@Z 
01:00027610 ?forceToTop@window@@SAXQAV1@@@Z 
01:00027648 ?anonymous$o0$1$setfont/1np$window@1@SAXPAUanonymous$o0$1$setfont/1np$windowc_struct@1@@Z 
01:0002767C ?setFont@window@@SAXQAV1@@PBUfont@vpiDomains@@@Z 
01:0002778C ?_getFont@window@@SAXQAV1@@AAUfont@vpiDomains@@@Z 
01:0002784C ?getFontMetrics@window@@SAXQAV1@@AAUpositive@@111@Z 
01:00027ABC ?getFontMetrics@window@@SAXQAV1@@AAUpositive@@11@Z 
01:00027B04 ?invalidate@window@@SAXQAV1@@@Z 
01:00027B44 ?invalidate@window@@SAXQAV1@@PAUrct_struct@vpiDomains@@@Z 
01:00027B88 ?addHandler@window@@SAXQAV1@@X@Z 
01:00027BB0 ?removeHandler@window@@SAXQAV1@@X@Z 
01:00027C74 ?setSubClassHandler@window@@SAXQAV1@@XPAUboolean_struct@_builtIn@@@Z 
01:00027D1C ?attachSpecialHandler@window@@SAXQAV1@@PBUwindowHandle@vpiDomains@@@Z 
01:00027EA8 ?_getOwnPaint@window@@SAXQAV1@@AAUbooleanInt@core@@@Z 
01:00027ED4 ?_subclassEH@window@@SAXQAV1@@PBUwindowHandle@@PAUevent_struct@vpiDomains@@AAUlResult@@@Z 
01:00027F44 ?_sendEvent@window@@SAXQAV1@@PAUevent_struct@vpiDomains@@AAUlResult@gui_native@@@Z 
01:00027F6C ?_sendEvent@window@@SAXQAV1@@PAUevent_struct@vpiDomains@@PAUboolean_struct@_builtIn@@AAUlResult@gui_native@@@Z 
01:00027FB4 ?anonymous$o0$1$postevent/1np$window@1@SAXPAUanonymous$o0$1$postevent/1np$windowc_struct@1@@Z 
01:00027FE8 ?postEvent@window@@SAXQAV1@@PAUevent_struct@vpiDomains@@@Z 
01:00028024 ?postUserEvent@window@@SAXQAV1@@PBUunsignedNative@@H@Z 
01:00028054 ?_getClassName@window@@SAXQAV1@@PAPB_W@Z 
01:00028080 ?_getAttrVal@window@@SAXQAV1@@HPAH@Z 
01:000280A8 $getDialogs$window_implement$predicate$(i,o)$c$_m17 
01:00028104 $getChildWindows$window_implement$predicate$(i,o)$c$_m18 
01:00028160 ?isChild@window@@SAXQAV1@@0@Z 
01:000281A8 ?isChildHWnd@window@@SAXQAV1@@PBUhwnd@@@Z 
01:000281D4 ?isChild@window@@SAXPBUhwnd@@0@Z 
01:00028210 ?addCommand@window@@SAXQAV1@@QAVcommand@@@@Z 
01:00028280 ?removeCommand@window@@SAXQAV1@@QAVcommand@@@@Z 
01:00028324 ?_lookupCommand@window@@SAXQAV1@@PB_WPAPAVcommand@@@@Z 
01:000283A0 ?_tryLookupCommand@window@@SAXQAV1@@PB_WPAPAVcommand@@@@Z 
01:000283E0 ?_getEffectiveCommand_nd@window@@SAXQAV1@@PAPAVcommand@@@@Z 
01:0002841C ?_getCommand_nd@window@@SAXQAV1@@PAPAVcommand@@@@Z 
01:00028468 ?_getNestedCommand_nd@window@@SAXQAV1@@PAPAVcommand@@@@Z 
01:00028514 ?_getParentCommand_nd@window@@SAXQAV1@@PAPAVcommand@@@@Z 
01:00028598 ?menuPopUp@window@@SAXQAV1@@PAUmenu_struct@vpiDomains@@PAUpnt_struct@4@PBUmenuAlign@4@@Z 
01:000285C4 ?anonymous$o0$1$cursorset/1np$window@1@SAXPAUanonymous$o0$1$cursorset/1np$windowc_struct@1@@Z 
01:00028604 ?cursorSet@window@@SAXQAV1@@PBUcursor@vpiDomains@@@Z 
01:00028640 ?cursorSet@window@@SAXQAV1@@PBUcursor@vpiDomains@@PAUboolean_struct@_builtIn@@@Z 
01:00028680 ?cursorSet@window@@SAXQAV1@@PBUhModule@@PBUcursor@vpiDomains@@PAUboolean_struct@_builtIn@@@Z 
01:000286C0 ?_cursorGetPos@window@@SAXQAV1@@PAPAUpnt_struct@vpiDomains@@@Z 
01:000286EC ?_cursorGet@window@@SAXQAV1@@AAUcursor@vpiDomains@@@Z 
01:00028718 ?_checkState@window@@SAXQAV1@@PBUwsflag@vpiDomains@@PAPAUboolean_struct@_builtIn@@@Z  (Idle)
01:00028774 ?isFlagSet@window@@SAXQAV1@@PBUwsflag@vpiDomains@@@Z 
01:0002879C ?_getState@window@@SAXQAV1@@PAPAU?$__packedList_struct@Uwsflag@@@@@Z 
01:0002885C ?setState@window@@SAXQAV1@@PAU?$__packedList_struct@Uwsflag@@@@@Z 
01:00028B34 ?setEnabled@window@@SAXQAV1@@@Z 
01:00028B48 ?setEnabled@window@@SAXQAV1@@PAUboolean_struct@_builtIn@@@Z 
01:00028B74 ?_getEnabled@window@@SAXQAV1@@PAPAUboolean_struct@_builtIn@@@Z 
01:00028B90 ?setVisible@window@@SAXQAV1@@@Z 
01:00028BA4 ?setVisible@window@@SAXQAV1@@PAUboolean_struct@_builtIn@@@Z 
01:00028BD0 ?_getVisible@window@@SAXQAV1@@PAPAUboolean_struct@_builtIn@@@Z 
01:00028BEC ?clearState@window@@SAXQAV1@@PAU?$__packedList_struct@Uwsflag@@@@@Z 
01:00028C24 ?addState@window@@SAXQAV1@@PAU?$__packedList_struct@Uwsflag@vpiDomains@@@@@Z 
01:00028DC0 ?clearStateList@window@@SAXQAV1@@PAU?$__packedList_struct@Uwsflag@vpiDomains@@@@@Z 
01:00028E9C ?_isDynStateFlagTrigger@window@@SAXPBUwsflag@vpiDomains@@PAPAU?$__packedList_struct@U23@@@@Z 
01:00028F84 ?addShowListener@window@@SAXQAV1@@X@Z 
01:00028FAC ?removeShowListener@window@@SAXQAV1@@X@Z 
01:00029074 ?handleShow@window@@SAXQAVwindowExtension@@@QAV1@@PBUlParam@gui_native@@@Z 
01:00029140 ?addDestroyListener@window@@SAXQAV1@@X@Z 
01:00029168 ?removeDestroyListener@window@@SAXQAV1@@X@Z 
01:00029230 ?handleDestroy@window@@SAXQAV1@@0@Z  (Idle)
01:00029318 ?addGetFocusListener@window@@SAXQAV1@@X@Z 
01:00029340 ?removeGetFocusListener@window@@SAXQAV1@@X@Z 
01:00029408 ?handleFocus@window@@SAXQAVwindowExtension@@@QAV1@@@Z 
01:00029488 ?addLoseFocusListener@window@@SAXQAV1@@X@Z 
01:000294B0 ?removeLoseFocusListener@window@@SAXQAV1@@X@Z 
01:00029578 ?handleLoseFocus@window@@SAXQAVwindowExtension@@@QAV1@@@Z 
01:000295F8 ?addSizeListener@window@@SAXQAV1@@X@Z 
01:00029620 ?removeSizeListener@window@@SAXQAV1@@X@Z 
01:000296EC ?handleSize@window@@SAXQAVwindowExtension@@@QAV1@@HH@Z 
01:0002976C ?addMoveListener@window@@SAXQAV1@@X@Z 
01:00029794 ?removeMoveListener@window@@SAXQAV1@@X@Z 
01:00029860 ?handleMove@window@@SAXQAVwindowExtension@@@QAV1@@HH@Z 
01:000298E4 ?_tickAction@window@@SAXQAV1@@PBUpositive@@XAAUtimerHandle@@@Z 
01:00029960 ?timerProc_tick@window@@SGXPBUhwnd@@IPBUunsignedNative@@I@Z 
01:000299FC ?timerKill@window@@SAXQAV1@@PBUtimerHandle@@@Z 
01:00029A3C ?_timerKill_robust@window@@SAXQAV1@@PBUtimerHandle@@AAUhResult@@@Z 
01:00029B18 ?anonymous$o0$1$delaycall2/3np$window@1@SAXPAUanonymous$o0$1$delaycall2/3np$windowc_struct@1@@Z 
01:00029C28 ?delayCall2@window@@SAXQAV1@@QAVrTypeLibrary@TypeLibraries@RunTime@VIP@@PBUpositive@@XPAX@Z  (Idle)
01:00029DF0 ?delayCall@window@@SAXQAV1@@PBUpositive@@X@Z 
01:00029E28 ?anonymous$o0$1$delaycall/3np$window@1@SAXPAUanonymous$o0$1$delaycall/3np$windowc_struct@1@@Z 
01:00029E78 ?delayCall@window@@SAXQAV1@@QAVrTypeLibrary@TypeLibraries@RunTime@VIP@@PBUpositive@@XPAX@Z 
01:00029EC8 ?anonymous$o0$1$timerset/1nf$window@1@SAXPAUanonymous$o0$1$timerset/1nf$windowc_struct@1@@Z 
01:00029F70 ?_timerSet@window@@SAXQAV1@@PBUpositive@@AAUtimerHandle@@@Z 
01:00029FFC ?addTimerListener@window@@SAXQAV1@@X@Z 
01:0002A024 ?removeTimerListener@window@@SAXQAV1@@X@Z 
01:0002A0F0 ?addMenuItemListener@window@@SAXQAV1@@X@Z 
01:0002A118 ?removeMenuItemListener@window@@SAXQAV1@@X@Z 
01:0002A378 ?addMenuItemListener@window@@SAXQAV1@@PBUmenuTag@vpiDomains@@X@Z 
01:0002A3BC ?handleMenuCommand@window@@SAXQAVwindowExtension@@@QAV1@@PBUmenuTag@vpiDomains@@@Z 
01:0002A418 ?_retrieveMenuListener@window@@SAXQAV1@@PBUmenuTag@vpiDomains@@PAX@Z 
01:0002A4C4 ?_getContextMenuResponder@window@@SAXQAV1@@PAX@Z 
01:0002A4DC ?setContextMenuResponder@window@@SAXQAV1@@X@Z 
01:0002A558 ?resetContextMenuResponder@window@@SAXQAV1@@@Z 
01:0002A570 ?_defaultContextMenuResponder@window@@SAXQAV1@@PAUcontextMenuInput_struct@1@PAPAUcontextMenuResponse_struct@1@@Z 
01:0002A584 ?_contextMenuHandler@window@@SAXQAV1@@PBUwindowHandle@@PAUevent_struct@vpiDomains@@AAUlResult@@@Z 
01:0002A60C ?_parse_wm_contextmenu_lparam@window@@SAXPBUwindowHandle@vpiDomains@@PBUlParam@gui_native@@PAPAUcontextMenuInput_struct@1@@Z 
01:0002A6C0 ?setGetNavigationPointsResponder@window@@SAXQAV1@@X@Z 
01:0002A6D4 ?_getGetNavigationPointsResponder@window@@SAXQAV1@@PAX@Z 
01:0002A6EC ?_getNavigationPoints@window@@SAXQAV1@@PAPAU?$__packedList_struct@UnavigationPoint@@@@@Z 
01:0002A718 ?addNativeMessageHandler@window@@SAXQAV1@@X@Z 
01:0002A750 ?removeNativeMessageHandler@window@@SAXQAV1@@X@Z 
01:0002A81C ?anonymous$o0$1$enablehook/0np$window@1@SAXPAUanonymous$o0$1$enablehook/0np$windowc_struct@1@@Z 
01:0002A84C ?enableHook@window@@SAXQAV1@@@Z 
01:0002A884 ?_handleNative@window@@SAXQAVwindowExtension@@@QAV1@@IPBUwParam@gui_native@@PBUlParam@5@PAPAUnativeResponse_struct@1@@Z 
01:0002ABCC ?clearMinimizeSize@window@@SAXQAV1@@@Z 
01:0002ABE0 ?setMinimizeSize@window@@SAXQAV1@@HH@Z 
01:0002AC10 ?tryHandleMinimumSize@window@@SAXQAV1@@PBUlParam@gui_native@@@Z 
01:0002AC94 ?fixMinimumSize@window@@SAXPAXH@Z 
01:0002ACC4 ?handleMouseMove@window@@SAXQAV1@@PBUwparam@gui_native@@PBUlparam@4@@Z 
01:0002ADB8 ?_handleMouseHover@window@@SAXQAV1@@PBUwparam@gui_native@@PBUlparam@4@PAPAUnativeResponse_struct@1@@Z 
01:0002AEF4 ?_handleMouseLeave@window@@SAXQAV1@@PAPAUnativeResponse_struct@1@@Z 
01:0002AF8C ?_tryGetTrackMouseFlag@window@@SAXQAV1@@PAPAUtuple_struct@core@@PAIPAI@Z  (Idle)
01:0002B1A4 ?setTrackMouse@window@@SAXQAV1@@@Z  (Idle)
01:0002B238 ?setMouseHoverListener@window@@SAXQAV1@@X@Z 
01:0002B24C ?setMouseHoverListener@window@@SAXQAV1@@XH@Z 
01:0002B2B0 ?clearMouseHoverListener@window@@SAXQAV1@@@Z 
01:0002B2F4 ?addMouseLeaveListener@window@@SAXQAV1@@X@Z 
01:0002B330 ?removeMouseLeaveListener@window@@SAXQAV1@@X@Z 
01:0002B3D4 ?addMouseEnterListener@window@@SAXQAV1@@X@Z 
01:0002B40C ?removeMouseEnterListener@window@@SAXQAV1@@X@Z 
01:0002B4B0 ?captureMouse@window@@SAXQAV1@@@Z 
01:0002B4D4 ?releaseMouse@window@@SAXQAV1@@@Z 
01:0002B4E4 ?_getMapMode@window@@SAXQAV1@@AAUmapmode@vpiDomains@@@Z 
01:0002B570 ?anonymous$o0$1$setmapmode/1np$window@1@SAXPAUanonymous$o0$1$setmapmode/1np$windowc_struct@1@@Z 
01:0002B59C ?setMapMode@window@@SAXQAV1@@PBUmapmode@vpiDomains@@@Z 
01:0002B6E8 ?getMapScale@window@@SAXQAV1@@PAPAUpnt_struct@vpiDomains@@111@Z 
01:0002B798 ?anonymous$o0$1$setmapscale/4np$window@1@SAXPAUanonymous$o0$1$setmapscale/4np$windowc_struct@1@@Z 
01:0002B7E8 ?setMapScale@window@@SAXQAV1@@PAUpnt_struct@vpiDomains@@111@Z 
01:0002B95C ?_convertLPtoDP@window@@SAXQAV1@@PAU?$__packedList_struct@Upnt@vpiDomains@@@@PAPAU?$__packedList_struct@U34@@@@Z 
01:0002B98C ?_convertDPtoLP@window@@SAXQAV1@@PAU?$__packedList_struct@Upnt@vpiDomains@@@@PAPAU?$__packedList_struct@U34@@@@Z 
01:0002B9BC ?_getClip@window@@SAXQAV1@@PAPAUrct_struct@vpiDomains@@@Z 
01:0002BA48 ?anonymous$o0$1$setclip/1np$window@1@SAXPAUanonymous$o0$1$setclip/1np$windowc_struct@1@@Z 
01:0002BA74 ?setClip@window@@SAXQAV1@@PAUrct_struct@vpiDomains@@@Z 
01:0002BBC0 ?getScrollRange@window@@SAXQAV1@@PBUscrollType@vpiDomains@@PAHPAH@Z 
01:0002BBE8 ?setScrollRange@window@@SAXQAV1@@PBUscrollType@vpiDomains@@HH@Z 
01:0002BCA4 ?_getScrollPos@window@@SAXQAV1@@PBUscrollType@vpiDomains@@PAH@Z 
01:0002BCD0 ?setScrollPos@window@@SAXQAV1@@PBUscrollType@vpiDomains@@H@Z 
01:0002BD6C ?_getScrollProportion@window@@SAXQAV1@@PBUscrollType@vpiDomains@@AAUpositive@@@Z 
01:0002BDAC ?setScrollProportion@window@@SAXQAV1@@PBUscrollType@vpiDomains@@PBUpositive@@@Z 
01:0002BE78 ?scroll@window@@SAXQAV1@@PAUrct_struct@vpiDomains@@HH@Z 
01:0002BF0C ?scroll@window@@SAXQAV1@@PAUrct_struct@vpiDomains@@HHI@Z 
01:0002BF6C ?_getScrollBarInfo@window@@SAXQAV1@@PBUscrollType@vpiDomains@@PAPAUscrollBarInfo_struct@1@@Z 
01:0002C09C ?_getScrollBarObjCode@window@@SAXHPAI@Z 
01:0002C0F4 ?_getScrollInfo@window@@SAXQAV1@@PBUscrollType@vpiDomains@@PAPAUscrollInfo_struct@gui_api@@@Z 
01:0002C1E4 ?addVScrollListener@window@@SAXQAV1@@X@Z 
01:0002C20C ?removeVScrollListener@window@@SAXQAV1@@X@Z 
01:0002C2D8 ?handleVScroll@window@@SAXQAVwindowExtension@@@QAV1@@PBUscrollCode@vpiDomains@@H@Z 
01:0002C360 ?addHScrollListener@window@@SAXQAV1@@X@Z 
01:0002C388 ?removeHScrollListener@window@@SAXQAV1@@X@Z 
01:0002C454 ?handleHScroll@window@@SAXQAVwindowExtension@@@QAV1@@PBUscrollCode@vpiDomains@@H@Z 
01:0002C4DC ?anonymous$o0$1$setcaretsize/2np$window@1@SAXPAUanonymous$o0$1$setcaretsize/2np$windowc_struct@1@@Z 
01:0002C514 ?setCaretSize@window@@SAXQAV1@@PBUpositive@@1@Z 
01:0002C648 ?setCaret@window@@SAXQAV1@@PAUpnt_struct@vpiDomains@@PBUpositive@@2@Z 
01:0002C674 ?anonymous$o0$1$setcaret/1np$window@1@SAXPAUanonymous$o0$1$setcaret/1np$windowc_struct@1@@Z 
01:0002C6A0 ?setCaret@window@@SAXQAV1@@PAUpnt_struct@vpiDomains@@@Z 
01:0002C80C ?hideCaret@window@@SAXQAV1@@@Z 
01:0002C848 ?addMouseDownListener@window@@SAXQAV1@@X@Z 
01:0002C870 ?removeMouseDownListener@window@@SAXQAV1@@X@Z 
01:0002C93C ?handleMouseDown@window@@SAXQAVwindowExtension@@@QAV1@@PAUpnt_struct@vpiDomains@@PBUkeyModifier@5@H@Z 
01:0002C9C8 ?addMouseUpListener@window@@SAXQAV1@@X@Z 
01:0002C9F0 ?removeMouseUpListener@window@@SAXQAV1@@X@Z 
01:0002CABC ?handleMouseUp@window@@SAXQAVwindowExtension@@@QAV1@@PAUpnt_struct@vpiDomains@@PBUkeyModifier@5@H@Z 
01:0002CB48 ?addMouseDblListener@window@@SAXQAV1@@X@Z 
01:0002CB70 ?removeMouseDblListener@window@@SAXQAV1@@X@Z 
01:0002CC3C ?handleMouseDbl@window@@SAXQAVwindowExtension@@@QAV1@@PAUpnt_struct@vpiDomains@@PBUkeyModifier@5@H@Z 
01:0002CCC8 ?addMouseMoveListener@window@@SAXQAV1@@X@Z 
01:0002CCF0 ?removeMouseMoveListener@window@@SAXQAV1@@X@Z 
01:0002CDBC ?handleMouseMove@window@@SAXQAVwindowExtension@@@QAV1@@PAUpnt_struct@vpiDomains@@PBUkeyModifier@5@PAU?$__packedList_struct@Uinteger@@@@@Z 
01:0002CE48 ?_getPaintResponder@window@@SAXQAV1@@PAX@Z 
01:0002CE74 ?setPaintResponder@window@@SAXQAV1@@X@Z 
01:0002CE88 ?resetPaintResponder@window@@SAXQAV1@@@Z 
01:0002CEA0 ?handlePaint@window@@SAXQAVwindowExtension@@@QAV1@@PAUrct_struct@vpiDomains@@QAVwindowGDI@@@@Z 
01:0002CF08 ?_getEraseBackgroundResponder@window@@SAXQAV1@@PAX@Z 
01:0002CF20 ?setEraseBackgroundResponder@window@@SAXQAV1@@X@Z 
01:0002CF34 ?resetEraseBackgroundResponder@window@@SAXQAV1@@@Z 
01:0002CF4C ?_handleEraseBackground@window@@SAXQAV1@@0PAPAUeraseBackgroundResponse_struct@1@@Z  (Idle)
01:0002CF8C ?_defaultEraseBackgroundResponder@window@@SAXQAV1@@QAVwindowGDI@@@PAPAUeraseBackgroundResponse_struct@1@@Z 
01:0002CFA0 ?update@window@@SAXQAV1@@@Z 
01:0002CFDC ?validateRect@window@@SAXQAV1@@PAUrct_struct@vpiDomains@@@Z 
01:0002D004 ?needsUpdate@window@@SAXQAV1@@PAUrct_struct@vpiDomains@@@Z 
01:0002D02C ?_getInvalidRect@window@@SAXQAV1@@PAPAUrct_struct@vpiDomains@@@Z 
01:0002D058 ?_getWindowGDI@window@@SAXQAV1@@PAPAVwindowGDI@@@@Z 
01:0002D080 ?addUserListener@window@@SAXQAV1@@X@Z 
01:0002D0A8 ?removeUserListener@window@@SAXQAV1@@X@Z 
01:0002D174 ?handleUser@window@@SAXQAVwindowExtension@@@QAV1@@PBUunsignedNative@@PBUintegerNative@@@Z 
01:0002D214 ?_getUnusedId@window@@SAXQAV1@@PAH@Z 
01:0002D288 ?postAction@window@@SAXQAV1@@X@Z 
01:0002D2F0 ?onActionEvent@window@@SAXQAV1@@@Z 
01:0002D35C ?postActionQueue@window@@SGQAVmonitorQueue@@@XQAV1@@@Z 
01:0002D484 ?addStateListener@window@@SAXQAV1@@X@Z 
01:0002D4AC ?removeStateListener@window@@SAXQAV1@@X@Z 
01:0002D578 ?handleStateChange@window@@SAXQAVwindowExtension@@@QAV1@@PAUstateInfo_struct@vpiDomains@@@Z 
01:0002D5FC ?_getCharResponder@window@@SAXQAV1@@PAX@Z 
01:0002D614 ?setCharResponder@window@@SAXQAV1@@X@Z 
01:0002D628 ?resetCharResponder@window@@SAXQAV1@@@Z 
01:0002D640 ?_handleChar@window@@SAXQAV1@@0HPBUkeyModifier@vpiDomains@@PAPAUcharResponse_struct@1@@Z  (Idle)
01:0002D67C ?_defaultCharResponder@window@@SAXQAV1@@HPBUkeyModifier@@PAPAUcharResponse_struct@1@@Z 
01:0002D690 ?_getKeyDownResponder@window@@SAXQAV1@@PAX@Z 
01:0002D6A8 ?setKeyDownResponder@window@@SAXQAV1@@X@Z 
01:0002D6BC ?resetKeyDownResponder@window@@SAXQAV1@@@Z 
01:0002D6D4 ?_handleKeyDown@window@@SAXQAV1@@0HPBUkeyModifier@vpiDomains@@PAPAUkeyDownResponse_struct@1@@Z  (Idle)
01:0002D710 ?_defaultKeyDownResponder@window@@SAXQAV1@@HPBUkeyModifier@@PAPAUkeyDownResponse_struct@1@@Z 
01:0002D724 ?_getKeyUpResponder@window@@SAXQAV1@@PAX@Z 
01:0002D73C ?setKeyUpResponder@window@@SAXQAV1@@X@Z 
01:0002D750 ?resetKeyUpResponder@window@@SAXQAV1@@@Z 
01:0002D768 ?_handleKeyUp@window@@SAXQAV1@@0HPBUkeyModifier@vpiDomains@@PAPAUkeyUpResponse_struct@1@@Z  (Idle)
01:0002D7A4 ?_defaultKeyUpResponder@window@@SAXQAV1@@HPBUkeyModifier@@PAPAUkeyUpResponse_struct@1@@Z 
01:0002D7B8 ?_getEventHandler@window@@SAXQAV1@@PAX@Z 
01:0002D800 ?_dispatchAutoHandler@window@@SAXQAV1@@PBUwindowHandle@@PAUevent_struct@vpiDomains@@AAUlResult@@@Z 
01:0002E4A4 ?attachVpiWindow@window@@SAXQAV1@@PBUwindowHandle@vpiDomains@@@Z 
01:0002E58C ?detachVpiWindow@window@@SAXQAV1@@@Z 
01:0002E59C ?_dummyEventHandler@window@@SAXPBUwindowHandle@@PAUevent_struct@vpiDomains@@AAUlResult@@@Z 
01:0002E5A8 ?_eventFormat@window@@SAXPAUevent_struct@vpiDomains@@PAPB_W@Z  (Idle)
01:0002E638 ?_nameOfMessage@window@@SAXIPAPB_W@Z 
01:0002E6B4 ?_tryConvertVPIWin2Window@window@@SAXPBUwindowHandle@vpiDomains@@PAPAV1@@@Z  (Idle)
01:0002E6E0 ?_tryConvertVPIWin2Dialog@window@@SAXPBUwindowHandle@vpiDomains@@PAPAVdialog@@@@Z  (Idle)
01:0002E70C ?wrapVPIWin_internal@window@@SAXQAV1@@PBUwindowHandle@vpiDomains@@@Z 
01:0002E764 ?unwrapVPIWin@window@@SAXQAV1@@@Z 
01:0002E804 ?_unwrap_eventHandler@window@@SAXQAV1@@PAX@Z 
01:0002E850 ?wrapExtendedInfo@window@@SAXQAV1@@PBUwindowHandle@@@Z 
01:0002E8F0 ?setNewHandler@window@@SAXQAV1@@PBUwindowHandle@@X@Z 
01:0002E974 ?checkNotWrapped@window@@SAXPBUwindowHandle@@@Z 
01:0002E9D4 ?_convertVPIWin2Window@window@@SAXPBUwindowHandle@vpiDomains@@PAPAV1@@@Z 
01:0002EAB8 ?saveOldHandler@window@@SAXQAV1@@PBUwindowHandle@vpiDomains@@@Z 
01:0002EBB8 ?_dispatchWrapHandler@window@@SAXQAV1@@PBUwindowHandle@@PAUevent_struct@vpiDomains@@AAUlResult@@@Z 
01:0002EC28 ?_getProcessWindow@window@@SAXPBUprocessHandle@windowsAPI@@PAPAV1@@@Z  (Idle)
--- From 'Obj\controlsupport.CD1DE148.obj'
01:0002EC44 ?_getScreenWindow@window@@SAXPAPAV1@@@Z 
--- From 'Obj\gui.41D0084F.obj'
01:0002ECBC ?_tryGetFocusWindow@window@@SAXPAPAV1@@@Z  (Idle)
01:0002ECEC ?_getActiveWindow@window@@SAXPAPAV1@@@Z  (Idle)
--- From 'Obj\errorpresentationdialog.16250CAB.obj'
01:0002ED10 ?_getDefaultDialogParent@window@@SAXPAPAV1@@@Z 
--- From 'Obj\gui.41D0084F.obj'
01:0002ED5C ?anonymous$o0$1$listenuntildestroy/2np$window@1@SAXPAUanonymous$o0$1$listenuntildestroy/2np$windowc_struct@1@QAV1@@@Z 
01:0002ED84 ?listenUntilDestroy@window@@SAXQAV1@@QAVrTypeLibrary@TypeLibraries@RunTime@VIP@@QAVevent0@@@PAXX@Z 
01:0002EDDC ?setIconFromFile@window@@SAXQAV1@@PB_W@Z 
01:0002EDE4 ?getTextExtent@window@@SAXQAVwindowGDI@@@PB_WAAUpositive@@2@Z 
01:0002EE0C ?getTextExtent@window@@SAXQAVwindowGDI@@@PB_WPBUcharCountOptional@@AAUpositive@@3@Z 
01:0002EE3C ?setBackColor@window@@SAXQAVwindowGDI@@@PBUcolor@@@Z 
01:0002EE64 ?_getBackColor@window@@SAXQAVwindowGDI@@@AAUcolor@@@Z 
01:0002EE94 ?setForeColor@window@@SAXQAVwindowGDI@@@PBUcolor@@@Z 
01:0002EEBC ?_getForeColor@window@@SAXQAVwindowGDI@@@AAUcolor@@@Z 
01:0002EEEC ?setBackMode@window@@SAXQAVwindowGDI@@@PBUbk_mode@@@Z 
01:0002EF14 ?_getBackMode@window@@SAXQAVwindowGDI@@@AAUbk_mode@@@Z 
01:0002EF44 ?_getPen@window@@SAXQAVwindowGDI@@@PAPAUpen_struct@vpiDomains@@@Z 
01:0002EF70 ?setPen@window@@SAXQAVwindowGDI@@@PAUpen_struct@vpiDomains@@@Z 
01:0002EF98 ?_getBrush@window@@SAXQAVwindowGDI@@@PAPAUbrush_struct@vpiDomains@@@Z 
01:0002EFC4 ?setBrush@window@@SAXQAVwindowGDI@@@PAUbrush_struct@vpiDomains@@@Z 
01:0002EFEC ?_getDrawTools@window@@SAXQAVwindowGDI@@@PAPAUdrawtools_struct@vpiDomains@@@Z 
01:0002F018 ?setDrawTools@window@@SAXQAVwindowGDI@@@PAUdrawtools_struct@vpiDomains@@@Z 
01:0002F040 ?clear@window@@SAXQAVwindowGDI@@@PBUcolor@@@Z 
01:0002F068 ?clear@window@@SAXQAVwindowGDI@@@PAUrct_struct@vpiDomains@@PBUcolor@@@Z 
01:0002F094 ?_getDrawMode@window@@SAXQAVwindowGDI@@@AAUdrawMode@@@Z 
01:0002F0C0 ?setDrawMode@window@@SAXQAVwindowGDI@@@PBUdrawMode@@@Z 
01:0002F0E8 ?_getNativeGraphicContext@window@@SAXQAVwindowGDI@@@PAPAUboolean_struct@_builtIn@@AAUhDC@gui_native@@@Z 
01:0002F124 ?releaseNativeGraphicContext@window@@SAXQAVwindowGDI@@@PBUhandle@@PAUboolean_struct@_builtIn@@@Z 
01:0002F164 ?_getPixelColor@window@@SAXQAVwindowGDI@@@PAUpnt_struct@vpiDomains@@AAUcolor@@@Z 
01:0002F194 ?drawTextInRect@window@@SAXQAVwindowGDI@@@PAUrct_struct@vpiDomains@@PB_WPBUcharCountOptional@@PAU?$__packedList_struct@Uinteger@@@@@Z 
01:0002F1C4 ?drawTextInRect@window@@SAXQAVwindowGDI@@@PAUrct_struct@vpiDomains@@PB_WPAU?$__packedList_struct@Uinteger@@@@@Z 
01:0002F1EC ?drawText@window@@SAXQAVwindowGDI@@@PAUpnt_struct@vpiDomains@@PB_WPBUcharCountOptional@@@Z 
01:0002F228 ?drawText@window@@SAXQAVwindowGDI@@@PAUpnt_struct@vpiDomains@@PB_W@Z 
01:0002F278 ?drawRoundRect@window@@SAXQAVwindowGDI@@@PAUrct_struct@vpiDomains@@HH@Z 
01:0002F2A4 ?drawRect@window@@SAXQAVwindowGDI@@@PAUrct_struct@vpiDomains@@@Z 
01:0002F2CC ?drawFocusRect@window@@SAXQAVwindowGDI@@@PAUrct_struct@vpiDomains@@@Z 
01:0002F33C ?drawPolyline@window@@SAXQAVwindowGDI@@@PAU?$__packedList_struct@Upnt@@@@@Z 
01:0002F364 ?drawPolygon@window@@SAXQAVwindowGDI@@@PAU?$__packedList_struct@Upnt@@@@@Z 
01:0002F38C ?drawPixel@window@@SAXQAVwindowGDI@@@PAUpnt_struct@vpiDomains@@PBUcolor@@@Z 
01:0002F3B8 ?drawPie@window@@SAXQAVwindowGDI@@@PAUrct_struct@vpiDomains@@PAUpnt_struct@4@2@Z 
01:0002F400 ?drawLine@window@@SAXQAVwindowGDI@@@PAUpnt_struct@vpiDomains@@1@Z 
01:0002F42C ?drawIcon@window@@SAXQAVwindowGDI@@@PAUpnt_struct@vpiDomains@@PBUresid@@@Z 
01:0002F47C ?drawFloodFill@window@@SAXQAVwindowGDI@@@PAUpnt_struct@vpiDomains@@PBUcolor@@@Z 
01:0002F4A8 ?drawEllipse@window@@SAXQAVwindowGDI@@@PAUrct_struct@vpiDomains@@@Z 
01:0002F4D0 ?drawArc@window@@SAXQAVwindowGDI@@@PAUrct_struct@vpiDomains@@PAUpnt_struct@4@2@Z 
01:0002F518 ?pictDraw@window@@SAXQAVwindowGDI@@@PBUpicture@@PAUpnt_struct@vpiDomains@@PBUrop@@@Z 
01:0002F540 ?pictDraw@window@@SAXQAVwindowGDI@@@PBUpicture@@PAUrct_struct@vpiDomains@@2PBUrop@@@Z 
01:0002F568 ?resetWindowTheme@window@@SAXQAV1@@@Z 
01:0002F57C ?setWindowTheme@window@@SAXQAV1@@PB_W@Z 
01:0002F590 ?anonymous$o0$1$setwindowtheme/2np$window@1@SAXPAUanonymous$o0$1$setwindowtheme/2np$windowc_struct@1@@Z 
01:0002F5DC ?setWindowTheme@window@@SAXQAV1@@PB_W1@Z 
01:0002F620 ?attachNativeCreate@window@@SAXQAV1@@PBUhwnd@@@Z 
01:0002F634 ?attachNativeCreate@window@@SAXQAV1@@PBUhwnd@@PBUlParam@gui_native@@@Z 
01:0002F6DC ?isWindowVisible@window@@SAXQAV1@@@Z 
01:0002F70C ?isWindowEnabled@window@@SAXQAV1@@@Z 
01:0002F73C ?_sendMessage@window@@SAXQAV1@@IAAUlResult@gui_native@@@Z 
01:0002F764 ?_sendMessage@window@@SAXQAV1@@IPBUwParam@gui_native@@AAUlResult@4@@Z 
01:0002F788 ?_sendMessage@window@@SAXQAV1@@IPBUwParam@gui_native@@PBUlParam@4@AAUlResult@4@@Z 
01:0002F7BC ?_new@window@@SAXPAPAV1@@@Z  (Idle)
01:0002F7E4 ?_new@window@@SAXQAV1@@PAPAV1@@@Z  (Idle)
01:0002F80C ?_wrapVPIWin_internal@window@@SAXPBUwindowHandle@vpiDomains@@PAPAV1@@@Z 
01:0002F834 ?anonymous$o1$1$listenuntildestroy/2np$window@1@SAXPAUanonymous$o1$1$listenuntildestroy/2np$windowc_struct@1@QAV1@@@Z 
01:0002F85C ?listenUntilDestroy@window@@SAXQAV1@@QAVrTypeLibrary@TypeLibraries@RunTime@VIP@@1QAVevent1@@@PAXPAXX@Z 
01:0002F8B8 ?anonymous$o2$1$listenuntildestroy/2np$window@1@SAXPAUanonymous$o2$1$listenuntildestroy/2np$windowc_struct@1@QAV1@@@Z 
01:0002F8E0 ?listenUntilDestroy@window@@SAXQAV1@@QAVrTypeLibrary@TypeLibraries@RunTime@VIP@@11QAVevent2@@@PAXPAXPAXX@Z 
01:0002F944 ?anonymous$o3$1$listenuntildestroy/2np$window@1@SAXPAUanonymous$o3$1$listenuntildestroy/2np$windowc_struct@1@QAV1@@@Z 
01:0002F96C ?listenUntilDestroy@window@@SAXQAV1@@QAVrTypeLibrary@TypeLibraries@RunTime@VIP@@111QAVevent3@@@PAXPAXPAXPAXX@Z 
01:0002F9D4 ?anonymous$o4$1$listenuntildestroy/2np$window@1@SAXPAUanonymous$o4$1$listenuntildestroy/2np$windowc_struct@1@QAV1@@@Z 
01:0002F9FC ?listenUntilDestroy@window@@SAXQAV1@@QAVrTypeLibrary@TypeLibraries@RunTime@VIP@@1111QAVevent4@@@PAXPAXPAXPAXPAXX@Z 
01:0002FA6C ?anonymous$o5$1$listenuntildestroy/2np$window@1@SAXPAUanonymous$o5$1$listenuntildestroy/2np$windowc_struct@1@QAV1@@@Z 
01:0002FA94 ?listenUntilDestroy@window@@SAXQAV1@@QAVrTypeLibrary@TypeLibraries@RunTime@VIP@@11111QAVevent5@@@PAXPAXPAXPAXPAXPAXX@Z 
01:0002FB08 ?_class_facts_initializer@window@@SGXXZ 
01:0002FB30 ?_anonymous$o0$1$parse_wm_contextmenu_lparam/2nf$window@1@SAXPAPAU?$__packedList_struct@PAPAPAUnavigationPoint_struct@1@@@@Z 
01:0002FB44 ?_object_facts_initializer@window@@SGXQAV1@@@Z 
01:0002FBBC ?actionUserEventId@window@@SGXPBUunsignedNative@@@Z  (Idle)
01:0002FBC8 ?actionUserEventId@window@@SGPBUunsignedNative@@XZ  (Idle)
01:0002FBD0 ?new@popupWindow@@SAXQAV1@@@Z  (Idle)
01:0002FD48 ?show@popupWindow@@SAXQAVwindow@@@@Z 
01:0002FE6C ?onFrameShow@popupWindow@@SAXQAV1@@QAVwindow@@@PBUlParam@@@Z 
01:00030058 ?onInnerDialogShow@popupWindow@@SAXQAV1@@QAVwindow@@@PBUlParam@@@Z 
01:000300A8 ?onChildDialogMenu@popupWindow@@SAXQAV1@@QAVwindow@@@PBUmenuTag@@@Z 
01:00030144 ?_onFrameNative@popupWindow@@SAXQAV1@@QAVwindow@@@IPBUwParam@@PBUlParam@@PAPAUnativeResponse_struct@3@@Z 
01:00030374 ?_onFrameEraseBackground@popupWindow@@SAXQAVwindow@@@QAVwindowGDI@@@PAPAUeraseBackgroundResponse_struct@2@@Z 
01:00030388 ?onFrameSize@popupWindow@@SAXQAV1@@QAVwindow@@@@Z 
01:000303F4 ?onFrameMove@popupWindow@@SAXQAV1@@QAVwindow@@@@Z 
01:00030400 ?updateUnitRect@popupWindow@@SAXQAV1@@@Z 
01:00030460 ?tryRestoreRect@popupWindow@@SAXQAV1@@@Z 
01:000304AC ?onFrameFocus@popupWindow@@SAXQAV1@@QAVwindow@@@@Z 
01:00030564 ?initFocus@popupWindow@@SAXQAV1@@@Z 
01:0003065C ?setInitFocus@popupWindow@@SAXQAVdialog@@@QAVcontrol@@@@Z 
01:000306B0 ?_tryGetInitFocus@popupWindow@@SAXQAVdialog@@@PAPAVcontrol@@@@Z 
01:000306E8 ?_tryGetInitFocus_inner@popupWindow@@SAXQAV1@@PAPAVcontrol@@@@Z 
01:000307B4 ?restroreDefaultButtonAndFocus@popupWindow@@SAXQAV1@@@Z 
01:000308E4 ?tryClearPreviousDefaultButton@popupWindow@@SAXQAV1@@@Z 
01:000309A0 ?onFrameState@popupWindow@@SAXQAV1@@QAVwindow@@@PAUstateInfo_struct@vpiDomains@@@Z 
01:000309E4 ?setModal@popupWindow@@SAXQAVdialog@@@PAUboolean_struct@_builtIn@@@Z 
01:000309EC ?setRect@popupWindow@@SAXQAVdialog@@@PAUrct_struct@vpiDomains@@@Z 
01:00030A68 ?moveFormWindow@popupWindow@@SAXQAV1@@@Z 
01:00030AF4 ?_getRect@popupWindow@@SAXQAVdialog@@@PAPAUrct_struct@vpiDomains@@@Z 
01:00030B08 ?suspendLayout@popupWindow@@SAXQAVdialog@@@@Z 
01:00030B30 ?resumeLayout@popupWindow@@SAXQAVdialog@@@@Z 
01:00030BAC ?_onInternalDialogClose@popupWindow@@SAXQAV1@@QAVwindow@@@PAPAUcloseResponse_struct@frameDecoration@@@Z 
01:00030BD0 ?defaultMeasureSizeResponder@popupWindow@@SAXQAV1@@0PAHPAH@Z 
01:00030BE8 ?_getRctArea@popupWindow@@SAXPAUrct_struct@vpiDomains@@PAH@Z  (Idle)
01:00030C24 ?getOrientationVector@popupWindow@@SAXPAUorientation_struct@1@PAHPAH@Z  (Idle)
01:00030C7C ?_layoutOrigo@popupWindow@@SAXPAUorigo_struct@1@HHPAPAUrct_struct@vpiDomains@@@Z  (Idle)
01:00030D64 ?_anonymous$o0$1$layout/0np$popupWindow@1@SAXPAUtuple_struct@core@@HPBUpositive@@PAUrct_struct@vpiDomains@@0PAPAUcompareResult_struct@_builtIn@@@Z 
01:00030DEC ?layout@popupWindow@@SAXQAV1@@@Z 
01:00030F88 ?_new@popupWindow@@SAXPAPAV1@@@Z  (Idle)
01:00030FB0 ?_object_facts_initializer@popupWindow@@SGXQAV1@@@Z 
01:00030FE0 ?frameWindow@popupWindow@@SGQAVwindow@@@QAV1@@@Z 
01:00030FEC ?origoList@popupWindow@@SGXQAV1@@PAU?$__packedList_struct@Uorigo@@@@@Z 
01:00030FFC ?origoList@popupWindow@@SGPAU?$__packedList_struct@Uorigo@@@@QAV1@@@Z 
01:00031008 ?measureSizeResponder@popupWindow@@SGXQAV1@@X@Z 
01:00031018 ?measureSizeResponder@popupWindow@@SGXQAV1@@@Z 
01:00031024 ?destroy@popupWindow@@SAXQAVwindow@@@@Z 
01:00031040 ?close@popupWindow@@SAXQAVwindow@@@@Z 
01:0003105C ?_getParent@popupWindow@@SAXQAVwindow@@@PAPAV2@@@Z 
01:00031078 ?setParent@popupWindow@@SAXQAVwindow@@@0@Z 
01:00031094 ?_getText@popupWindow@@SAXQAVwindow@@@PAPB_W@Z 
01:000310B0 ?setText@popupWindow@@SAXQAVwindow@@@PB_W@Z 
01:000310DC ?_getOuterRect@popupWindow@@SAXQAVwindow@@@PAPAUrct_struct@vpiDomains@@@Z 
01:000310F8 ?setOuterRect@popupWindow@@SAXQAVwindow@@@PAUrct_struct@vpiDomains@@@Z 
01:00031114 ?setClientRect@popupWindow@@SAXQAVwindow@@@PAUrct_struct@vpiDomains@@@Z 
01:00031130 ?_getClientRect@popupWindow@@SAXQAVwindow@@@PAPAUrct_struct@vpiDomains@@@Z 
01:0003114C ?center@popupWindow@@SAXQAVwindow@@@@Z 
01:00031168 ?center@popupWindow@@SAXQAVwindow@@@PAUrct_struct@vpiDomains@@@Z 
01:00031184 ?centerTo@popupWindow@@SAXQAVwindow@@@0@Z 
01:000311A4 ?addMoveListener@popupWindow@@SAXQAVwindow@@@X@Z 
01:000311C4 ?removeMoveListener@popupWindow@@SAXQAVwindow@@@X@Z 
01:000311E4 ?setFocus@popupWindow@@SAXQAVwindow@@@@Z 
01:00031210 ?setActive@popupWindow@@SAXQAVwindow@@@@Z 
01:0003122C ?setIcon@popupWindow@@SAXQAVwindow@@@PBUresid@vpiDomains@@@Z 
01:0003124C ?menuPopUp@popupWindow@@SAXQAVwindow@@@PAUmenu_struct@vpiDomains@@PAUpnt_struct@4@PBUmenuAlign@4@@Z 
01:0003126C ?addMenuItemListener@popupWindow@@SAXQAVwindow@@@X@Z 
01:0003128C ?addMenuItemListener@popupWindow@@SAXQAVwindow@@@PBUmenuTag@vpiDomains@@X@Z 
01:000312AC ?removeMenuItemListener@popupWindow@@SAXQAVwindow@@@X@Z 
01:000312CC ?_getState@popupWindow@@SAXQAVwindow@@@PAPAU?$__packedList_struct@Uwsflag@@@@@Z 
01:000312EC ?setState@popupWindow@@SAXQAVwindow@@@PAU?$__packedList_struct@Uwsflag@@@@@Z 
01:0003130C ?setEnabled@popupWindow@@SAXQAVwindow@@@@Z 
01:00031328 ?setEnabled@popupWindow@@SAXQAVwindow@@@PAUboolean_struct@_builtIn@@@Z 
01:00031348 ?_getEnabled@popupWindow@@SAXQAVwindow@@@PAPAUboolean_struct@_builtIn@@@Z 
01:00031368 ?setVisible@popupWindow@@SAXQAVwindow@@@@Z 
01:00031384 ?setVisible@popupWindow@@SAXQAVwindow@@@PAUboolean_struct@_builtIn@@@Z 
01:000313A4 ?_getVisible@popupWindow@@SAXQAVwindow@@@PAPAUboolean_struct@_builtIn@@@Z 
01:000313C4 ?clearState@popupWindow@@SAXQAVwindow@@@PAU?$__packedList_struct@Uwsflag@@@@@Z 
01:000313E4 ?getScrollRange@popupWindow@@SAXQAVwindow@@@PBUscrollType@vpiDomains@@PAHPAH@Z 
01:00031404 ?setScrollRange@popupWindow@@SAXQAVwindow@@@PBUscrollType@vpiDomains@@HH@Z 
01:00031424 ?_getScrollPos@popupWindow@@SAXQAVwindow@@@PBUscrollType@vpiDomains@@PAH@Z 
01:00031444 ?setScrollPos@popupWindow@@SAXQAVwindow@@@PBUscrollType@vpiDomains@@H@Z 
01:00031464 ?_getScrollProportion@popupWindow@@SAXQAVwindow@@@PBUscrollType@vpiDomains@@AAUpositive@@@Z 
01:00031484 ?setScrollProportion@popupWindow@@SAXQAVwindow@@@PBUscrollType@vpiDomains@@PBUpositive@@@Z 
01:000314A4 ?_getScrollBarInfo@popupWindow@@SAXQAVwindow@@@PBUscrollType@vpiDomains@@PAPAUscrollBarInfo_struct@2@@Z 
01:000314C4 ?_getScrollInfo@popupWindow@@SAXQAVwindow@@@PBUscrollType@vpiDomains@@PAPAUscrollInfo_struct@gui_api@@@Z 
01:000314E4 ?addVScrollListener@popupWindow@@SAXQAVwindow@@@X@Z 
01:00031504 ?removeVScrollListener@popupWindow@@SAXQAVwindow@@@X@Z 
01:00031524 ?addHScrollListener@popupWindow@@SAXQAVwindow@@@X@Z 
01:00031544 ?removeHScrollListener@popupWindow@@SAXQAVwindow@@@X@Z 
01:00031564 ?new@pictureCanvas@@SAXQAV1@@@Z  (Idle)
01:00031584 ?new@pictureCanvas@@SAXQAV1@@PBUpositive@@1@Z 
01:00031608 ?_getPicture@pictureCanvas@@SAXQAV1@@AAUpicture@vpiDomains@@@Z 
01:00031660 ?setSize@pictureCanvas@@SAXQAV1@@PBUpositive@@1@Z 
01:00031750 ?getSize@pictureCanvas@@SAXQAV1@@AAUpositive@@1@Z 
01:0003176C ?_getWidth@pictureCanvas@@SAXQAV1@@AAUpositive@@@Z 
01:00031780 ?setWidth@pictureCanvas@@SAXQAV1@@PBUpositive@@@Z 
01:00031798 ?_getHeight@pictureCanvas@@SAXQAV1@@AAUpositive@@@Z 
01:000317AC ?setHeight@pictureCanvas@@SAXQAV1@@PBUpositive@@@Z 
01:000317D0 ?setMapScale@pictureCanvas@@SAXQAV1@@PAUpnt_struct@vpiDomains@@111@Z 
01:00031804 ?getMapScale@pictureCanvas@@SAXQAV1@@PAPAUpnt_struct@vpiDomains@@111@Z 
01:00031838 ?setMapMode@pictureCanvas@@SAXQAV1@@PBUmapmode@@@Z 
01:0003186C ?_getMapMode@pictureCanvas@@SAXQAV1@@AAUmapmode@@@Z 
01:000318A0 ?setClip@pictureCanvas@@SAXQAV1@@PAUrct_struct@vpiDomains@@@Z 
01:000318D4 ?_getClip@pictureCanvas@@SAXQAV1@@PAPAUrct_struct@vpiDomains@@@Z 
01:00031908 ?setFont@pictureCanvas@@SAXQAVwindowGDI@@@PBUfont@@@Z 
01:0003193C ?_getFont@pictureCanvas@@SAXQAVwindowGDI@@@AAUfont@@@Z 
01:00031970 ?_new@pictureCanvas@@SAXPAPAV1@@@Z  (Idle)
01:00031998 ?_new@pictureCanvas@@SAXPBUpositive@@0PAPAV1@@@Z  (Idle)
01:000319C4 ?_object_facts_initializer@pictureCanvas@@SGXQAV1@@@Z 
01:000319DC ?setBackColor@pictureCanvas@@SAXQAVwindowGDI@@@PBUcolor@@@Z 
01:000319F8 ?_getBackColor@pictureCanvas@@SAXQAVwindowGDI@@@AAUcolor@@@Z 
01:00031A14 ?setForeColor@pictureCanvas@@SAXQAVwindowGDI@@@PBUcolor@@@Z 
01:00031A30 ?_getForeColor@pictureCanvas@@SAXQAVwindowGDI@@@AAUcolor@@@Z 
01:00031A4C ?setBackMode@pictureCanvas@@SAXQAVwindowGDI@@@PBUbk_mode@@@Z 
01:00031A68 ?_getBackMode@pictureCanvas@@SAXQAVwindowGDI@@@AAUbk_mode@@@Z 
01:00031A84 ?_getPen@pictureCanvas@@SAXQAVwindowGDI@@@PAPAUpen_struct@vpiDomains@@@Z 
01:00031AA0 ?setPen@pictureCanvas@@SAXQAVwindowGDI@@@PAUpen_struct@vpiDomains@@@Z 
01:00031ABC ?_getBrush@pictureCanvas@@SAXQAVwindowGDI@@@PAPAUbrush_struct@vpiDomains@@@Z 
01:00031AD8 ?setBrush@pictureCanvas@@SAXQAVwindowGDI@@@PAUbrush_struct@vpiDomains@@@Z 
01:00031AF4 ?_getDrawTools@pictureCanvas@@SAXQAVwindowGDI@@@PAPAUdrawtools_struct@vpiDomains@@@Z 
01:00031B10 ?setDrawTools@pictureCanvas@@SAXQAVwindowGDI@@@PAUdrawtools_struct@vpiDomains@@@Z 
01:00031B2C ?clear@pictureCanvas@@SAXQAVwindowGDI@@@PBUcolor@@@Z 
01:00031B48 ?clear@pictureCanvas@@SAXQAVwindowGDI@@@PAUrct_struct@vpiDomains@@PBUcolor@@@Z 
01:00031B64 ?_getDrawMode@pictureCanvas@@SAXQAVwindowGDI@@@AAUdrawMode@@@Z 
01:00031B80 ?setDrawMode@pictureCanvas@@SAXQAVwindowGDI@@@PBUdrawMode@@@Z 
01:00031B9C ?_getNativeGraphicContext@pictureCanvas@@SAXQAVwindowGDI@@@PAPAUboolean_struct@_builtIn@@AAUhDC@gui_native@@@Z 
01:00031BB8 ?releaseNativeGraphicContext@pictureCanvas@@SAXQAVwindowGDI@@@PBUhandle@@PAUboolean_struct@_builtIn@@@Z 
01:00031BD4 ?_getPixelColor@pictureCanvas@@SAXQAVwindowGDI@@@PAUpnt_struct@vpiDomains@@AAUcolor@@@Z 
01:00031BF0 ?getTextExtent@pictureCanvas@@SAXQAVwindowGDI@@@PB_WAAUpositive@@2@Z 
01:00031C0C ?getTextExtent@pictureCanvas@@SAXQAVwindowGDI@@@PB_WPBUcharCountOptional@@AAUpositive@@3@Z 
01:00031C28 ?drawTextInRect@pictureCanvas@@SAXQAVwindowGDI@@@PAUrct_struct@vpiDomains@@PB_WPAU?$__packedList_struct@Uinteger@@@@@Z 
01:00031C44 ?drawTextInRect@pictureCanvas@@SAXQAVwindowGDI@@@PAUrct_struct@vpiDomains@@PB_WPBUcharCountOptional@@PAU?$__packedList_struct@Uinteger@@@@@Z 
01:00031C60 ?drawText@pictureCanvas@@SAXQAVwindowGDI@@@PAUpnt_struct@vpiDomains@@PB_WPBUcharCountOptional@@@Z 
01:00031C7C ?drawText@pictureCanvas@@SAXQAVwindowGDI@@@PAUpnt_struct@vpiDomains@@PB_W@Z 
01:00031C98 ?drawRoundRect@pictureCanvas@@SAXQAVwindowGDI@@@PAUrct_struct@vpiDomains@@HH@Z 
01:00031CB4 ?drawRect@pictureCanvas@@SAXQAVwindowGDI@@@PAUrct_struct@vpiDomains@@@Z 
01:00031CD0 ?drawFocusRect@pictureCanvas@@SAXQAVwindowGDI@@@PAUrct_struct@vpiDomains@@@Z 
01:00031CEC ?drawPolyline@pictureCanvas@@SAXQAVwindowGDI@@@PAU?$__packedList_struct@Upnt@@@@@Z 
01:00031D08 ?drawPolygon@pictureCanvas@@SAXQAVwindowGDI@@@PAU?$__packedList_struct@Upnt@@@@@Z 
01:00031D24 ?drawPixel@pictureCanvas@@SAXQAVwindowGDI@@@PAUpnt_struct@vpiDomains@@PBUcolor@@@Z 
01:00031D40 ?drawPie@pictureCanvas@@SAXQAVwindowGDI@@@PAUrct_struct@vpiDomains@@PAUpnt_struct@4@2@Z 
01:00031D5C ?drawLine@pictureCanvas@@SAXQAVwindowGDI@@@PAUpnt_struct@vpiDomains@@1@Z 
01:00031D7C ?drawIcon@pictureCanvas@@SAXQAVwindowGDI@@@PAUpnt_struct@vpiDomains@@PBUresid@@@Z 
01:00031D9C ?drawFloodFill@pictureCanvas@@SAXQAVwindowGDI@@@PAUpnt_struct@vpiDomains@@PBUcolor@@@Z 
01:00031DBC ?drawEllipse@pictureCanvas@@SAXQAVwindowGDI@@@PAUrct_struct@vpiDomains@@@Z 
01:00031DDC ?drawArc@pictureCanvas@@SAXQAVwindowGDI@@@PAUrct_struct@vpiDomains@@PAUpnt_struct@4@2@Z 
01:00031DFC ?pictDraw@pictureCanvas@@SAXQAVwindowGDI@@@PBUpicture@@PAUpnt_struct@vpiDomains@@PBUrop@@@Z 
01:00031E1C ?pictDraw@pictureCanvas@@SAXQAVwindowGDI@@@PBUpicture@@PAUrct_struct@vpiDomains@@2PBUrop@@@Z 
01:00031E3C ?getFontMetrics@pictureCanvas@@SAXQAVwindowGDI@@@AAUpositive@@111@Z 
01:00031E70 ?getFontMetrics@pictureCanvas@@SAXQAVwindowGDI@@@AAUpositive@@11@Z 
01:00031EA4 ?show@pictureCanvas@@SAXQAVwindow@@@@Z 
01:00031ED0 ?addShowListener@pictureCanvas@@SAXQAVwindow@@@X@Z 
01:00031F00 ?removeShowListener@pictureCanvas@@SAXQAVwindow@@@X@Z 
01:00031F30 ?isShown@pictureCanvas@@SAXQAVwindow@@@@Z 
01:00031F60 ?initialize@pictureCanvas@@SAXQAVwindow@@@@Z 
01:00031F90 ?isInitializing@pictureCanvas@@SAXQAVwindow@@@@Z 
01:00031FC0 ?destroy@pictureCanvas@@SAXQAVwindow@@@@Z 
01:00031FF0 ?isDestroying@pictureCanvas@@SAXQAVwindow@@@@Z 
01:00032020 ?isDestroyed@pictureCanvas@@SAXQAVwindow@@@@Z 
01:00032050 ?addDestroyListener@pictureCanvas@@SAXQAVwindow@@@X@Z 
01:00032080 ?removeDestroyListener@pictureCanvas@@SAXQAVwindow@@@X@Z 
01:000320B0 ?close@pictureCanvas@@SAXQAVwindow@@@@Z 
01:000320E0 ?_getParent@pictureCanvas@@SAXQAVwindow@@@PAPAV2@@@Z 
01:00032110 ?setParent@pictureCanvas@@SAXQAVwindow@@@0@Z 
01:00032140 $getParentPath$pictureCanvas_implement$predicate$(i,o)$c$_m15 
01:00032170 ?_getDialogParent@pictureCanvas@@SAXQAVwindow@@@PAPAVdialog@@@@Z 
01:000321A0 $getDialogs$pictureCanvas_implement$predicate$(i,o)$c$_m17 
01:000321D0 $getChildWindows$pictureCanvas_implement$predicate$(i,o)$c$_m18 
01:00032200 ?isChild@pictureCanvas@@SAXQAVwindow@@@0@Z 
01:00032230 ?isChildHWnd@pictureCanvas@@SAXQAVwindow@@@PBUhwnd@@@Z 
01:00032260 ?_getText@pictureCanvas@@SAXQAVwindow@@@PAPB_W@Z 
01:00032290 ?setText@pictureCanvas@@SAXQAVwindow@@@PB_W@Z 
01:000322C0 ?_getOuterRect@pictureCanvas@@SAXQAVwindow@@@PAPAUrct_struct@vpiDomains@@@Z 
01:000322F0 ?setOuterRect@pictureCanvas@@SAXQAVwindow@@@PAUrct_struct@vpiDomains@@@Z 
01:00032320 ?getOuterSize@pictureCanvas@@SAXQAVwindow@@@PAHPAH@Z 
01:00032350 ?setClientRect@pictureCanvas@@SAXQAVwindow@@@PAUrct_struct@vpiDomains@@@Z 
01:00032380 ?_getClientRect@pictureCanvas@@SAXQAVwindow@@@PAPAUrct_struct@vpiDomains@@@Z 
01:000323B0 ?getClientSize@pictureCanvas@@SAXQAVwindow@@@PAHPAH@Z 
01:000323E0 ?setClientSize@pictureCanvas@@SAXQAVwindow@@@HH@Z 
01:00032410 ?_adjustRectEx@pictureCanvas@@SAXQAVwindow@@@PAUrct_struct@vpiDomains@@PAPAU34@@Z 
01:00032440 ?center@pictureCanvas@@SAXQAVwindow@@@@Z 
01:00032470 ?center@pictureCanvas@@SAXQAVwindow@@@PAUrct_struct@vpiDomains@@@Z 
01:000324A0 ?centerTo@pictureCanvas@@SAXQAVwindow@@@0@Z 
01:000324D4 ?addSizeListener@pictureCanvas@@SAXQAVwindow@@@X@Z 
01:00032508 ?removeSizeListener@pictureCanvas@@SAXQAVwindow@@@X@Z 
01:0003253C ?addMoveListener@pictureCanvas@@SAXQAVwindow@@@X@Z 
01:00032570 ?removeMoveListener@pictureCanvas@@SAXQAVwindow@@@X@Z 
01:000325A4 ?_mapPointsTo@pictureCanvas@@SAXQAVwindow@@@0PAU?$__packedList_struct@Upnt@vpiDomains@@@@PAPAU?$__packedList_struct@U45@@@@Z 
01:000325D8 ?_mapPointTo@pictureCanvas@@SAXQAVwindow@@@0PAUpnt_struct@vpiDomains@@PAPAU45@@Z 
01:0003260C ?_mapRectangleTo@pictureCanvas@@SAXQAVwindow@@@0PAUrct_struct@vpidomains@@PAPAU4vpiDomains@@@Z 
01:00032640 ?_mapPointToScreen@pictureCanvas@@SAXQAVwindow@@@PAUpnt_struct@vpiDomains@@PAPAU34@@Z 
01:00032674 ?_mapPointFromScreen@pictureCanvas@@SAXQAVwindow@@@PAUpnt_struct@vpiDomains@@PAPAU34@@Z 
01:000326A8 ?setFocus@pictureCanvas@@SAXQAVwindow@@@@Z 
01:000326D8 ?addGetFocusListener@pictureCanvas@@SAXQAVwindow@@@X@Z 
01:0003270C ?removeGetFocusListener@pictureCanvas@@SAXQAVwindow@@@X@Z 
01:00032740 ?addLoseFocusListener@pictureCanvas@@SAXQAVwindow@@@X@Z 
01:00032774 ?removeLoseFocusListener@pictureCanvas@@SAXQAVwindow@@@X@Z 
01:000327A8 ?setActive@pictureCanvas@@SAXQAVwindow@@@@Z 
01:000327D8 ?bringToTop@pictureCanvas@@SAXQAVwindow@@@@Z 
01:00032808 ?forceToTop@pictureCanvas@@SAXQAVwindow@@@@Z 
01:00032838 ?setIcon@pictureCanvas@@SAXQAVwindow@@@PBUresid@vpiDomains@@@Z 
01:0003286C ?setIconFromFile@pictureCanvas@@SAXQAVwindow@@@PB_W@Z 
01:000328A0 ?invalidate@pictureCanvas@@SAXQAVwindow@@@@Z 
01:000328D0 ?invalidate@pictureCanvas@@SAXQAVwindow@@@PAUrct_struct@vpiDomains@@@Z 
01:00032904 ?addCommand@pictureCanvas@@SAXQAVwindow@@@QAVcommand@@@@Z 
01:00032938 ?removeCommand@pictureCanvas@@SAXQAVwindow@@@QAVcommand@@@@Z 
01:0003296C ?_lookupCommand@pictureCanvas@@SAXQAVwindow@@@PB_WPAPAVcommand@@@@Z 
01:000329A0 ?_tryLookupCommand@pictureCanvas@@SAXQAVwindow@@@PB_WPAPAVcommand@@@@Z 
01:000329D4 ?_getEffectiveCommand_nd@pictureCanvas@@SAXQAVwindow@@@PAPAVcommand@@@@Z 
01:00032A08 ?_getCommand_nd@pictureCanvas@@SAXQAVwindow@@@PAPAVcommand@@@@Z 
01:00032A3C ?_getNestedCommand_nd@pictureCanvas@@SAXQAVwindow@@@PAPAVcommand@@@@Z 
01:00032A70 ?_getParentCommand_nd@pictureCanvas@@SAXQAVwindow@@@PAPAVcommand@@@@Z 
01:00032AA4 ?menuPopUp@pictureCanvas@@SAXQAVwindow@@@PAUmenu_struct@vpiDomains@@PAUpnt_struct@4@PBUmenuAlign@4@@Z 
01:00032AD8 ?addMenuItemListener@pictureCanvas@@SAXQAVwindow@@@X@Z 
01:00032B0C ?addMenuItemListener@pictureCanvas@@SAXQAVwindow@@@PBUmenuTag@vpiDomains@@X@Z 
01:00032B40 ?removeMenuItemListener@pictureCanvas@@SAXQAVwindow@@@X@Z 
01:00032B74 ?setContextMenuResponder@pictureCanvas@@SAXQAVwindow@@@X@Z 
01:00032BA8 ?_getContextMenuResponder@pictureCanvas@@SAXQAVwindow@@@PAX@Z 
01:00032BDC ?resetContextMenuResponder@pictureCanvas@@SAXQAVwindow@@@@Z 
01:00032C0C ?setGetNavigationPointsResponder@pictureCanvas@@SAXQAVwindow@@@X@Z 
01:00032C40 ?_getGetNavigationPointsResponder@pictureCanvas@@SAXQAVwindow@@@PAX@Z 
01:00032C74 ?_getNavigationPoints@pictureCanvas@@SAXQAVwindow@@@PAPAU?$__packedList_struct@UnavigationPoint@@@@@Z 
01:00032CA8 ?cursorSet@pictureCanvas@@SAXQAVwindow@@@PBUcursor@vpiDomains@@@Z 
01:00032CDC ?cursorSet@pictureCanvas@@SAXQAVwindow@@@PBUcursor@vpiDomains@@PAUboolean_struct@_builtIn@@@Z 
01:00032D10 ?cursorSet@pictureCanvas@@SAXQAVwindow@@@PBUhModule@@PBUcursor@vpiDomains@@PAUboolean_struct@_builtIn@@@Z 
01:00032D44 ?_cursorGetPos@pictureCanvas@@SAXQAVwindow@@@PAPAUpnt_struct@vpiDomains@@@Z 
01:00032D78 ?_cursorGet@pictureCanvas@@SAXQAVwindow@@@AAUcursor@vpiDomains@@@Z 
01:00032DAC ?_getState@pictureCanvas@@SAXQAVwindow@@@PAPAU?$__packedList_struct@Uwsflag@@@@@Z 
01:00032DE0 ?isFlagSet@pictureCanvas@@SAXQAVwindow@@@PBUwsflag@vpiDomains@@@Z 
01:00032E14 ?setState@pictureCanvas@@SAXQAVwindow@@@PAU?$__packedList_struct@Uwsflag@@@@@Z 
01:00032E48 ?setEnabled@pictureCanvas@@SAXQAVwindow@@@@Z 
01:00032E78 ?setEnabled@pictureCanvas@@SAXQAVwindow@@@PAUboolean_struct@_builtIn@@@Z 
01:00032EAC ?_getEnabled@pictureCanvas@@SAXQAVwindow@@@PAPAUboolean_struct@_builtIn@@@Z 
01:00032EE0 ?setVisible@pictureCanvas@@SAXQAVwindow@@@@Z 
01:00032F10 ?setVisible@pictureCanvas@@SAXQAVwindow@@@PAUboolean_struct@_builtIn@@@Z 
01:00032F44 ?_getVisible@pictureCanvas@@SAXQAVwindow@@@PAPAUboolean_struct@_builtIn@@@Z 
01:00032F78 ?clearState@pictureCanvas@@SAXQAVwindow@@@PAU?$__packedList_struct@Uwsflag@@@@@Z 
01:00032FAC ?setMinimizeSize@pictureCanvas@@SAXQAVwindow@@@HH@Z 
01:00032FE0 ?clearMinimizeSize@pictureCanvas@@SAXQAVwindow@@@@Z 
01:00033010 ?setMouseHoverListener@pictureCanvas@@SAXQAVwindow@@@X@Z 
01:00033044 ?setMouseHoverListener@pictureCanvas@@SAXQAVwindow@@@XH@Z 
01:00033078 ?clearMouseHoverListener@pictureCanvas@@SAXQAVwindow@@@@Z 
01:000330A8 ?addMouseLeaveListener@pictureCanvas@@SAXQAVwindow@@@X@Z 
01:000330DC ?removeMouseLeaveListener@pictureCanvas@@SAXQAVwindow@@@X@Z 
01:00033110 ?addMouseEnterListener@pictureCanvas@@SAXQAVwindow@@@X@Z 
01:00033144 ?removeMouseEnterListener@pictureCanvas@@SAXQAVwindow@@@X@Z 
01:00033178 ?captureMouse@pictureCanvas@@SAXQAVwindow@@@@Z 
01:000331A8 ?releaseMouse@pictureCanvas@@SAXQAVwindow@@@@Z 
01:000331D8 ?_convertLPtoDP@pictureCanvas@@SAXQAVwindow@@@PAU?$__packedList_struct@Upnt@vpiDomains@@@@PAPAU?$__packedList_struct@U34@@@@Z 
01:0003320C ?_convertDPtoLP@pictureCanvas@@SAXQAVwindow@@@PAU?$__packedList_struct@Upnt@vpiDomains@@@@PAPAU?$__packedList_struct@U34@@@@Z 
01:00033240 ?getScrollRange@pictureCanvas@@SAXQAVwindow@@@PBUscrollType@vpiDomains@@PAHPAH@Z 
01:00033274 ?setScrollRange@pictureCanvas@@SAXQAVwindow@@@PBUscrollType@vpiDomains@@HH@Z 
01:000332A8 ?_getScrollPos@pictureCanvas@@SAXQAVwindow@@@PBUscrollType@vpiDomains@@PAH@Z 
01:000332DC ?setScrollPos@pictureCanvas@@SAXQAVwindow@@@PBUscrollType@vpiDomains@@H@Z 
01:00033310 ?_getScrollProportion@pictureCanvas@@SAXQAVwindow@@@PBUscrollType@vpiDomains@@AAUpositive@@@Z 
01:00033344 ?setScrollProportion@pictureCanvas@@SAXQAVwindow@@@PBUscrollType@vpiDomains@@PBUpositive@@@Z 
01:00033378 ?scroll@pictureCanvas@@SAXQAVwindow@@@PAUrct_struct@vpiDomains@@HH@Z 
01:000333AC ?scroll@pictureCanvas@@SAXQAVwindow@@@PAUrct_struct@vpiDomains@@HHI@Z 
01:000333E0 ?_getScrollBarInfo@pictureCanvas@@SAXQAVwindow@@@PBUscrollType@vpiDomains@@PAPAUscrollBarInfo_struct@2@@Z 
01:00033414 ?_getScrollInfo@pictureCanvas@@SAXQAVwindow@@@PBUscrollType@vpiDomains@@PAPAUscrollInfo_struct@gui_api@@@Z 
01:00033448 ?addVScrollListener@pictureCanvas@@SAXQAVwindow@@@X@Z 
01:0003347C ?removeVScrollListener@pictureCanvas@@SAXQAVwindow@@@X@Z 
01:000334B0 ?addHScrollListener@pictureCanvas@@SAXQAVwindow@@@X@Z 
01:000334E4 ?removeHScrollListener@pictureCanvas@@SAXQAVwindow@@@X@Z 
01:00033518 ?setCaretSize@pictureCanvas@@SAXQAVwindow@@@PBUpositive@@1@Z 
01:0003354C ?setCaret@pictureCanvas@@SAXQAVwindow@@@PAUpnt_struct@vpiDomains@@PBUpositive@@2@Z 
01:00033580 ?setCaret@pictureCanvas@@SAXQAVwindow@@@PAUpnt_struct@vpiDomains@@@Z 
01:000335B4 ?hideCaret@pictureCanvas@@SAXQAVwindow@@@@Z 
01:000335E4 ?addMouseDownListener@pictureCanvas@@SAXQAVwindow@@@X@Z 
01:00033618 ?removeMouseDownListener@pictureCanvas@@SAXQAVwindow@@@X@Z 
01:0003364C ?addMouseUpListener@pictureCanvas@@SAXQAVwindow@@@X@Z 
01:00033680 ?removeMouseUpListener@pictureCanvas@@SAXQAVwindow@@@X@Z 
01:000336B4 ?addMouseDblListener@pictureCanvas@@SAXQAVwindow@@@X@Z 
01:000336E8 ?removeMouseDblListener@pictureCanvas@@SAXQAVwindow@@@X@Z 
01:0003371C ?addMouseMoveListener@pictureCanvas@@SAXQAVwindow@@@X@Z 
01:00033750 ?removeMouseMoveListener@pictureCanvas@@SAXQAVwindow@@@X@Z 
01:00033784 ?setPaintResponder@pictureCanvas@@SAXQAVwindow@@@X@Z 
01:000337B8 ?_getPaintResponder@pictureCanvas@@SAXQAVwindow@@@PAX@Z 
01:000337EC ?resetPaintResponder@pictureCanvas@@SAXQAVwindow@@@@Z 
01:0003381C ?update@pictureCanvas@@SAXQAVwindow@@@@Z 
01:0003384C ?validateRect@pictureCanvas@@SAXQAVwindow@@@PAUrct_struct@vpiDomains@@@Z 
01:00033880 ?needsUpdate@pictureCanvas@@SAXQAVwindow@@@PAUrct_struct@vpiDomains@@@Z 
01:000338B4 ?_getInvalidRect@pictureCanvas@@SAXQAVwindow@@@PAPAUrct_struct@vpiDomains@@@Z 
01:000338E8 ?setEraseBackgroundResponder@pictureCanvas@@SAXQAVwindow@@@X@Z 
01:0003391C ?_getEraseBackgroundResponder@pictureCanvas@@SAXQAVwindow@@@PAX@Z 
01:00033950 ?resetEraseBackgroundResponder@pictureCanvas@@SAXQAVwindow@@@@Z 
01:00033980 ?_getWindowGDI@pictureCanvas@@SAXQAVwindow@@@PAPAVwindowGDI@@@@Z 
01:000339B4 ?setCharResponder@pictureCanvas@@SAXQAVwindow@@@X@Z 
01:000339E8 ?_getCharResponder@pictureCanvas@@SAXQAVwindow@@@PAX@Z 
01:00033A1C ?resetCharResponder@pictureCanvas@@SAXQAVwindow@@@@Z 
01:00033A4C ?setKeyDownResponder@pictureCanvas@@SAXQAVwindow@@@X@Z 
01:00033A80 ?_getKeyDownResponder@pictureCanvas@@SAXQAVwindow@@@PAX@Z 
01:00033AB4 ?resetKeyDownResponder@pictureCanvas@@SAXQAVwindow@@@@Z 
01:00033AE4 ?setKeyUpResponder@pictureCanvas@@SAXQAVwindow@@@X@Z 
01:00033B18 ?_getKeyUpResponder@pictureCanvas@@SAXQAVwindow@@@PAX@Z 
01:00033B4C ?resetKeyUpResponder@pictureCanvas@@SAXQAVwindow@@@@Z 
01:00033B7C ?_tickAction@pictureCanvas@@SAXQAVwindow@@@PBUpositive@@XAAUtimerHandle@@@Z 
01:00033BB0 ?_timerSet@pictureCanvas@@SAXQAVwindow@@@PBUpositive@@AAUtimerHandle@@@Z 
01:00033BE4 ?timerKill@pictureCanvas@@SAXQAVwindow@@@PBUtimerHandle@@@Z 
01:00033C18 ?addTimerListener@pictureCanvas@@SAXQAVwindow@@@X@Z 
01:00033C4C ?removeTimerListener@pictureCanvas@@SAXQAVwindow@@@X@Z 
01:00033C80 ?delayCall@pictureCanvas@@SAXQAVwindow@@@PBUpositive@@X@Z 
01:00033CB4 ?delayCall@pictureCanvas@@SAXQAVwindow@@@QAVrTypeLibrary@TypeLibraries@RunTime@VIP@@PBUpositive@@XPAX@Z 
01:00033CE8 ?addNativeMessageHandler@pictureCanvas@@SAXQAVwindow@@@X@Z 
01:00033D1C ?removeNativeMessageHandler@pictureCanvas@@SAXQAVwindow@@@X@Z 
01:00033D50 ?addUserListener@pictureCanvas@@SAXQAVwindow@@@X@Z 
01:00033D84 ?removeUserListener@pictureCanvas@@SAXQAVwindow@@@X@Z 
01:00033DB8 ?_getUnusedId@pictureCanvas@@SAXQAVwindow@@@PAH@Z 
01:00033DEC ?postAction@pictureCanvas@@SAXQAVwindow@@@X@Z 
01:00033E20 ?addStateListener@pictureCanvas@@SAXQAVwindow@@@X@Z 
01:00033E54 ?removeStateListener@pictureCanvas@@SAXQAVwindow@@@X@Z 
01:00033E88 ?_tryGetVpiWindow@pictureCanvas@@SAXQAVwindow@@@AAUwindowHandle@vpiDomains@@@Z 
01:00033EBC ?_getVpiWindow@pictureCanvas@@SAXQAVwindow@@@AAUwindowHandle@vpiDomains@@@Z 
01:00033EF0 ?_getData@pictureCanvas@@SAXQAVwindow@@@AAUlParam@gui_native@@@Z 
01:00033F24 ?setData@pictureCanvas@@SAXQAVwindow@@@PBUlParam@gui_native@@@Z 
01:00033F58 ?_getClassName@pictureCanvas@@SAXQAVwindow@@@PAPB_W@Z 
01:00033F8C ?_getAttrVal@pictureCanvas@@SAXQAVwindow@@@HPAH@Z 
01:00033FC0 ?addHandler@pictureCanvas@@SAXQAVwindow@@@X@Z 
01:00033FF4 ?removeHandler@pictureCanvas@@SAXQAVwindow@@@X@Z 
01:00034028 ?setSubClassHandler@pictureCanvas@@SAXQAVwindow@@@XPAUboolean_struct@_builtIn@@@Z 
01:0003405C ?_sendEvent@pictureCanvas@@SAXQAVwindow@@@PAUevent_struct@vpiDomains@@AAUlResult@gui_native@@@Z 
01:00034090 ?_sendEvent@pictureCanvas@@SAXQAVwindow@@@PAUevent_struct@vpiDomains@@PAUboolean_struct@_builtIn@@AAUlResult@gui_native@@@Z 
01:000340C4 ?postEvent@pictureCanvas@@SAXQAVwindow@@@PAUevent_struct@vpiDomains@@@Z 
01:000340F8 ?postUserEvent@pictureCanvas@@SAXQAVwindow@@@PBUunsignedNative@@H@Z 
01:0003412C ?_getEventHandler@pictureCanvas@@SAXQAVwindow@@@PAX@Z 
01:00034160 ?unwrapVPIWin@pictureCanvas@@SAXQAVwindow@@@@Z 
01:00034190 ?_getWindowExtension@pictureCanvas@@SAXQAVwindow@@@PAPAVwindowExtension@@@@Z 
01:000341C4 ?setWindowExtension@pictureCanvas@@SAXQAVwindow@@@QAVwindowExtension@@@@Z 
01:000341F8 ?whenCreated@pictureCanvas@@SAXQAVwindow@@@X@Z 
01:0003422C ?listenUntilDestroy@pictureCanvas@@SAXQAVwindow@@@QAVrTypeLibrary@TypeLibraries@RunTime@VIP@@QAVevent0@@@PAXX@Z 
01:0003426C ?listenUntilDestroy@pictureCanvas@@SAXQAVwindow@@@QAVrTypeLibrary@TypeLibraries@RunTime@VIP@@1QAVevent1@@@PAXPAXX@Z 
01:000342AC ?listenUntilDestroy@pictureCanvas@@SAXQAVwindow@@@QAVrTypeLibrary@TypeLibraries@RunTime@VIP@@11QAVevent2@@@PAXPAXPAXX@Z 
01:000342EC ?listenUntilDestroy@pictureCanvas@@SAXQAVwindow@@@QAVrTypeLibrary@TypeLibraries@RunTime@VIP@@111QAVevent3@@@PAXPAXPAXPAXX@Z 
01:0003432C ?listenUntilDestroy@pictureCanvas@@SAXQAVwindow@@@QAVrTypeLibrary@TypeLibraries@RunTime@VIP@@1111QAVevent4@@@PAXPAXPAXPAXPAXX@Z 
01:0003436C ?listenUntilDestroy@pictureCanvas@@SAXQAVwindow@@@QAVrTypeLibrary@TypeLibraries@RunTime@VIP@@11111QAVevent5@@@PAXPAXPAXPAXPAXPAXX@Z 
01:000343AC ?attachNativeCreate@pictureCanvas@@SAXQAVwindow@@@PBUhwnd@@@Z 
01:000343E0 ?attachNativeCreate@pictureCanvas@@SAXQAVwindow@@@PBUhwnd@@PBUlParam@gui_native@@@Z 
01:00034414 ?setWindowTheme@pictureCanvas@@SAXQAVwindow@@@PB_W@Z 
01:00034448 ?setWindowTheme@pictureCanvas@@SAXQAVwindow@@@PB_W1@Z 
01:0003447C ?resetWindowTheme@pictureCanvas@@SAXQAVwindow@@@@Z 
01:000344AC ?_sendMessage@pictureCanvas@@SAXQAVwindow@@@IAAUlResult@gui_native@@@Z 
01:000344E0 ?_sendMessage@pictureCanvas@@SAXQAVwindow@@@IPBUwParam@gui_native@@AAUlResult@4@@Z 
01:00034514 ?_sendMessage@pictureCanvas@@SAXQAVwindow@@@IPBUwParam@gui_native@@PBUlParam@4@AAUlResult@4@@Z 
01:00034548 ?isWindowVisible@pictureCanvas@@SAXQAVwindow@@@@Z 
01:00034578 ?isWindowEnabled@pictureCanvas@@SAXQAVwindow@@@@Z 
01:000345A8 ?raise_noWindowException_explicit@gui_exception@@SAXPAUprogramPoint_struct@core@@@Z 
01:000345C4 ?raise_initializeException_explicit@gui_exception@@SAXPAUprogramPoint_struct@core@@@Z 
01:000345E0 ?raise_twiceAttachException_explicit@gui_exception@@SAXPAUprogramPoint_struct@core@@@Z 
01:000345FC ?raise_removeHandlerException_explicit@gui_exception@@SAXPAUprogramPoint_struct@core@@@Z 
01:00034618 ?raise_clearStateException_explicit@gui_exception@@SAXPAUprogramPoint_struct@core@@@Z 
01:00034634 ?raise_showAfterDestroyException_explicit@gui_exception@@SAXPAUprogramPoint_struct@core@@@Z 
01:00034650 ?raise_windowIsWrappedException_explicit@gui_exception@@SAXPAUprogramPoint_struct@core@@PBUwindowHandle@vpiDomains@@@Z 
01:000346C4 ?raise_windowCannotBeWrappedException_explicit@gui_exception@@SAXPAUprogramPoint_struct@core@@PBUwindowHandle@vpiDomains@@@Z  (Idle)
--- From 'Obj\controlsupport.CD1DE148.obj'
01:00034738 ?raise_unableToSetPropertyException_explicit@gui_exception@@SAXPAUprogramPoint_struct@core@@PB_W@Z 
--- From 'Obj\gui.41D0084F.obj'
01:000347AC ?raise_objectAlreadyExistsException_explicit@gui_exception@@SAXPAUprogramPoint_struct@core@@@Z  (Idle)
01:000347C8 ?raise_wrongButtonException_explicit@gui_exception@@SAXPAUprogramPoint_struct@core@@QAVbutton@@@@Z  (Idle)
01:0003484C ?raise_tryGetInitFocusAfterShowException_explicit@gui_exception@@SAXPAUprogramPoint_struct@core@@@Z 
01:00034868 ?raise_couldNotSetParentException_explicit@gui_exception@@SAXPAUprogramPoint_struct@core@@@Z  (Idle)
01:00034884 ?new@frameDecoration@@SAXQAV1@@QAVwindow@@@@Z 
01:000348E0 ?_anonymous$o0$1$setdecoration/1np$frameDecoration@1@SAXPAUanonymous$o0$1$setdecoration/1np$frameDecorationc_struct@1@PAUdecorationButton_struct@1@AAUwsflag@vpiDomains@@@Z 
01:00034934 ?setDecoration@frameDecoration@@SAXQAV1@@PAUdecoration_struct@1@@Z 
01:00034B3C ?button_state@frameDecoration@@SAXQAV1@@PAUdecorationButton_struct@1@AAUwsflag@vpiDomains@@PAX@Z 
01:00034BC4 ?addHelpButton@frameDecoration@@SAXQAV1@@@Z 
01:00034C38 ?_getDecoration@frameDecoration@@SAXQAV1@@PAPAUdecoration_struct@1@@Z 
01:00034C88 ?_anonymous$o0$1$getdecoration/1nf$frameDecoration@1@SAXPAUanonymous$o0$1$getdecoration/1nf$frameDecorationc_struct@1@PBUwsflag@@PAPAUdecorationButton_struct@1@@Z 
01:00034CB4 ?_getDecoration@frameDecoration@@SAXQAV1@@PAU?$__packedList_struct@Uwsflag@@@@PAPAUdecoration_struct@1@@Z 
01:00034D90 ?setBorder@frameDecoration@@SAXQAV1@@PAUborder_struct@1@@Z 
01:00034E60 ?_getBorder@frameDecoration@@SAXQAV1@@PAPAUborder_struct@1@@Z 
01:00034ED8 ?border_state@frameDecoration@@SAXPAUborder_struct@1@AAUwsflag@vpiDomains@@@Z 
01:00034F14 ?_onNative@frameDecoration@@SAXQAV1@@QAVwindow@@@IPBUwParam@@PBUlParam@@PAPAUnativeResponse_struct@3@@Z 
01:000350C0 ?_defaultCloseResponder@frameDecoration@@SAXQAVwindow@@@PAPAUcloseResponse_struct@1@@Z 
01:000350D4 ?setCloseResponder@frameDecoration@@SAXQAV1@@X@Z 
01:000350E8 ?_getCloseResponder@frameDecoration@@SAXQAV1@@PAX@Z 
01:000350FC ?resetCloseResponder@frameDecoration@@SAXQAV1@@@Z 
01:00035110 ?anonymous$o0$1$contexthelpid/1np$frameDecoration@1@SAXPAUanonymous$o0$1$contexthelpid/1np$frameDecorationc_struct@1@@Z 
01:00035160 ?contextHelpId@frameDecoration@@SGXQAV1@@I@Z 
01:000351D0 ?contextHelpId@frameDecoration@@SGIQAV1@@@Z 
01:00035218 ?_new@frameDecoration@@SAXQAVwindow@@@PAPAV1@@@Z  (Idle)
01:00035240 ?button_state@frameDecoration@@SAXQAV1@@PAPAUdecorationButton_struct@1@PBUwsflag@vpiDomains@@PAX@Z 
01:000352E4 ?border_state@frameDecoration@@SAXPAPAUborder_struct@1@PBUwsflag@vpiDomains@@@Z 
01:00035338 ?_anonymous$o0$1$border_state/2np$frameDecoration@1@SAXQAV1@@IPAPAUboolean_struct@_builtIn@@@Z 
01:0003534C ?_object_facts_initializer@frameDecoration@@SGXQAV1@@@Z 
01:00035370 ?helpResponder@frameDecoration@@SGXQAV1@@X@Z 
01:00035380 ?helpResponder@frameDecoration@@SGXQAV1@@@Z 
01:0003538C ?anonymous$o0$1$handleactivate/1np$formWindow@1@SAXPAUanonymous$o0$1$handleactivate/1np$formWindowc_struct@1@@Z 
01:000353CC ?handleActivate@formWindow@@SAXQAVdocumentWindowExtension@@@QAVdocumentWindow@@@@Z 
01:00035408 ?new@formWindow@@SAXQAV1@@@Z  (Idle)
--- From 'Obj\messagecontrol.383256BA.obj'
01:000356A4 ?new@formWindow@@SAXQAV1@@QAVwindow@@@@Z 
--- From 'Obj\gui.41D0084F.obj'
01:000356C0 ?isMaximizable@formWindow@@SAXQAV1@@@Z  (Idle)
01:0003574C ?show@formWindow@@SAXQAVwindow@@@@Z 
01:00035830 ?onFrameShow@formWindow@@SAXQAV1@@QAVwindow@@@PBUlParam@@@Z 
01:000358A0 ?createDialog@formWindow@@SAXQAV1@@@Z 
01:00035B14 ?setRectIfRestored@formWindow@@SAXQAV1@@@Z 
01:00035BAC ?_getInitRect@formWindow@@SAXQAV1@@PAPAUrct_struct@vpiDomains@@@Z 
01:00035F10 ?onInnerDialogShow@formWindow@@SAXQAV1@@QAVwindow@@@PBUlParam@@@Z 
01:00035F60 ?onChildDialogMenu@formWindow@@SAXQAV1@@QAVwindow@@@PBUmenuTag@@@Z 
01:0003601C ?_onFrameNative@formWindow@@SAXQAV1@@QAVwindow@@@IPBUwParam@@PBUlParam@@PAPAUnativeResponse_struct@3@@Z 
01:000362A8 ?_onFrameEraseBackground@formWindow@@SAXQAVwindow@@@QAVwindowGDI@@@PAPAUeraseBackgroundResponse_struct@2@@Z 
01:000362BC ?onFrameSize@formWindow@@SAXQAV1@@QAVwindow@@@@Z 
01:00036328 ?onFrameMove@formWindow@@SAXQAV1@@QAVwindow@@@@Z 
01:00036334 ?updateUnitRect@formWindow@@SAXQAV1@@@Z 
01:00036394 ?tryRestoreRect@formWindow@@SAXQAV1@@@Z 
01:000363E0 ?onFrameFocus@formWindow@@SAXQAV1@@QAVwindow@@@@Z 
01:000364A4 ?initFocus@formWindow@@SAXQAV1@@@Z 
01:000365A0 ?setInitFocus@formWindow@@SAXQAVdialog@@@QAVcontrol@@@@Z 
01:000365F4 ?_tryGetInitFocus@formWindow@@SAXQAVdialog@@@PAPAVcontrol@@@@Z 
01:0003662C ?_tryGetInitFocus_inner@formWindow@@SAXQAV1@@PAPAVcontrol@@@@Z 
01:000366F8 ?restoreDefaultButtonAndFocus@formWindow@@SAXQAV1@@@Z 
01:00036828 ?tryClearPreviousDefaultButton@formWindow@@SAXQAV1@@@Z 
01:000368E4 ?onFrameState@formWindow@@SAXQAV1@@QAVwindow@@@PAUstateInfo_struct@vpiDomains@@@Z 
01:00036928 ?setModal@formWindow@@SAXQAVdialog@@@PAUboolean_struct@_builtIn@@@Z 
01:00036930 ?setRect@formWindow@@SAXQAVdialog@@@PAUrct_struct@vpiDomains@@@Z 
01:000369B0 ?moveFormWindow@formWindow@@SAXQAV1@@@Z 
01:00036A3C ?_getRect@formWindow@@SAXQAVdialog@@@PAPAUrct_struct@vpiDomains@@@Z 
01:00036A50 ?suspendLayout@formWindow@@SAXQAVdialog@@@@Z 
01:00036A78 ?resumeLayout@formWindow@@SAXQAVdialog@@@@Z 
01:00036AF4 ?setCloseResponder@formWindow@@SAXQAVframeDecoration@@@X@Z 
01:00036B88 ?_onInternalDialogClose@formWindow@@SAXQAV1@@QAVwindow@@@PAPAUcloseResponse_struct@frameDecoration@@@Z 
01:00036BBC ?_emulateExtension@formWindow@@SAXQAV1@@PBUwindowHandle@@PAUevent_struct@vpiDomains@@AAUlResult@@@Z 
01:00036C54 ?assertInstance@formWindow@@SAXQAV1@@@Z 
01:00036C98 ?cleanupInstances@formWindow@@SAXXZ 
01:00036E04 ?_getShown_nd@formWindow@@SAXPAPAV1@@@Z  (Idle)
01:00036EF0 ?run@formWindow@@SAXX@Z  (Idle)
01:00036F7C ?_new@formWindow@@SAXPAPAV1@@@Z  (Idle)
01:00036FA4 ?_new@formWindow@@SAXQAVwindow@@@PAPAV1@@@Z 
01:00036FCC ?_object_facts_initializer@formWindow@@SGXQAV1@@@Z 
01:00036FF8 ?frameWindow@formWindow@@SGQAVdocumentWindow@@@QAV1@@@Z 
01:00037014 ?destroy@formWindow@@SAXQAVwindow@@@@Z 
01:00037040 ?addDestroyListener@formWindow@@SAXQAVwindow@@@X@Z 
01:0003706C ?removeDestroyListener@formWindow@@SAXQAVwindow@@@X@Z 
01:00037098 ?close@formWindow@@SAXQAVwindow@@@@Z 
01:000370C4 ?_getParent@formWindow@@SAXQAVwindow@@@PAPAV2@@@Z 
01:000370F0 ?setParent@formWindow@@SAXQAVwindow@@@0@Z 
01:0003711C ?_getText@formWindow@@SAXQAVwindow@@@PAPB_W@Z 
01:00037148 ?setText@formWindow@@SAXQAVwindow@@@PB_W@Z 
01:00037174 ?_getOuterRect@formWindow@@SAXQAVwindow@@@PAPAUrct_struct@vpiDomains@@@Z 
01:000371A0 ?setOuterRect@formWindow@@SAXQAVwindow@@@PAUrct_struct@vpiDomains@@@Z 
01:000371CC ?setClientRect@formWindow@@SAXQAVwindow@@@PAUrct_struct@vpiDomains@@@Z 
01:000371F8 ?_getClientRect@formWindow@@SAXQAVwindow@@@PAPAUrct_struct@vpiDomains@@@Z 
01:00037224 ?center@formWindow@@SAXQAVwindow@@@@Z 
01:00037250 ?center@formWindow@@SAXQAVwindow@@@PAUrct_struct@vpiDomains@@@Z 
01:0003727C ?centerTo@formWindow@@SAXQAVwindow@@@0@Z 
01:000372AC ?addMoveListener@formWindow@@SAXQAVwindow@@@X@Z 
01:000372DC ?removeMoveListener@formWindow@@SAXQAVwindow@@@X@Z 
01:0003730C ?setFocus@formWindow@@SAXQAVwindow@@@@Z 
01:00037338 ?setActive@formWindow@@SAXQAVwindow@@@@Z 
01:00037364 ?bringToTop@formWindow@@SAXQAVwindow@@@@Z 
01:00037390 ?setIcon@formWindow@@SAXQAVwindow@@@PBUresid@vpiDomains@@@Z 
01:000373C0 ?menuPopUp@formWindow@@SAXQAVwindow@@@PAUmenu_struct@vpiDomains@@PAUpnt_struct@4@PBUmenuAlign@4@@Z 
01:000373F0 ?addMenuItemListener@formWindow@@SAXQAVwindow@@@X@Z 
01:00037420 ?addMenuItemListener@formWindow@@SAXQAVwindow@@@PBUmenuTag@vpiDomains@@X@Z 
01:00037450 ?removeMenuItemListener@formWindow@@SAXQAVwindow@@@X@Z 
01:00037480 ?_getState@formWindow@@SAXQAVwindow@@@PAPAU?$__packedList_struct@Uwsflag@@@@@Z 
01:000374B0 ?setState@formWindow@@SAXQAVwindow@@@PAU?$__packedList_struct@Uwsflag@@@@@Z 
01:000374E0 ?setEnabled@formWindow@@SAXQAVwindow@@@@Z 
01:0003750C ?setEnabled@formWindow@@SAXQAVwindow@@@PAUboolean_struct@_builtIn@@@Z 
01:0003753C ?_getEnabled@formWindow@@SAXQAVwindow@@@PAPAUboolean_struct@_builtIn@@@Z 
01:0003756C ?setVisible@formWindow@@SAXQAVwindow@@@@Z 
01:00037598 ?setVisible@formWindow@@SAXQAVwindow@@@PAUboolean_struct@_builtIn@@@Z 
01:000375C8 ?_getVisible@formWindow@@SAXQAVwindow@@@PAPAUboolean_struct@_builtIn@@@Z 
01:000375F8 ?clearState@formWindow@@SAXQAVwindow@@@PAU?$__packedList_struct@Uwsflag@@@@@Z 
01:00037628 ?getScrollRange@formWindow@@SAXQAVwindow@@@PBUscrollType@vpiDomains@@PAHPAH@Z 
01:00037658 ?setScrollRange@formWindow@@SAXQAVwindow@@@PBUscrollType@vpiDomains@@HH@Z 
01:00037688 ?_getScrollPos@formWindow@@SAXQAVwindow@@@PBUscrollType@vpiDomains@@PAH@Z 
01:000376B8 ?setScrollPos@formWindow@@SAXQAVwindow@@@PBUscrollType@vpiDomains@@H@Z 
01:000376E8 ?_getScrollProportion@formWindow@@SAXQAVwindow@@@PBUscrollType@vpiDomains@@AAUpositive@@@Z 
01:00037718 ?setScrollProportion@formWindow@@SAXQAVwindow@@@PBUscrollType@vpiDomains@@PBUpositive@@@Z 
01:00037748 ?_getScrollBarInfo@formWindow@@SAXQAVwindow@@@PBUscrollType@vpiDomains@@PAPAUscrollBarInfo_struct@2@@Z 
01:00037778 ?_getScrollInfo@formWindow@@SAXQAVwindow@@@PBUscrollType@vpiDomains@@PAPAUscrollInfo_struct@gui_api@@@Z 
01:000377A8 ?addVScrollListener@formWindow@@SAXQAVwindow@@@X@Z 
01:000377D8 ?removeVScrollListener@formWindow@@SAXQAVwindow@@@X@Z 
01:00037808 ?addHScrollListener@formWindow@@SAXQAVwindow@@@X@Z 
01:00037838 ?removeHScrollListener@formWindow@@SAXQAVwindow@@@X@Z 
01:00037868 ?setDecoration@formWindow@@SAXQAVframeDecoration@@@PAUdecoration_struct@2@@Z 
01:00037898 ?_getDecoration@formWindow@@SAXQAVframeDecoration@@@PAPAUdecoration_struct@2@@Z 
01:000378C8 ?setBorder@formWindow@@SAXQAVframeDecoration@@@PAUborder_struct@2@@Z 
01:000378F8 ?_getBorder@formWindow@@SAXQAVframeDecoration@@@PAPAUborder_struct@2@@Z 
01:00037928 ?resetCloseResponder@formWindow@@SAXQAVframeDecoration@@@@Z 
01:00037954 ?helpResponder@formWindow@@SGXQAVframeDecoration@@@X@Z 
01:0003798C ?helpResponder@formWindow@@SGXQAVframeDecoration@@@@Z 
01:000379C0 ?setMinimized@formWindow@@SAXQAVdocumentWindow@@@PAUboolean_struct@_builtIn@@@Z 
01:000379F0 ?_getMinimized@formWindow@@SAXQAVdocumentWindow@@@PAPAUboolean_struct@_builtIn@@@Z 
01:00037A20 ?isMinimized@formWindow@@SAXQAVdocumentWindow@@@@Z 
01:00037A4C ?_mdiGetRestoredRect@formWindow@@SAXQAVdocumentWindow@@@PAPAUrct_struct@vpiDomains@@@Z 
01:00037A7C ?addActivateListener@formWindow@@SAXQAVdocumentWindow@@@X@Z 
01:00037AAC ?removeActivateListener@formWindow@@SAXQAVdocumentWindow@@@X@Z 
01:00037ADC ?addDeactivateListener@formWindow@@SAXQAVdocumentWindow@@@X@Z 
01:00037B0C ?removeDeactivateListener@formWindow@@SAXQAVdocumentWindow@@@X@Z 
01:00037B3C ?menuUpdate@formWindow@@SAXQAVdocumentWindow@@@@Z 
01:00037B68 ?menuSetText@formWindow@@SAXQAVdocumentWindow@@@PBUmenuTag@vpiDomains@@PB_W@Z 
01:00037B98 ?menuSet@formWindow@@SAXQAVdocumentWindow@@@PAUmenu_struct@vpiDomains@@@Z 
01:00037BC8 ?_menuGet@formWindow@@SAXQAVdocumentWindow@@@PAPAUmenu_struct@vpiDomains@@@Z 
01:00037BF8 ?menuEnable@formWindow@@SAXQAVdocumentWindow@@@PBUmenuTag@vpiDomains@@PAUboolean_struct@_builtIn@@@Z 
01:00037C28 ?menuCheck@formWindow@@SAXQAVdocumentWindow@@@PBUmenuTag@vpiDomains@@PAUboolean_struct@_builtIn@@@Z 
01:00037C58 ?addInitMenuListener@formWindow@@SAXQAVdocumentWindow@@@X@Z 
01:00037C88 ?removeInitMenuListener@formWindow@@SAXQAVdocumentWindow@@@X@Z 
01:00037CB8 ?_getDefaultDocumentWindowExtension@formWindow@@SAXQAVdocumentWindow@@@PAPAVdocumentWindowExtension@@@@Z 
01:00037CE8 ?_getDocumentWindowExtension@formWindow@@SAXQAVdocumentWindow@@@PAPAVdocumentWindowExtension@@@@Z 
01:00037D18 ?setDocumentWindowExtension@formWindow@@SAXQAVdocumentWindow@@@QAVdocumentWindowExtension@@@@Z 
01:00037D48 ?handleDeactivate@formWindow@@SAXQAVdocumentWindowExtension@@@QAVdocumentWindow@@@@Z 
01:00037D74 ?handleInitMenu@formWindow@@SAXQAVdocumentWindowExtension@@@QAVdocumentWindow@@@@Z 
01:00037DA0 ?new@drawWindow@@SAXQAV1@@@Z  (Idle)
01:00037DA8 ?new@drawWindow@@SAXQAV1@@QAVwindow@@@@Z  (Idle)
01:00037DB0 ?wrapVPIWin@drawWindow@@SAXQAV1@@PBUwindowHandle@vpiDomains@@@Z  (Idle)
01:00037DB8 ?_convertVPIWin2drawWindow@1@SAXPBUwindowHandle@vpiDomains@@PAPAVwindow@@@@Z  (Idle)
01:00037DC0 ?_new@drawWindow@@SAXPAPAV1@@@Z  (Idle)
01:00037DE4 ?_new@drawWindow@@SAXQAVwindow@@@PAPAV1@@@Z  (Idle)
01:00037E0C ?_wrapVPIWin@drawWindow@@SAXPBUwindowHandle@vpiDomains@@PAPAV1@@@Z  (Idle)
01:00037E34 ?new@documentWindow@@SAXQAV1@@@Z  (Idle)
01:00037EC4 ?new@documentWindow@@SAXQAV1@@QAVwindow@@@@Z 
01:00037EE0 ?_onDocumentWindowNative@documentWindow@@SAXQAV1@@QAVwindow@@@IPBUwParam@@PBUlParam@@PAPAUnativeResponse_struct@3@@Z 
01:00037FC0 ?_getDefaultDocumentWindowExtension@documentWindow@@SAXQAV1@@PAPAVdocumentWindowExtension@@@@Z 
01:00037FD4 ?_getDocumentWindowExtension@documentWindow@@SAXQAV1@@PAPAVdocumentWindowExtension@@@@Z 
01:00037FF8 ?setDocumentWindowExtension@documentWindow@@SAXQAV1@@QAVdocumentWindowExtension@@@@Z 
01:0003800C ?wrapVPIWin_internal@documentWindow@@SAXQAV1@@PBUwindowHandle@vpiDomains@@@Z 
01:0003806C ?checkTopLevelType@documentWindow@@SAXPBUwindowHandle@@@Z 
01:000380EC ?show@documentWindow@@SAXQAVwindow@@@@Z 
01:0003834C ?_getFullState@documentWindow@@SAXQAV1@@PAUboolean_struct@_builtIn@@PAPAU?$__packedList_struct@Uwsflag@@@@@Z 
01:00038394 ?setMaximized@documentWindow@@SAXPAUboolean_struct@_builtIn@@@Z 
01:000383E4 ?setMaximized@documentWindow@@SAXPAUboolean_struct@_builtIn@@PBUwindowHandle@vpiDomains@@@Z 
01:00038418 ?getStateOfActive@documentWindow@@SAXAAUwindowHandle@vpiDomains@@PAPAUboolean_struct@_builtIn@@@Z 
--- From 'Obj\messagecontrol.383256BA.obj'
01:000384FC ?isMaximized@documentWindow@@SAXXZ 
--- From 'Obj\gui.41D0084F.obj'
01:00038528 ?_getMaximized@documentWindow@@SAXPAPAUboolean_struct@_builtIn@@@Z  (Idle)
01:00038564 ?activateNextMDI@documentWindow@@SAXXZ  (Idle)
01:00038574 ?activatePreviousMDI@documentWindow@@SAXXZ  (Idle)
01:00038588 ?activateNextMDI@documentWindow@@SAXH@Z 
01:00038608 ?setMinimized@documentWindow@@SAXQAV1@@PAUboolean_struct@_builtIn@@@Z 
01:00038634 ?isMinimized@documentWindow@@SAXQAV1@@@Z 
01:00038674 ?_getMinimized@documentWindow@@SAXQAV1@@PAPAUboolean_struct@_builtIn@@@Z 
01:000386B4 ?_mdiGetRestoredRect@documentWindow@@SAXQAV1@@PAPAUrct_struct@vpiDomains@@@Z 
01:000386DC ?moveTile@documentWindow@@SAXPAU?$__packedList_struct@Uinteger@@@@@Z  (Idle)
01:000386EC ?moveCascade@documentWindow@@SAXPAU?$__packedList_struct@Uinteger@@@@@Z  (Idle)
01:000386FC ?arrangeMinimized@documentWindow@@SAXXZ  (Idle)
01:00038708 ?addActivateListener@documentWindow@@SAXQAV1@@X@Z 
01:00038730 ?removeActivateListener@documentWindow@@SAXQAV1@@X@Z 
01:000387F8 ?handleActivate@documentWindow@@SAXQAVdocumentWindowExtension@@@QAV1@@@Z 
01:00038878 ?addDeactivateListener@documentWindow@@SAXQAV1@@X@Z 
01:000388A0 ?removeDeactivateListener@documentWindow@@SAXQAV1@@X@Z 
01:00038968 ?handleDeactivate@documentWindow@@SAXQAVdocumentWindowExtension@@@QAV1@@@Z 
01:000389E8 ?addInitMenuListener@documentWindow@@SAXQAV1@@X@Z 
01:00038A10 ?removeInitMenuListener@documentWindow@@SAXQAV1@@X@Z 
01:00038AD8 ?handleInitMenu@documentWindow@@SAXQAVdocumentWindowExtension@@@QAV1@@@Z 
01:00038B58 ?isEventHandledInDocumentWindow@documentWindow@@SAXPAUevent_struct@vpiDomains@@@Z  (Idle)
01:00038B80 ?_dispatchAutoHandler@documentWindow@@SAXQAV1@@PBUwindowHandle@@PAUevent_struct@vpiDomains@@AAUlResult@@@Z 
01:00038D44 ?_getEventHandler@documentWindow@@SAXQAVwindow@@@PAX@Z 
01:00038D70 ?menuUpdate@documentWindow@@SAXQAV1@@@Z 
01:00038D94 ?menuSetText@documentWindow@@SAXQAV1@@PBUmenuTag@vpiDomains@@PB_W@Z 
01:00038DC0 ?menuSet@documentWindow@@SAXQAV1@@PAUmenu_struct@vpiDomains@@@Z 
01:00038E08 ?_menuGet@documentWindow@@SAXQAV1@@PAPAUmenu_struct@vpiDomains@@@Z 
01:00038EAC ?menuEnable@documentWindow@@SAXQAV1@@PBUmenuTag@vpiDomains@@PAUboolean_struct@_builtIn@@@Z 
01:00038EEC ?menuCheck@documentWindow@@SAXQAV1@@PBUmenuTag@vpiDomains@@PAUboolean_struct@_builtIn@@@Z 
01:00038F2C ?addHandler@documentWindow@@SAXQAVwindow@@@X@Z 
01:00038F58 ?removeHandler@documentWindow@@SAXQAVwindow@@@X@Z 
01:0003901C ?_new@documentWindow@@SAXPAPAV1@@@Z 
01:00039044 ?_new@documentWindow@@SAXQAVwindow@@@PAPAV1@@@Z  (Idle)
01:0003906C ?_wrapVPIWin_internal@documentWindow@@SAXPBUwindowHandle@vpiDomains@@PAPAV1@@@Z  (Idle)
01:00039094 ?new@dialog@@SAXQAV1@@@Z  (Idle)
--- From 'Obj\errorpresentationdialog.16250CAB.obj'
01:00039138 ?new@dialog@@SAXQAV1@@QAVwindow@@@@Z 
--- From 'Obj\gui.41D0084F.obj'
01:00039154 ?wrapVPIWin_internal@dialog@@SAXQAV1@@PBUwindowHandle@vpiDomains@@@Z  (Idle)
01:000391C0 ?defaultFont@dialog@@SGPBUfont@vpiDomains@@XZ 
01:0003922C ?defaultFont@dialog@@SGXPBUfont@vpiDomains@@@Z  (Idle)
01:00039244 ?addListeners@dialog@@SAXQAV1@@@Z 
01:000392CC ?show@dialog@@SAXQAVwindow@@@@Z 
01:00039414 ?show_customControl@dialog@@SAXQAV1@@@Z 
01:000394B8 ?onDialogShow@dialog@@SAXQAV1@@QAVwindow@@@PBUlParam@@@Z 
01:000394D4 ?onDialogSize@dialog@@SAXQAV1@@QAVwindow@@@@Z 
01:000394E0 ?onDialogMove@dialog@@SAXQAV1@@QAVwindow@@@@Z 
01:000394EC ?updateDialogUnitRect@dialog@@SAXQAV1@@@Z 
01:0003955C ?_getEventHandler@dialog@@SAXQAVwindow@@@PAX@Z 
01:00039588 ?_dialogAutoHandler@dialog@@SAXQAV1@@PBUwindowHandle@@PAUevent_struct@vpiDomains@@AAUlResult@@@Z 
01:0003972C ?setModal@dialog@@SAXQAV1@@PAUboolean_struct@_builtIn@@@Z 
01:000397A0 ?_getModal@dialog@@SAXQAV1@@PAPAUboolean_struct@_builtIn@@@Z 
01:000397C4 ?suspendLayout@dialog@@SAXQAV1@@@Z 
01:00039804 ?isLayoutSuspended@dialog@@SAXQAV1@@@Z 
01:0003981C ?resumeLayout@dialog@@SAXQAV1@@@Z 
01:00039854 ?layout@dialog@@SAXQAV1@@@Z 
01:000398A8 ?moveDialog@dialog@@SAXQAV1@@PBUwindowHandle@vpiDomains@@@Z 
01:00039964 ?_adjustRectangleFromParentToScreen@dialog@@SAXQAV1@@PBUwindowHandle@vpiDomains@@PAUrct_struct@4@PAPAU54@@Z 
01:00039BA4 ?movePendedControls@dialog@@SAXQAV1@@@Z 
01:00039CEC ?moveControl@dialog@@SAXQAV1@@QAVcontrol@@@@Z 
01:00039DA8 ?setUnit@dialog@@SAXQAV1@@PAUunit_struct@1@@Z 
01:00039E18 ?_getUnit@dialog@@SAXQAV1@@PAPAUunit_struct@1@@Z 
01:00039E40 ?setPosition@dialog@@SAXQAV1@@PAUpnt_struct@vpiDomains@@@Z 
01:00039EC4 ?setPosition@dialog@@SAXQAV1@@HH@Z 
01:00039EF0 ?_getPosition@dialog@@SAXQAV1@@PAPAUpnt_struct@vpiDomains@@@Z 
01:00039F48 ?getPosition@dialog@@SAXQAV1@@PAHPAH@Z 
01:00039F74 ?setSize@dialog@@SAXQAV1@@HH@Z 
01:00039FFC ?getSize@dialog@@SAXQAV1@@PAHPAH@Z 
01:0003A050 ?setWidth@dialog@@SAXQAV1@@H@Z 
01:0003A078 ?_getWidth@dialog@@SAXQAV1@@PAH@Z 
01:0003A098 ?setHeight@dialog@@SAXQAV1@@H@Z 
01:0003A0C8 ?_getHeight@dialog@@SAXQAV1@@PAH@Z 
01:0003A0E8 ?setRect@dialog@@SAXQAV1@@PAUrct_struct@vpiDomains@@@Z 
01:0003A148 ?_getRect@dialog@@SAXQAV1@@PAPAUrct_struct@vpiDomains@@@Z 
01:0003A15C ?_rectUnit2Pixel@dialog@@SAXQAV1@@PAUrct_struct@vpiDomains@@PAPAU34@@Z 
01:0003A1A8 ?_pntUnit2Pixel@dialog@@SAXQAV1@@PAUpnt_struct@vpiDomains@@PAPAU34@@Z 
01:0003A20C ?_rectPixel2Unit@dialog@@SAXQAV1@@PAUrct_struct@vpiDomains@@PAPAU34@@Z 
01:0003A3C4 ?_pntPixel2Unit@dialog@@SAXQAV1@@PAUpnt_struct@vpiDomains@@PAPAU34@@Z 
01:0003A4AC ?pixel2unitFactors@dialog@@SAXQAV1@@PAPAN1@Z 
01:0003A580 ?_mapDialogRect@dialog@@SAXQAV1@@HHHHPAPAUrct_struct@vpiDomains@@@Z 
01:0003A640 ?_convertVPIWin2dialog@1@SAXPBUwindowHandle@vpiDomains@@PAPAV1@@@Z 
01:0003A6B8 ?setDefaultButton@dialog@@SAXQAV1@@QAVbutton@@@@Z 
01:0003A888 ?onDefaultButtonShow@dialog@@SAXQAV1@@QAVwindow@@@PBUlParam@@@Z 
01:0003A8D0 ?onDefaultButtonState@dialog@@SAXQAV1@@QAVwindow@@@PAUstateInfo_struct@vpiDomains@@@Z 
01:0003AA5C ?clearAndSetDefaultFlags@dialog@@SAXQAV1@@QAVbutton@@@@Z 
01:0003AB84 ?buttonSetNativeFlag@dialog@@SAXQAVbutton@@@@Z 
01:0003AC08 ?_tryGetDefaultButton@dialog@@SAXQAV1@@PAPAVbutton@@@@Z 
01:0003ACB8 ?initFocus@dialog@@SAXQAV1@@@Z 
01:0003ADE0 ?setInitFocus@dialog@@SAXQAV1@@QAVcontrol@@@@Z 
01:0003AE34 ?_tryGetInitFocus@dialog@@SAXQAV1@@PAPAVcontrol@@@@Z 
01:0003AF28 ?addValidateResponder@dialog@@SAXQAV1@@X@Z 
01:0003AF50 ?removeValidateResponder@dialog@@SAXQAV1@@X@Z 
01:0003B018 ?_validate@dialog@@SAXQAV1@@PAPAUvalidateResult_struct@1@@Z 
01:0003B160 ?tryValidateWithErrorDialog@dialog@@SAXQAV1@@@Z 
01:0003B1E0 ?_new@dialog@@SAXPAPAV1@@@Z  (Idle)
--- From 'Obj\statusbar.91A8DF89.obj'
01:0003B208 ?_new@dialog@@SAXQAVwindow@@@PAPAV1@@@Z 
--- From 'Obj\gui.41D0084F.obj'
01:0003B230 ?_wrapVPIWin_internal@dialog@@SAXPBUwindowHandle@vpiDomains@@PAPAV1@@@Z 
01:0003B258 ?_object_facts_initializer@dialog@@SGXQAV1@@@Z 
01:0003B290 ?toolTip@dialog@@SGXQAV1@@PAUoptional_struct@core@@QAVcontrolTooltip@@@@Z 
01:0003B2A0 ?toolTip@dialog@@SGPAUoptional_struct@core@@QAVcontrolTooltip@@@QAV1@@@Z 
01:0003B2AC ?new@childWindow@@SAXQAV1@@@Z  (Idle)
01:0003B2C4 ?new@childWindow@@SAXQAV1@@QAVwindow@@@@Z  (Idle)
01:0003B2EC ?show@childWindow@@SAXQAVwindow@@@@Z 
01:0003B39C ?_new@childWindow@@SAXPAPAV1@@@Z  (Idle)
01:0003B3C4 ?_new@childWindow@@SAXQAVwindow@@@PAPAV1@@@Z  (Idle)
01:0003B3EC ?anonymous$o0$1$dockcontainer/0nf$applicationWindow@1@SAXPAUanonymous$o0$1$dockcontainer/0nf$applicationWindowc_struct@1@QAVwindow@@@@Z 
01:0003B44C ?anonymous$o0$2$dockcontainer/0nf$applicationWindow@1@SAXPAUanonymous$o0$2$dockcontainer/0nf$applicationWindowc_struct@1@QAVwindow@@@@Z 
01:0003B4E8 ?dockContainer@applicationWindow@@SGQAVdialog@@@QAV1@@@Z 
01:0003B62C ?addControl@applicationWindow@@SAXQAV1@@QAVcontrol@@@@Z 
01:0003B68C ?new@applicationWindow@@SAXQAV1@@@Z 
01:0003B6F8 ?newFromVpi@applicationWindow@@SAXQAV1@@PBUwindowHandle@vpiDomains@@@Z  (Idle)
01:0003B714 ?ensureSingleton@applicationWindow@@SAXQAV1@@@Z 
01:0003B784 ?_anonymous$c0$1$tryget/0nf$applicationWindow@1@SAXPAUanonymous$c0$1$tryget/0nf$applicationWindowc_struct@1@PBUwindowHandle@@PAUevent_struct@vpiDomains@@AAUlResult@@@Z 
--- From 'Obj\errorpresentationdialog.16250CAB.obj'
01:0003B7B4 ?_tryGet@applicationWindow@@SAXPAPAV1@@@Z 
--- From 'Obj\statusbar.91A8DF89.obj'
01:0003B890 ?_get@applicationWindow@@SAXPAPAV1@@@Z 
--- From 'Obj\gui.41D0084F.obj'
01:0003B8F0 ?_getParent@applicationWindow@@SAXQAVwindow@@@PAPAV2@@@Z 
01:0003B904 ?setParent@applicationWindow@@SAXQAVwindow@@@0@Z 
01:0003B91C ?setMdiProperty@applicationWindow@@SAXQAV1@@PAUboolean_struct@_builtIn@@@Z 
01:0003B978 ?_getMdiProperty@applicationWindow@@SAXQAV1@@PAPAUboolean_struct@_builtIn@@@Z 
01:0003B998 ?setMaximized@applicationWindow@@SAXQAV1@@PAUboolean_struct@_builtIn@@@Z 
01:0003B9C4 ?_getMaximized@applicationWindow@@SAXQAV1@@PAPAUboolean_struct@_builtIn@@@Z 
01:0003BA20 ?isMaximized@applicationWindow@@SAXQAV1@@@Z 
01:0003BA60 ?getMdiClientSize@applicationWindow@@SAXQAV1@@AAUpositive@@1@Z 
01:0003BB2C ?show@applicationWindow@@SAXQAVwindow@@@@Z 
01:0003BBF8 ?setErrorResponder@applicationWindow@@SAXQAV1@@X@Z 
01:0003BC34 ?_getErrorResponder@applicationWindow@@SAXQAV1@@PAX@Z 
01:0003BC48 ?internalGuiErrorHandler@applicationWindow@@SAXQAV1@@PBUwindowHandle@@PBUtraceId@@@Z 
01:0003BC90 ?_getEndSessionResponder@applicationWindow@@SAXQAV1@@PAX@Z 
01:0003BCA4 ?setEndSessionResponder@applicationWindow@@SAXQAV1@@X@Z 
01:0003BCB8 ?resetEndSessionResponder@applicationWindow@@SAXQAV1@@@Z 
01:0003BCCC ?_defaultEndSessionResponder@applicationWindow@@SAXQAV1@@PAUboolean_struct@_builtIn@@PAPAUendSessionResponse_struct@1@@Z 
01:0003BCE0 ?_dispatchEnd@applicationWindow@@SAXQAV1@@PBUwindowHandle@@PAUevent_struct@vpiDomains@@AAUlResult@@@Z 
01:0003BD54 ?_new@applicationWindow@@SAXPAPAV1@@@Z  (Idle)
01:0003BD7C ?_newFromVpi@applicationWindow@@SAXPBUwindowHandle@vpiDomains@@PAPAV1@@@Z 
01:0003BDA4 ?_object_facts_initializer@applicationWindow@@SGXQAV1@@@Z 
01:0003BDCC ?addEndSessionListener@applicationSession@@SAXX@Z  (Idle)
01:0003BDF0 ?removeEndSessionListener@applicationSession@@SAXX@Z  (Idle)
01:0003BE8C ?anonymous$c0$1$registersessionwindow/1np$applicationSession@1@SAXPAUanonymous$c0$1$registersessionwindow/1np$applicationSessionc_struct@1@QAVwindow@@@@Z 
01:0003BEB4 ?registerSessionWindow@applicationSession@@SAXQAVwindow@@@@Z 
01:0003BFD0 ?removeSessionClient@applicationSession@@SAXQAVobject@@@@Z 
01:0003C0E8 ?criticalSection@applicationSession@@SGQAV0@@XZ 
--- From 'Obj\errorpresentationdialog.16250CAB.obj'
01:0003C134 ?_getSessionWindow@applicationSession@@SAXPAPAVwindow@@@@Z 
--- From 'Obj\gui.41D0084F.obj'
01:0003C2BC ?_session_eh@applicationSession@@SAXPBUwindowHandle@@PAUevent_struct@vpiDomains@@AAUlResult@@@Z 
--- From 'Obj\controlsupport.CD1DE148.obj'
01:0003C5A4 window?_initObject@@@QAGXQAV1@H@Z 
--- From 'Obj\gui.41D0084F.obj'
01:0003C5D0 ?@create_object@window@@SGQAV1@@XZ 
--- From 'Obj\controlsupport.CD1DE148.obj'
01:0003C5EC window?_InternalFinalizer@@@QAGXQAV1@@Z 
--- From 'Obj\gui.41D0084F.obj'
01:0003D5F4 popupWindow?_initObject@@@QAGXQAV1@H@Z 
01:0003D638 ?@create_object@popupWindow@@SGQAV1@@XZ 
01:0003D654 popupWindow?_InternalFinalizer@@@QAGXQAV1@@Z 
01:0003E028 pictureCanvas?_initObject@@@QAGXQAV1@H@Z 
01:0003E04C ?@create_object@pictureCanvas@@SGQAV1@@XZ 
01:0003E068 pictureCanvas?_InternalFinalizer@@@QAGXQAV1@@Z 
01:0003E07C frameDecoration?_initObject@@@QAGXQAV1@H@Z 
01:0003E0A0 ?@create_object@frameDecoration@@SGQAV1@@XZ 
01:0003E0BC frameDecoration?_InternalFinalizer@@@QAGXQAV1@@Z 
--- From 'Obj\messagecontrol.383256BA.obj'
01:0003FDEC formWindow?_initObject@@@QAGXQAV1@H@Z 
--- From 'Obj\gui.41D0084F.obj'
01:0003FE30 ?@create_object@formWindow@@SGQAV1@@XZ 
--- From 'Obj\messagecontrol.383256BA.obj'
01:0003FE4C formWindow?_InternalFinalizer@@@QAGXQAV1@@Z 
--- From 'Obj\gui.41D0084F.obj'
01:00040BA4 drawWindow?_initObject@@@QAGXQAV1@H@Z 
01:00040BD0 ?@create_object@drawWindow@@SGQAV1@@XZ 
01:00040BEC drawWindow?_InternalFinalizer@@@QAGXQAV1@@Z 
01:00041B58 documentWindow?_initObject@@@QAGXQAV1@H@Z 
01:00041BAC ?@create_object@documentWindow@@SGQAV1@@XZ 
01:00041BC8 documentWindow?_InternalFinalizer@@@QAGXQAV1@@Z 
--- From 'Obj\errorpresentationdialog.16250CAB.obj'
01:00042DD8 dialog?_initObject@@@QAGXQAV1@H@Z 
--- From 'Obj\gui.41D0084F.obj'
01:00042E44 ?@create_object@dialog@@SGQAV1@@XZ 
--- From 'Obj\errorpresentationdialog.16250CAB.obj'
01:00042E60 dialog?_InternalFinalizer@@@QAGXQAV1@@Z 
--- From 'Obj\gui.41D0084F.obj'
01:00043BE4 childWindow?_initObject@@@QAGXQAV1@H@Z 
01:00043C10 ?@create_object@childWindow@@SGQAV1@@XZ 
01:00043C2C childWindow?_InternalFinalizer@@@QAGXQAV1@@Z 
01:00044C44 applicationWindow?_initObject@@@QAGXQAV1@H@Z 
01:00044C88 ?@create_object@applicationWindow@@SGQAV1@@XZ 
01:00044CA4 applicationWindow?_InternalFinalizer@@@QAGXQAV1@@Z 
--- From 'Obj\command.64092024.obj'
01:00044CC0 ?menuLabel@command@@SGPB_WQAV1@@@Z 
01:00044CD8 ?menuLabel@command@@SGXQAV1@@PB_W@Z 
01:00044D20 ?ribbonLabel@command@@SGPB_WQAV1@@@Z 
01:00044D38 ?ribbonLabel@command@@SGXQAV1@@PB_W@Z 
01:00044D80 ?icon@command@@SGPAUoptional_struct@core@@QAV0@@QAV1@@@Z 
01:00044D98 ?icon@command@@SGXQAV1@@PAUoptional_struct@core@@QAV0@@@Z 
01:00044E10 ?badge@command@@SGPBUpositive@@QAV1@@@Z 
01:00044E28 ?badge@command@@SGXQAV1@@PBUpositive@@@Z 
01:00044E60 ?enabled@command@@SGPAUboolean_struct@_builtIn@@QAV1@@@Z 
01:00044E78 ?enabled@command@@SGXQAV1@@PAUboolean_struct@_builtIn@@@Z 
01:00044EB0 ?visible@command@@SGPAUboolean_struct@_builtIn@@QAV1@@@Z 
01:00044EC8 ?visible@command@@SGXQAV1@@PAUboolean_struct@_builtIn@@@Z 
01:00044F00 ?new@command@@SAXQAV1@@QAVwindow@@@PB_W@Z  (Idle)
01:00044F64 ?_formatAcceleratorKey@command@@SAXPAUacceleratorKey_struct@vpiDomains@@PAPB_W@Z  (Idle)
01:00045008 ?_formatKeyModifier@command@@SAXPBUkeyModifier@vpiDomains@@PAPB_W@Z 
01:000450A0 ?_tryFormatKeyModifier@command@@SAXPBUkeyModifier@vpiDomains@@PAPB_W@Z 
01:000450E4 ?_formatKeyCode@command@@SAXPBUkeyCode@vpiDomains@@PAPB_W@Z 
01:00045400 ?_new@command@@SAXQAVwindow@@@PB_WPAPAV1@@@Z  (Idle)
01:0004542C ?anonymous$o0$1$$command@1@SAXQAV1@@@Z 
01:00045440 ?anonymous$o0$2$$command@1@SAXQAV1@@@Z 
01:00045454 ?_object_facts_initializer@command@@SGXQAV1@@@Z 
01:000454DC ?id@command@@SGPB_WQAV1@@@Z 
01:000454E8 ?menuTag@command@@SGPBU0@QAV1@@@Z 
01:000454F4 ?window@command@@SGQAV0@@QAV1@@@Z 
01:00045500 ?mnemonics@command@@SGXQAV1@@PAU?$__packedList_struct@PAUtuple_struct@core@@PBUpositive@@PB_W@@@Z 
01:00045510 ?mnemonics@command@@SGPAU?$__packedList_struct@PAUtuple_struct@core@@PBUpositive@@PB_W@@QAV1@@@Z 
01:0004551C ?tipTitle@command@@SGXQAV1@@PAUtipText_struct@toolTip@@@Z 
01:0004552C ?tipTitle@command@@SGPAUtipText_struct@toolTip@@QAV1@@@Z 
01:00045538 ?tipBody@command@@SGXQAV1@@PAUtipText_struct@tooltip@@@Z 
01:00045548 ?tipBody@command@@SGPAUtipText_struct@tooltip@@QAV1@@@Z 
01:00045554 ?acceleratorKey@command@@SGXQAV1@@PAUacceleratorKey_struct@vpiDomains@@@Z 
01:00045564 ?acceleratorKey@command@@SGPAUacceleratorKey_struct@vpiDomains@@QAV1@@@Z 
01:00045570 ?category@command@@SGXQAV1@@PAU?$__packedList_struct@Ustring@@@@@Z 
01:00045580 ?category@command@@SGPAU?$__packedList_struct@Ustring@@@@QAV1@@@Z 
01:0004558C ?run@command@@SGXQAV1@@X@Z 
01:0004559C ?run@command@@SGXQAV1@@@Z 
01:000455A8 ?queryState@command@@SGXQAV1@@X@Z 
01:000455B8 ?queryState@command@@SGXQAV1@@@Z 
01:000455C4 ?stateChangeEvent@command@@SGXQAV1@@QAVevent0@@@QAV1@@@Z 
01:000455D4 ?stateChangeEvent@command@@SGQAVevent0@@@QAV1@@QAV1@@@Z 
01:000455E8 command?_initObject@@@QAGXQAV1@H@Z 
01:0004560C ?@create_object@command@@SGQAV1@@XZ 
01:00045628 command?_InternalFinalizer@@@QAGXQAV1@@Z 
--- From 'Obj\controls.EA481C3E.obj'
01:00045640 ?_tryGetParameter@versionControl@@SAXPB_WPAPB_W@Z  (Idle)
01:000459B4 ?parameterTemplate@versionControl@@SAXQAVoutputStream@@@PB_WPAU?$__packedList_struct@Ustring@@@@@Z 
01:00045A04 ?anonymous$o0$1$settext/1np$versionControl@1@SAXPAUanonymous$o0$1$settext/1np$versionControlc_struct@1@QAVoutputStream@@@@Z 
01:00045A38 ?setText@versionControl@@SAXQAVwindow@@@PB_W@Z 
01:00045A84 ?new@versionControl@@SAXQAV1@@QAVcontainerWindow@@@@Z  (Idle)
01:00045AA0 ?new@versionControl@@SAXQAV1@@@Z 
01:00045AA8 ?_tryGetParameterName@versionControl@@SAXPB_WPAPB_W@Z 
01:00045B3C ?_getFileVersionInformation@versionControl@@SAXQAEPB_W1PAPB_W@Z 
01:00045BC8 ?_getLanguageAndCodePageKey@versionControl@@SAXQAEPAPB_W@Z 
01:00045C58 ?_tryVerQueryValue@versionControl@@SAXQAEPB_WPAPAX@Z 
01:00045CA4 ?_new@versionControl@@SAXPAPAV1@@@Z  (Idle)
01:00045CCC ?_new@versionControl@@SAXQAVcontainerWindow@@@PAPAV1@@@Z 
01:00045CF4 ?new@timerControl@@SAXQAV1@@@Z  (Idle)
01:00045D5C ?localInitialize@timerControl@@SAXQAV1@@@Z 
01:00045DBC ?new@timerControl@@SAXQAV1@@QAVcontainerWindow@@@@Z  (Idle)
01:00045DD8 ?start@timerControl@@SAXQAV1@@@Z 
01:00045EB0 ?stop@timerControl@@SAXQAV1@@@Z 
01:00045F28 ?isRunning@timerControl@@SAXQAV1@@@Z 
01:00045F40 ?setTickDuration@timerControl@@SAXQAV1@@PBUpositive@@@Z 
01:00045F84 ?_getTickDuration@timerControl@@SAXQAV1@@AAUpositive@@@Z 
01:00045F98 ?onTickTimer@timerControl@@SAXQAV1@@QAVwindow@@@PBUtimerHandle@@@Z 
01:00046034 ?addTickListener@timerControl@@SAXQAV1@@X@Z 
01:0004605C ?removeTickListener@timerControl@@SAXQAV1@@X@Z 
01:00046124 ?_new@timerControl@@SAXPAPAV1@@@Z  (Idle)
01:0004614C ?_new@timerControl@@SAXQAVcontainerWindow@@@PAPAV1@@@Z  (Idle)
01:00046174 ?_object_facts_initializer@timerControl@@SGXQAV1@@@Z 
01:00046194 ?new@textControl@@SAXQAV1@@QAVcontainerWindow@@@@Z  (Idle)
--- From 'Obj\controlsupport.CD1DE148.obj'
01:000461B0 ?new@textControl@@SAXQAV1@@@Z 
--- From 'Obj\controls.EA481C3E.obj'
01:00046214 ?setOuterRect@textControl@@SAXQAVwindow@@@PAUrct_struct@vpiDomains@@@Z 
01:0004624C ?setAlignBaseline@textControl@@SAXQAV1@@PAUboolean_struct@_builtIn@@@Z 
01:0004628C ?_getAlignBaseline@textControl@@SAXQAV1@@PAPAUboolean_struct@_builtIn@@@Z 
01:000462A0 ?setIgnorePrefix@textControl@@SAXQAV1@@@Z 
01:000462B4 ?setIgnorePrefix@textControl@@SAXQAV1@@PAUboolean_struct@_builtIn@@@Z 
01:000462D0 ?_getIgnorePrefix@textControl@@SAXQAV1@@PAPAUboolean_struct@_builtIn@@@Z 
01:000462EC ?alignment_State@textControl@@SAXPAUalignment_struct@vpiDomains@@PAI@Z  (Idle)
01:00046320 ?staticStyle@textControl@@SGIQAV1@@@Z 
01:00046348 ?staticStyle@textControl@@SGXQAV1@@I@Z 
01:00046368 ?setAlignment@textControl@@SAXQAV1@@PAUalignment_struct@vpiDomains@@@Z 
01:00046390 ?_getAlignment@textControl@@SAXQAV1@@PAPAUalignment_struct@vpiDomains@@@Z 
01:000463F4 ?setWrap@textControl@@SAXQAV1@@@Z 
01:00046408 ?setWrap@textControl@@SAXQAV1@@PAUboolean_struct@_builtIn@@@Z 
01:00046440 ?_getWrap@textControl@@SAXQAV1@@PAPAUboolean_struct@_builtIn@@@Z 
01:00046470 ?setForegroundColor@textControl@@SAXQAV1@@PBUcolor@@@Z 
01:000464B4 ?_onCtlColorStatic@textControl@@SAXQAV1@@QAVwindow@@@IPBUwParam@@PBUlParam@@PAPAUnativeResponse_struct@3@@Z 
01:0004655C ?_updateDC@textControl@@SAXQAV1@@PBUhDC@gui_Native@@AAUhBrush@gui_native@@@Z 
01:000465A8 ?enableHandleDeviceContext@textControl@@SAXQAV1@@@Z 
--- From 'Obj\errorpresentationdialog.16250CAB.obj'
01:00046634 ?_new@textControl@@SAXQAVcontainerWindow@@@PAPAV1@@@Z 
--- From 'Obj\controls.EA481C3E.obj'
01:0004665C ?_new@textControl@@SAXPAPAV1@@@Z  (Idle)
01:00046684 ?alignment_State@textControl@@SAXPAPAUalignment_struct@vpiDomains@@I@Z 
01:000466C4 ?_object_facts_initializer@textControl@@SGXQAV1@@@Z 
01:000466DC ?newHorizontal@scrollControl@@SAXQAV1@@QAVcontainerWindow@@@@Z  (Idle)
01:000466F8 ?newHorizontal@scrollControl@@SAXQAV1@@@Z 
01:0004670C ?newVertical@scrollControl@@SAXQAV1@@QAVcontainerWindow@@@@Z  (Idle)
01:00046728 ?newVertical@scrollControl@@SAXQAV1@@@Z 
01:0004673C ?new@scrollControl@@SAXQAV1@@I@Z 
01:000467D8 ?localInitialize@scrollControl@@SAXQAV1@@@Z 
01:00046900 ?dispatchEvent@scrollControl@@SAXQAVcontrol@@@PAUcontrolInfo_struct@vpiDomains@@@Z 
01:000469A8 ?setThumbIfThumbTrack@scrollControl@@SAXQAV1@@PBUscrollCode@@H@Z 
01:000469DC ?isPosInvalidForCode@scrollControl@@SAXH@Z 
01:00046A04 ?dispatchScroll@scrollControl@@SAXQAV1@@PBUscrollCode@@H@Z 
01:00046A88 ?addScrollListener@scrollControl@@SAXQAV1@@X@Z 
01:00046AB0 ?removeScrollListener@scrollControl@@SAXQAV1@@X@Z 
01:00046B8C ?getRange@scrollControl@@SAXQAV1@@PAHPAH@Z 
01:00046C58 ?setRange@scrollControl@@SAXQAV1@@HH@Z 
01:00046CF0 ?_getThumbPosition@scrollControl@@SAXQAV1@@PAH@Z 
01:00046D98 ?setThumbPosition@scrollControl@@SAXQAV1@@H@Z 
01:00046E20 ?_getProportion@scrollControl@@SAXQAV1@@AAUpositive@@@Z 
01:00046EE0 ?setProportion@scrollControl@@SAXQAV1@@PBUpositive@@@Z 
01:00046F58 ?_newHorizontal@scrollControl@@SAXQAVcontainerWindow@@@PAPAV1@@@Z  (Idle)
01:00046F80 ?_newHorizontal@scrollControl@@SAXPAPAV1@@@Z  (Idle)
01:00046FA8 ?_newVertical@scrollControl@@SAXQAVcontainerWindow@@@PAPAV1@@@Z  (Idle)
01:00046FD0 ?_newVertical@scrollControl@@SAXPAPAV1@@@Z  (Idle)
01:00046FF8 ?new@realControl@@SAXQAV1@@@Z  (Idle)
01:00047040 ?new@realControl@@SAXQAV1@@QAVcontainerWindow@@@@Z  (Idle)
01:00047058 ?_onRealValidate@realControl@@SAXQAV1@@QAVcontrol@@@PAPAUvalidateResult_struct@3@@Z 
01:00047140 ?_formatReal@realControl@@SAXPANPAPB_W@Z  (Idle)
01:00047220 ?setReal@realControl@@SAXQAV1@@PAN@Z 
01:00047248 ?_getReal@realControl@@SAXQAV1@@PAPAN@Z 
01:00047288 ?_tryGetReal@realControl@@SAXQAV1@@PAPAN@Z 
01:000472F4 ?setMaximum@realControl@@SAXQAV1@@PAN@Z 
01:00047338 ?_getMaximum@realControl@@SAXQAV1@@PAPAN@Z 
01:0004734C ?setMinimum@realControl@@SAXQAV1@@PAN@Z 
01:00047390 ?_getMinimum@realControl@@SAXQAV1@@PAPAN@Z 
01:000473A4 ?setMandatory@realControl@@SAXQAV1@@@Z 
01:000473B8 ?setMandatory@realControl@@SAXQAV1@@PAUboolean_struct@_builtIn@@@Z 
01:000473CC ?_getMandatory@realControl@@SAXQAV1@@PAPAUboolean_struct@_builtIn@@@Z 
01:000473E0 ?_checkContent@realControl@@SAXQAV1@@PB_WPAPAUvalue_struct@core@@@Z 
01:000474B8 ?_whetherEmptyStringAvailable@realControl@@SAXQAV1@@PAUboolean_struct@_builtIn@@PAPAUvalue_struct@core@@@Z 
01:00047548 ?_checkMinMax@realControl@@SAXQAV1@@PANPAPAUvalue_struct@core@@@Z 
01:0004777C ?setIllegalValueMessage@realControl@@SAXPB_W@Z  (Idle)
01:0004778C ?setIllegalValueMandatoryMessage@realControl@@SAXPB_W@Z  (Idle)
01:0004779C ?setIllegalValueMinimumMaximumMessage@realControl@@SAXPB_W@Z  (Idle)
01:000477AC ?setIllegalValueMinimumMessage@realControl@@SAXPB_W@Z  (Idle)
01:000477BC ?setIllegalValueMaximumMessage@realControl@@SAXPB_W@Z  (Idle)
01:000477CC ?_new@realControl@@SAXQAVcontainerWindow@@@PAPAV1@@@Z  (Idle)
01:000477F4 ?_new@realControl@@SAXPAPAV1@@@Z 
01:0004781C ?_object_facts_initializer@realControl@@SGXQAV1@@@Z 
01:00047844 ?infinityText@realControl@@SGXPB_W@Z  (Idle)
01:00047850 ?infinityText@realControl@@SGPB_WXZ  (Idle)
01:00047858 ?nanText@realControl@@SGXPB_W@Z  (Idle)
01:00047864 ?nanText@realControl@@SGPB_WXZ  (Idle)
01:0004786C ?friendAddButton@radioButtonGroup@@SAXQAV1@@QAVradioButton@@@@Z 
01:000478C4 ?friendDelButton@radioButtonGroup@@SAXQAV1@@QAVradioButton@@@@Z 
01:000479A4 ?_tryGetSelectedButton@radioButtonGroup@@SAXQAV1@@PAPAVradioButton@@@@Z 
01:00047A1C ?_getSelectedButton@radioButtonGroup@@SAXQAV1@@PAPAVradioButton@@@@Z 
01:00047A5C ?setSelectedButton@radioButtonGroup@@SAXQAV1@@QAVradioButton@@@@Z 
01:00047B08 ?getButton_nd@radioButtonGroup@@SAXQAV1@@PAPAVradioButton@@@@Z 
01:00047B54 ?addSelectionChangedListener@radioButtonGroup@@SAXQAV1@@X@Z 
01:00047B7C ?removeSelectionChangedListener@radioButtonGroup@@SAXQAV1@@X@Z 
01:00047C44 ?addDelayedSelectionChangedListener@radioButtonGroup@@SAXQAV1@@PBUpositive@@X@Z 
01:00047CEC ?removeDelayedSelectionChangedListener@radioButtonGroup@@SAXQAV1@@X@Z 
01:00047DB8 ?supportDelayedSelectionChangedListener@radioButtonGroup@@SAXQAV1@@0QAVradioButton@@@@Z 
01:00047E5C ?_firstShownRadioButton@radioButtonGroup@@SAXQAV1@@PAPAVwindow@@@@Z 
01:00047EA4 ?delayedSelectionChanged@radioButtonGroup@@SAXQAV1@@@Z 
01:00047F24 ?buttonStateChanged@radioButtonGroup@@SAXQAV1@@QAVradioButton@@@PAUstate_struct@3@2@Z 
01:00047FC0 ?new@radioButtonGroup@@SAXQAV1@@@Z  (Idle)
--- From 'Obj\guisupport.243CF570.obj'
01:00047FC8 ?_new@radioButtonGroup@@SAXPAPAV1@@@Z 
--- From 'Obj\controls.EA481C3E.obj'
01:00047FEC ?new@radioButton@@SAXQAV1@@QAVcontainerWindow@@@@Z  (Idle)
01:00048008 ?anonymous$o0$1$new/0np$radioButton@1@SAXPAUanonymous$o0$1$new/0np$radioButtonc_struct@1@@Z 
01:00048034 ?new@radioButton@@SAXQAV1@@@Z 
01:000480C4 ?setOuterRect@radioButton@@SAXQAVwindow@@@PAUrct_struct@vpiDomains@@@Z 
01:000480FC ?setAlignBaseline@radioButton@@SAXQAV1@@PAUboolean_struct@_builtIn@@@Z 
01:0004813C ?_getAlignBaseline@radioButton@@SAXQAV1@@PAPAUboolean_struct@_builtIn@@@Z 
01:00048150 ?setContainer@radioButton@@SAXQAVcontrol@@@QAVcontainerWindow@@@@Z 
01:000481C8 ?resetContainer@radioButton@@SAXQAVcontrol@@@@Z 
01:000481E4 ?clearOldGroup@radioButton@@SAXQAV1@@@Z 
01:0004826C ?defaultClickResponder@radioButton@@SAXQAV1@@@Z 
01:00048274 ?setClickResponder@radioButton@@SAXQAV1@@X@Z 
01:00048288 ?_getClickResponder@radioButton@@SAXQAV1@@PAX@Z 
01:0004829C ?resetClickResponder@radioButton@@SAXQAV1@@@Z 
01:000482B0 ?addStateChangedListener@radioButton@@SAXQAV1@@X@Z 
01:000482D8 ?removeStateChangedListener@radioButton@@SAXQAV1@@X@Z 
01:000483A0 ?_dispatchNotification@radioButton@@SAXQAVcontrol@@@PBUunsigned16@@PAPAUnativeResponse_struct@window@@@Z 
01:000483D0 ?_getRadioState@radioButton@@SAXQAV1@@PAPAUstate_struct@1@@Z 
01:000484B8 ?setRadioState@radioButton@@SAXQAV1@@PAUstate_struct@1@@Z 
01:00048524 ?click@radioButton@@SAXQAV1@@@Z 
01:00048584 ?updateAndNotify@radioButton@@SAXQAV1@@PAUstate_struct@1@1@Z 
01:000486E4 ?pressed@radioButton@@SGPAUboolean_struct@_builtIn@@QAV1@@@Z 
01:00048724 ?pressed@radioButton@@SGXQAV1@@PAUboolean_struct@_builtIn@@@Z 
01:0004875C ?stateTable@radioButton@@SAXPAUstate_struct@1@PAI@Z 
01:00048780 ?setAuto@radioButton@@SAXQAV1@@@Z 
01:00048794 ?setAuto@radioButton@@SAXQAV1@@PAUboolean_struct@_builtIn@@@Z 
01:00048818 ?_getAuto@radioButton@@SAXQAV1@@PAPAUboolean_struct@_builtIn@@@Z 
01:00048834 ?setLeftText@radioButton@@SAXQAV1@@@Z 
01:00048848 ?setLeftText@radioButton@@SAXQAV1@@PAUboolean_struct@_builtIn@@@Z 
01:000488BC ?_getLeftText@radioButton@@SAXQAV1@@PAPAUboolean_struct@_builtIn@@@Z 
01:000488D8 ?_getRadioButtonGroup@radioButton@@SAXQAV1@@PAPAVradioButtonGroup@@@@Z 
01:00048904 ?_new@radioButton@@SAXQAVcontainerWindow@@@PAPAV1@@@Z  (Idle)
01:0004892C ?_new@radioButton@@SAXPAPAV1@@@Z  (Idle)
01:00048954 ?stateTable@radioButton@@SAXPAPAUstate_struct@1@I@Z 
01:00048984 ?_object_facts_initializer@radioButton@@SGXQAV1@@@Z 
01:000489A8 ?new@listEdit@@SAXQAV1@@QAVcontainerWindow@@@@Z  (Idle)
01:000489C4 ?new@listEdit@@SAXQAV1@@@Z 
01:00048A3C ?addModifiedListener@listEdit@@SAXQAVeditControl@@@X@Z 
01:00048A64 ?removeModifiedListener@listEdit@@SAXQAVeditControl@@@X@Z 
01:00048B2C ?anonymous$o0$1$adddelayedmodifiedlistener/2np$listEdit@1@SAXPAUanonymous$o0$1$adddelayedmodifiedlistener/2np$listEditc_struct@1@@Z 
01:00048B74 ?addDelayedModifiedListener@listEdit@@SAXQAVeditControl@@@PBUpositive@@X@Z 
01:00048BEC ?removeDelayedModifiedListener@listEdit@@SAXQAVeditControl@@@X@Z 
01:00048CB8 ?_onListEditNative@listEdit@@SAXQAV1@@QAVwindow@@@IPBUwParam@@PBUlParam@@PAPAUnativeResponse_struct@3@@Z 
01:00048D54 ?dispatchModified@listEdit@@SAXQAV1@@@Z 
01:00048E44 ?dispatchEvent@listEdit@@SAXQAVcontrol@@@PAUcontrolInfo_struct@vpiDomains@@@Z 
01:00048E68 ?selectText@listEdit@@SAXQAVeditControl@@@PBUcharCount@@1@Z 
01:00048E94 ?selectAll@listEdit@@SAXQAVeditControl@@@@Z 
01:00048ED0 ?getTextSelection@listEdit@@SAXQAVeditControl@@@AAUcharCount@@1@Z 
01:00048EFC ?setAlignBaseline@listEdit@@SAXQAVeditControl@@@PAUboolean_struct@_builtIn@@@Z 
01:00048F3C ?_getAlignBaseline@listEdit@@SAXQAVeditControl@@@PAPAUboolean_struct@_builtIn@@@Z 
01:00048F50 ?setAutoHScroll@listEdit@@SAXQAVeditControl@@@@Z 
01:00048F64 ?setAutoHScroll@listEdit@@SAXQAVeditControl@@@PAUboolean_struct@_builtIn@@@Z 
01:00048F90 ?_getAutoHScroll@listEdit@@SAXQAVeditControl@@@PAPAUboolean_struct@_builtIn@@@Z 
01:00048FAC ?setBorder@listEdit@@SAXQAVcontrol@@@@Z 
01:00048FC0 ?setBorder@listEdit@@SAXQAVcontrol@@@PAUboolean_struct@_builtIn@@@Z 
01:00048FD8 ?_getBorder@listEdit@@SAXQAVcontrol@@@PAPAUboolean_struct@_builtIn@@@Z 
01:00048FF0 ?setMultiLine@listEdit@@SAXQAVeditControl@@@@Z 
01:00049004 ?setMultiLine@listEdit@@SAXQAVeditControl@@@PAUboolean_struct@_builtIn@@@Z 
01:0004901C ?_getMultiLine@listEdit@@SAXQAVeditControl@@@PAPAUboolean_struct@_builtIn@@@Z 
01:00049034 ?setPassword@listEdit@@SAXQAVeditControl@@@@Z 
01:00049048 ?setPassword@listEdit@@SAXQAVeditControl@@@PAUboolean_struct@_builtIn@@@Z 
01:00049060 ?_getPassword@listEdit@@SAXQAVeditControl@@@PAPAUboolean_struct@_builtIn@@@Z 
01:00049078 ?setHideSel@listEdit@@SAXQAVeditControl@@@@Z 
01:0004908C ?setHideSel@listEdit@@SAXQAVeditControl@@@PAUboolean_struct@_builtIn@@@Z 
01:000490A4 ?_getHideSel@listEdit@@SAXQAVeditControl@@@PAPAUboolean_struct@_builtIn@@@Z 
01:000490BC ?setReadOnly@listEdit@@SAXQAVeditControl@@@@Z 
01:000490D0 ?setReadOnly@listEdit@@SAXQAVeditControl@@@PAUboolean_struct@_builtIn@@@Z 
01:000490E8 ?_getReadOnly@listEdit@@SAXQAVeditControl@@@PAPAUboolean_struct@_builtIn@@@Z 
01:00049100 ?setAlignment@listEdit@@SAXQAVeditControl@@@PAUalignment_struct@vpiDomains@@@Z 
01:00049118 ?_getAlignment@listEdit@@SAXQAVeditControl@@@PAPAUalignment_struct@vpiDomains@@@Z 
01:00049130 ?setUpperCase@listEdit@@SAXQAVeditControl@@@@Z 
01:00049144 ?setUpperCase@listEdit@@SAXQAVeditControl@@@PAUboolean_struct@_builtIn@@@Z 
01:0004915C ?_getUpperCase@listEdit@@SAXQAVeditControl@@@PAPAUboolean_struct@_builtIn@@@Z 
01:00049174 ?setLowerCase@listEdit@@SAXQAVeditControl@@@@Z 
01:00049188 ?setLowerCase@listEdit@@SAXQAVeditControl@@@PAUboolean_struct@_builtIn@@@Z 
01:000491A0 ?_getLowerCase@listEdit@@SAXQAVeditControl@@@PAPAUboolean_struct@_builtIn@@@Z 
01:000491B8 ?setAutoVScroll@listEdit@@SAXQAVeditControl@@@@Z 
01:000491CC ?setAutoVScroll@listEdit@@SAXQAVeditControl@@@PAUboolean_struct@_builtIn@@@Z 
01:000491E4 ?_getAutoVScroll@listEdit@@SAXQAVeditControl@@@PAPAUboolean_struct@_builtIn@@@Z 
01:000491FC ?setHScroll@listEdit@@SAXQAVeditControl@@@@Z 
01:00049210 ?setHScroll@listEdit@@SAXQAVeditControl@@@PAUboolean_struct@_builtIn@@@Z 
01:00049228 ?_getHScroll@listEdit@@SAXQAVeditControl@@@PAPAUboolean_struct@_builtIn@@@Z 
01:00049240 ?setWantReturn@listEdit@@SAXQAVeditControl@@@@Z 
01:00049254 ?setWantReturn@listEdit@@SAXQAVeditControl@@@PAUboolean_struct@_builtIn@@@Z 
01:0004926C ?_getWantReturn@listEdit@@SAXQAVeditControl@@@PAPAUboolean_struct@_builtIn@@@Z 
01:00049284 ?setCueBanner@listEdit@@SAXQAVeditControl@@@PB_WPAUboolean_struct@_builtIn@@@Z 
01:0004929C ?setCueBanner@listEdit@@SAXQAVeditControl@@@PB_W@Z 
01:000492B4 ?_getCueBanner@listEdit@@SAXQAVeditControl@@@PAPB_W@Z 
01:000492CC ?limitText@listEdit@@SGPBUpositive@@QAVeditControl@@@@Z 
01:000492E4 ?limitText@listEdit@@SGXQAVeditControl@@@PBUpositive@@@Z 
01:0004932C ?_new@listEdit@@SAXQAVcontainerWindow@@@PAPAV1@@@Z 
01:00049354 ?_new@listEdit@@SAXPAPAV1@@@Z  (Idle)
01:0004937C ?_object_facts_initializer@listEdit@@SGXQAV1@@@Z 
01:0004939C ?userModifyEventOnly@listEdit@@SGXQAV1@@PAUboolean_struct@_builtIn@@@Z 
01:000493AC ?userModifyEventOnly@listEdit@@SGPAUboolean_struct@_builtIn@@QAV1@@@Z 
01:000493B8 ?new@listButton@@SAXQAV1@@@Z  (Idle)
01:000493E8 ?new@listButton@@SAXQAV1@@QAVcontainerWindow@@@@Z  (Idle)
01:00049400 ?newFriend@listButton@@SAXQAV1@@QAVcontrol@@@I@Z 
01:00049448 ?setAlignBaseline@listButton@@SAXQAV1@@PAUboolean_struct@_builtIn@@@Z 
01:00049488 ?_getAlignBaseline@listButton@@SAXQAV1@@PAPAUboolean_struct@_builtIn@@@Z 
01:0004949C ?_new@listButton@@SAXQAVcontainerWindow@@@PAPAV1@@@Z  (Idle)
01:000494C4 ?_new@listButton@@SAXPAPAV1@@@Z  (Idle)
01:000494EC ?_newFriend@listButton@@SAXQAVcontrol@@@IPAPAV1@@@Z  (Idle)
01:00049518 ?_object_facts_initializer@listButton@@SGXQAV1@@@Z 
01:00049530 ?new@listBox@@SAXQAV1@@QAVcontainerWindow@@@@Z  (Idle)
01:0004954C ?new@listBox@@SAXQAV1@@@Z 
01:000495F0 ?localInitialize@listBox@@SAXQAV1@@@Z 
01:00049700 ?setTopIndex@listBox@@SAXQAV1@@H@Z 
01:0004978C ?_getTopIndex@listBox@@SAXQAV1@@PAH@Z 
01:00049810 ?setTabStops@listBox@@SAXQAV1@@PAU?$__packedList_struct@Uinteger@@@@@Z 
01:000498DC ?setColumnWidth@listBox@@SAXQAV1@@H@Z 
01:00049984 ?addDoubleClickListener@listBox@@SAXQAV1@@X@Z 
01:000499AC ?removeDoubleClickListener@listBox@@SAXQAV1@@X@Z 
01:00049A74 ?addDropDownListener@listBox@@SAXQAVlistControl@@@X@Z 
01:00049A8C ?removeDropDownListener@listBox@@SAXQAVlistControl@@@X@Z 
01:00049AA4 ?addCloseUpListener@listBox@@SAXQAVlistControl@@@X@Z 
01:00049ABC ?removeCloseUpListener@listBox@@SAXQAVlistControl@@@X@Z 
01:00049AD4 ?setMaxDropDownRows@listBox@@SAXQAVlistControl@@@I@Z 
01:00049AEC ?_getMaxDropDownRows@listBox@@SAXQAVlistControl@@@PAI@Z 
01:00049B04 ?_getDroppedState@listBox@@SAXQAVlistControl@@@PAPAUboolean_struct@_builtIn@@@Z 
01:00049B1C ?_dispatchNotification@listBox@@SAXQAVcontrol@@@PBUunsigned16@@PAPAUnativeResponse_struct@window@@@Z 
01:00049B44 ?dispatchActivated@listBox@@SAXQAV1@@@Z 
01:00049BC4 ?setHScroll@listBox@@SAXQAV1@@@Z 
01:00049BD8 ?setHScroll@listBox@@SAXQAV1@@PAUboolean_struct@_builtIn@@@Z 
01:00049C04 ?_getHScroll@listBox@@SAXQAV1@@PAPAUboolean_struct@_builtIn@@@Z 
01:00049C20 ?setBorder@listBox@@SAXQAVcontrol@@@@Z 
01:00049C34 ?setBorder@listBox@@SAXQAVcontrol@@@PAUboolean_struct@_builtIn@@@Z 
01:00049C60 ?_getBorder@listBox@@SAXQAVcontrol@@@PAPAUboolean_struct@_builtIn@@@Z 
01:00049C7C ?setExtendedSel@listBox@@SAXQAV1@@@Z 
01:00049C90 ?setExtendedSel@listBox@@SAXQAV1@@PAUboolean_struct@_builtIn@@@Z 
01:00049CBC ?_getExtendedSel@listBox@@SAXQAV1@@PAPAUboolean_struct@_builtIn@@@Z 
01:00049CD8 ?setUseTabStops@listBox@@SAXQAV1@@@Z 
01:00049CEC ?setUseTabStops@listBox@@SAXQAV1@@PAUboolean_struct@_builtIn@@@Z 
01:00049D18 ?_getUseTabStops@listBox@@SAXQAV1@@PAPAUboolean_struct@_builtIn@@@Z 
01:00049D34 ?setMultiSelect@listBox@@SAXQAV1@@@Z 
01:00049D48 ?setMultiSelect@listBox@@SAXQAV1@@PAUboolean_struct@_builtIn@@@Z 
01:00049D74 ?_getMultiSelect@listBox@@SAXQAV1@@PAPAUboolean_struct@_builtIn@@@Z 
01:00049D90 ?setAutoNotify@listBox@@SAXQAV1@@@Z 
01:00049DA4 ?setAutoNotify@listBox@@SAXQAV1@@PAUboolean_struct@_builtIn@@@Z 
01:00049DD0 ?_getAutoNotify@listBox@@SAXQAV1@@PAPAUboolean_struct@_builtIn@@@Z 
01:00049DEC ?setMultiColumn@listBox@@SAXQAV1@@@Z 
01:00049E00 ?setMultiColumn@listBox@@SAXQAV1@@PAUboolean_struct@_builtIn@@@Z 
01:00049E2C ?_getMultiColumn@listBox@@SAXQAV1@@PAPAUboolean_struct@_builtIn@@@Z 
01:00049E48 ?_new@listBox@@SAXQAVcontainerWindow@@@PAPAV1@@@Z  (Idle)
01:00049E70 ?_new@listBox@@SAXPAPAV1@@@Z  (Idle)
01:00049E98 ?new@integerControl@@SAXQAV1@@@Z  (Idle)
01:00049EE0 ?new@integerControl@@SAXQAV1@@QAVcontainerWindow@@@@Z  (Idle)
01:00049EF8 ?_onIntValidate@integerControl@@SAXQAV1@@QAVcontrol@@@PAPAUvalidateResult_struct@3@@Z 
01:00049FC0 ?setInteger@integerControl@@SAXQAV1@@H@Z 
01:00049FF4 ?_toText@integerControl@@SAXHHPAPB_W@Z 
01:0004A090 ?_getInteger@integerControl@@SAXQAV1@@PAH@Z 
01:0004A0D0 ?_tryGetInteger@integerControl@@SAXQAV1@@PAH@Z 
01:0004A13C ?setMaximum@integerControl@@SAXQAV1@@H@Z 
01:0004A19C ?_getMaximum@integerControl@@SAXQAV1@@PAH@Z 
01:0004A1B0 ?setMinimum@integerControl@@SAXQAV1@@H@Z 
01:0004A210 ?_getMinimum@integerControl@@SAXQAV1@@PAH@Z 
01:0004A224 ?setMandatory@integerControl@@SAXQAV1@@@Z 
01:0004A238 ?setMandatory@integerControl@@SAXQAV1@@PAUboolean_struct@_builtIn@@@Z 
01:0004A24C ?_getMandatory@integerControl@@SAXQAV1@@PAPAUboolean_struct@_builtIn@@@Z 
01:0004A260 ?_checkContent@integerControl@@SAXQAV1@@PB_WPAPAUvalue_struct@core@@@Z 
01:0004A338 ?_whetherEmptyStringAvailable@integerControl@@SAXQAV1@@PAUboolean_struct@_builtIn@@PAPAUvalue_struct@core@@@Z 
01:0004A3C8 ?_checkMinMax@integerControl@@SAXQAV1@@HPAPAUvalue_struct@core@@@Z 
01:0004A5D4 ?setIllegalValueMessage@integerControl@@SAXPB_W@Z  (Idle)
01:0004A5E4 ?setIllegalValueMandatoryMessage@integerControl@@SAXPB_W@Z  (Idle)
01:0004A5F4 ?setIllegalValueMinimumMaximumMessage@integerControl@@SAXPB_W@Z  (Idle)
01:0004A604 ?setIllegalValueMinimumMessage@integerControl@@SAXPB_W@Z  (Idle)
01:0004A614 ?setIllegalValueMaximumMessage@integerControl@@SAXPB_W@Z  (Idle)
01:0004A624 ?_new@integerControl@@SAXQAVcontainerWindow@@@PAPAV1@@@Z  (Idle)
01:0004A64C ?_new@integerControl@@SAXPAPAV1@@@Z 
01:0004A674 ?_object_facts_initializer@integerControl@@SGXQAV1@@@Z 
01:0004A6A4 ?radix@integerControl@@SGXQAV1@@H@Z 
01:0004A6B4 ?new@iconControl@@SAXQAV1@@@Z  (Idle)
01:0004A764 ?new@iconControl@@SAXQAV1@@QAVcontainerWindow@@@@Z  (Idle)
01:0004A780 ?setIconFromFile@iconControl@@SAXQAVwindow@@@PB_W@Z 
01:0004A850 ?setIcon@iconControl@@SAXQAVwindow@@@PBUresid@vpiDomains@@@Z 
01:0004A930 ?autoAdjustRect@iconControl@@SAXQAV1@@@Z 
01:0004A9C0 ?_getIcon@iconControl@@SAXQAV1@@AAUresid@vpiDomains@@@Z 
01:0004AA14 ?setHInstance@iconControl@@SAXQAV1@@PBUhModule@@@Z 
01:0004AA28 ?_getHInstance@iconControl@@SAXQAV1@@AAUhModule@@@Z 
01:0004AA3C ?show@iconControl@@SAXQAVwindow@@@@Z 
01:0004AB58 ?create2@iconControl@@SAXQAV1@@PBUwindowHandle@@PB_WPBUhIcon@gui_native@@@Z  (Idle)
01:0004ABC8 ?create@iconControl@@SAXQAV1@@PBUwindowHandle@@@Z 
01:0004ACEC ?_onIconNative@iconControl@@SAXQAV1@@QAVwindow@@@IPBUwParam@@PBUlParam@@PAPAUnativeResponse_struct@3@@Z 
01:0004AD68 ?_onControlEraseBackground@iconControl@@SAXQAV1@@QAVwindow@@@QAVwindowGDI@@@PAPAUeraseBackgroundResponse_struct@3@@Z 
01:0004AD70 ?setRect@iconControl@@SAXQAVcontrol@@@PAUrct_struct@vpiDomains@@@Z 
--- From 'Obj\errorpresentationdialog.16250CAB.obj'
01:0004ADBC ?_new@iconControl@@SAXQAVcontainerWindow@@@PAPAV1@@@Z 
--- From 'Obj\controls.EA481C3E.obj'
01:0004ADE4 ?_new@iconControl@@SAXPAPAV1@@@Z  (Idle)
01:0004AE0C ?_object_facts_initializer@iconControl@@SGXQAV1@@@Z 
01:0004AE24 ?new@groupBox@@SAXQAV1@@QAVcontainerWindow@@@@Z  (Idle)
01:0004AE40 ?new@groupBox@@SAXQAV1@@@Z 
01:0004AEB8 ?_onControlEraseBackground@groupBox@@SAXQAV1@@QAVwindow@@@QAVwindowGDI@@@PAPAUeraseBackgroundResponse_struct@3@@Z 
01:0004AEC0 ?show@groupBox@@SAXQAVwindow@@@@Z 
01:0004AF2C ?setClientRect@groupBox@@SAXQAVwindow@@@PAUrct_struct@vpiDomains@@@Z 
01:0004B004 ?setBorderStyle@groupBox@@SAXQAV1@@PAUborderStyle_struct@1@@Z 
01:0004B044 ?_getBorderStyle@groupBox@@SAXQAV1@@PAPAUborderStyle_struct@1@@Z 
01:0004B058 ?_onControlNative@groupBox@@SAXQAV1@@QAVwindow@@@IPBUwParam@@PBUlParam@@PAPAUnativeResponse_struct@3@@Z 
01:0004B2D0 ?_unit2Pixel@groupBox@@SAXQAV1@@HPAH@Z 
01:0004B330 ?_inflateClientRect@groupBox@@SAXQAV1@@PAUrct_struct@vpiDomains@@PAPAU34@@Z 
01:0004B3EC ?borderStyle_offsets@groupBox@@SAXPAUborderStyle_struct@1@PAHPAHPAHPAHPAPB_W@Z 
01:0004B4AC ?drawNCBorder@groupBox@@SAXQAV1@@PAUborderStyle_struct@1@PBUhDC@gui_Native@@PAUrct_struct@vpiDomains@@H@Z 
01:0004B744 ?drawNCCaption@groupBox@@SAXQAV1@@PBUhDC@gui_Native@@PAUrct_struct@vpiDomains@@PBUpositive@@@Z 
01:0004B8C0 ?setText@groupBox@@SAXQAVwindow@@@PB_W@Z 
01:0004B8E0 ?invalidateParent@groupBox@@SAXQAV1@@@Z 
01:0004B944 ?_new@groupBox@@SAXQAVcontainerWindow@@@PAPAV1@@@Z 
01:0004B96C ?_new@groupBox@@SAXPAPAV1@@@Z  (Idle)
01:0004B994 ?_object_facts_initializer@groupBox@@SGXQAV1@@@Z 
01:0004B9AC ?new@editControl@@SAXQAV1@@QAVcontainerWindow@@@@Z  (Idle)
01:0004B9C8 ?new@editControl@@SAXQAV1@@@Z 
01:0004B9E0 ?anonymous$o0$1$newwindowclass/1np$editControl@1@SAXPAUanonymous$o0$1$newwindowclass/1np$editControlc_struct@1@QAVwindow@@@@Z 
01:0004BA0C ?newWindowClass@editControl@@SAXQAV1@@PB_W@Z 
01:0004BAB8 ?show@editControl@@SAXQAVwindow@@@@Z 
01:0004BAE0 ?setOuterRect@editControl@@SAXQAVwindow@@@PAUrct_struct@vpiDomains@@@Z 
01:0004BB58 ?_fixEditControlOuterRect@editControl@@SAXPAUboolean_struct@_builtIn@@PAUrct_struct@vpiDomains@@PAPAU45@@Z 
01:0004BBF8 ?setAlignBaseline@editControl@@SAXQAV1@@PAUboolean_struct@_builtIn@@@Z 
01:0004BC38 ?_getAlignBaseline@editControl@@SAXQAV1@@PAPAUboolean_struct@_builtIn@@@Z 
01:0004BC4C ?addModifiedListener@editControl@@SAXQAV1@@X@Z 
01:0004BC74 ?removeModifiedListener@editControl@@SAXQAV1@@X@Z 
01:0004BD3C ?anonymous$o0$1$adddelayedmodifiedlistener/2np$editControl@1@SAXPAUanonymous$o0$1$adddelayedmodifiedlistener/2np$editControlc_struct@1@@Z 
01:0004BD74 ?addDelayedModifiedListener@editControl@@SAXQAV1@@PBUpositive@@X@Z 
01:0004BDEC ?removeDelayedModifiedListener@editControl@@SAXQAV1@@X@Z 
01:0004BEB8 ?dispatchModified@editControl@@SAXQAV1@@@Z  (Idle)
01:0004BFD4 ?_dispatchNotification@editControl@@SAXQAVcontrol@@@PBUunsigned16@@PAPAUnativeResponse_struct@window@@@Z 
01:0004C004 ?_getText@editControl@@SAXQAVwindow@@@PAPB_W@Z 
01:0004C050 ?setText@editControl@@SAXQAVwindow@@@PB_W@Z 
01:0004C068 ?selectText@editControl@@SAXQAV1@@PBUcharCount@@1@Z 
01:0004C094 ?selectAll@editControl@@SAXQAV1@@@Z 
01:0004C0D0 ?getTextSelection@editControl@@SAXQAV1@@AAUcharCount@@1@Z 
01:0004C0FC ?setAutoHScroll@editControl@@SAXQAV1@@@Z 
01:0004C110 ?setAutoHScroll@editControl@@SAXQAV1@@PAUboolean_struct@_builtIn@@@Z 
01:0004C12C ?_getAutoHScroll@editControl@@SAXQAV1@@PAPAUboolean_struct@_builtIn@@@Z 
01:0004C148 ?setAutoVScroll@editControl@@SAXQAV1@@@Z 
01:0004C15C ?setAutoVScroll@editControl@@SAXQAV1@@PAUboolean_struct@_builtIn@@@Z 
01:0004C178 ?_getAutoVScroll@editControl@@SAXQAV1@@PAPAUboolean_struct@_builtIn@@@Z 
01:0004C194 ?setMultiLine@editControl@@SAXQAV1@@@Z 
01:0004C1A8 ?setMultiLine@editControl@@SAXQAV1@@PAUboolean_struct@_builtIn@@@Z 
01:0004C1C4 ?_getMultiLine@editControl@@SAXQAV1@@PAPAUboolean_struct@_builtIn@@@Z 
01:0004C1E0 ?setVScroll@editControl@@SAXQAV1@@@Z 
01:0004C1F4 ?setVScroll@editControl@@SAXQAV1@@PAUboolean_struct@_builtIn@@@Z 
01:0004C210 ?_getVScroll@editControl@@SAXQAV1@@PAPAUboolean_struct@_builtIn@@@Z 
01:0004C22C ?setHScroll@editControl@@SAXQAV1@@@Z 
01:0004C240 ?setHScroll@editControl@@SAXQAV1@@PAUboolean_struct@_builtIn@@@Z 
01:0004C25C ?_getHScroll@editControl@@SAXQAV1@@PAPAUboolean_struct@_builtIn@@@Z 
01:0004C278 ?setWantReturn@editControl@@SAXQAV1@@@Z 
01:0004C28C ?setWantReturn@editControl@@SAXQAV1@@PAUboolean_struct@_builtIn@@@Z 
01:0004C2A8 ?_getWantReturn@editControl@@SAXQAV1@@PAPAUboolean_struct@_builtIn@@@Z 
01:0004C2C4 ?setPassword@editControl@@SAXQAV1@@@Z 
01:0004C2D8 ?setPassword@editControl@@SAXQAV1@@PAUboolean_struct@_builtIn@@@Z 
01:0004C2F4 ?_getPassword@editControl@@SAXQAV1@@PAPAUboolean_struct@_builtIn@@@Z 
01:0004C310 ?setHideSel@editControl@@SAXQAV1@@@Z 
01:0004C324 ?setHideSel@editControl@@SAXQAV1@@PAUboolean_struct@_builtIn@@@Z 
01:0004C354 ?_getHideSel@editControl@@SAXQAV1@@PAPAUboolean_struct@_builtIn@@@Z 
01:0004C380 ?setReadOnly@editControl@@SAXQAV1@@@Z 
01:0004C394 ?setReadOnly@editControl@@SAXQAV1@@PAUboolean_struct@_builtIn@@@Z 
01:0004C41C ?_getReadOnly@editControl@@SAXQAV1@@PAPAUboolean_struct@_builtIn@@@Z 
01:0004C438 ?setAlignment@editControl@@SAXQAV1@@PAUalignment_struct@vpiDomains@@@Z 
01:0004C504 ?_getAlignment@editControl@@SAXQAV1@@PAPAUalignment_struct@vpiDomains@@@Z 
01:0004C52C ?_getAlignment2@editControl@@SAXIPAPAUalignment_struct@vpiDomains@@@Z 
01:0004C560 ?setUpperCase@editControl@@SAXQAV1@@@Z 
01:0004C574 ?setUpperCase@editControl@@SAXQAV1@@PAUboolean_struct@_builtIn@@@Z 
01:0004C5A8 ?_getUpperCase@editControl@@SAXQAV1@@PAPAUboolean_struct@_builtIn@@@Z 
01:0004C5C4 ?setLowerCase@editControl@@SAXQAV1@@@Z 
01:0004C5D8 ?setLowerCase@editControl@@SAXQAV1@@PAUboolean_struct@_builtIn@@@Z 
01:0004C60C ?_getLowerCase@editControl@@SAXQAV1@@PAPAUboolean_struct@_builtIn@@@Z 
01:0004C628 ?anonymous$o0$1$setcuebanner/2np$editControl@1@SAXPAUanonymous$o0$1$setcuebanner/2np$editControlc_struct@1@@Z 
01:0004C694 ?setCueBanner@editControl@@SAXQAV1@@PB_WPAUboolean_struct@_builtIn@@@Z 
01:0004C6D8 ?setCueBanner@editControl@@SAXQAV1@@PB_W@Z 
01:0004C6EC ?_getCueBanner@editControl@@SAXQAV1@@PAPB_W@Z 
01:0004C748 ?limitText@editControl@@SGPBUpositive@@QAV1@@@Z 
01:0004C7A4 ?anonymous$o0$1$limittext/1np$editControl@1@SAXPAUanonymous$o0$1$limittext/1np$editControlc_struct@1@@Z 
01:0004C7F4 ?limitText@editControl@@SGXQAV1@@PBUpositive@@@Z 
--- From 'Obj\errorpresentationdialog.16250CAB.obj'
01:0004C844 ?_new@editControl@@SAXQAVcontainerWindow@@@PAPAV1@@@Z 
--- From 'Obj\controls.EA481C3E.obj'
01:0004C86C ?_new@editControl@@SAXPAPAV1@@@Z 
01:0004C894 ?_newWindowClass@editControl@@SAXPB_WPAPAV1@@@Z  (Idle)
01:0004C8BC ?_object_facts_initializer@editControl@@SGXQAV1@@@Z 
01:0004C8DC ?raise_noSelectedRadioButtonException_explicit@control_exception@@SAXPAUprogramPoint_struct@core@@@Z 
01:0004C8F8 ?raise_wrongRadioButtonException_explicit@control_exception@@SAXPAUprogramPoint_struct@core@@QAVradioButton@@@@Z 
01:0004C97C ?raise_integerControlIllegalContentException_explicit@control_exception@@SAXPAUprogramPoint_struct@core@@@Z 
01:0004C998 ?raise_realControlIllegalContentException_explicit@control_exception@@SAXPAUprogramPoint_struct@core@@@Z 
01:0004C9B4 ?raise_minimumGreaterThanMaximumException_explicit@control_exception@@SAXPAUprogramPoint_struct@core@@PAN@Z 
01:0004CA28 ?raise_maximumLessThanMinimumException_explicit@control_exception@@SAXPAUprogramPoint_struct@core@@PAN@Z 
01:0004CA9C ?raise_onlyOneCancelException_explicit@control_exception@@SAXPAUprogramPoint_struct@core@@@Z  (Idle)
01:0004CAB8 ?new@containerControl@@SAXQAV1@@@Z  (Idle)
01:0004CB98 ?new@containerControl@@SAXQAV1@@QAVcontainerWindow@@@@Z  (Idle)
01:0004CBB4 ?show@containerControl@@SAXQAVwindow@@@@Z 
01:0004CD60 ?_tryGetControl@containerControl@@SAXQAVcontainerWindow@@@PAPAVcontrol@@@@Z 
01:0004CD84 ?setContainer@containerControl@@SAXQAVcontrol@@@QAVcontainerWindow@@@@Z 
01:0004CE30 ?_onControlEraseBackground@containerControl@@SAXQAV1@@QAVwindow@@@QAVwindowGDI@@@PAPAUeraseBackgroundResponse_struct@3@@Z 
01:0004CE38 ?_onControlNative@containerControl@@SAXQAV1@@QAVwindow@@@IPBUwParam@@PBUlParam@@PAPAUnativeResponse_struct@3@@Z 
01:0004CFC8 ?_validate@containerControl@@SAXQAVcontrol@@@PAPAUvalidateResult_struct@2@@Z 
01:0004D038 ?_new@containerControl@@SAXQAVcontainerWindow@@@PAPAV1@@@Z  (Idle)
01:0004D060 ?_new@containerControl@@SAXPAPAV1@@@Z  (Idle)
01:0004D088 ?_object_facts_initializer@containerControl@@SGXQAV1@@@Z 
01:0004D0A0 ?new@checkButton@@SAXQAV1@@QAVcontainerWindow@@@@Z  (Idle)
01:0004D0BC ?anonymous$o0$1$new/0np$checkButton@1@SAXPAUanonymous$o0$1$new/0np$checkButtonc_struct@1@@Z 
01:0004D0E8 ?new@checkButton@@SAXQAV1@@@Z 
01:0004D17C ?setOuterRect@checkButton@@SAXQAVwindow@@@PAUrct_struct@vpiDomains@@@Z 
01:0004D1B4 ?setAlignBaseline@checkButton@@SAXQAV1@@PAUboolean_struct@_builtIn@@@Z 
01:0004D1F4 ?_getAlignBaseline@checkButton@@SAXQAV1@@PAPAUboolean_struct@_builtIn@@@Z 
01:0004D208 ?defaultClickResponder@checkButton@@SAXQAV1@@@Z 
01:0004D210 ?setClickResponder@checkButton@@SAXQAV1@@X@Z 
01:0004D224 ?_getClickResponder@checkButton@@SAXQAV1@@PAX@Z 
01:0004D238 ?resetClickResponder@checkButton@@SAXQAV1@@@Z 
01:0004D24C ?addStateChangedListener@checkButton@@SAXQAV1@@X@Z 
01:0004D274 ?removeStateChangedListener@checkButton@@SAXQAV1@@X@Z 
01:0004D33C ?click@checkButton@@SAXQAV1@@@Z  (Idle)
01:0004D3A8 ?dispatchStateChanged@checkButton@@SAXQAV1@@PAUstate_struct@1@1@Z 
01:0004D43C ?_dispatchNotification@checkButton@@SAXQAVcontrol@@@PBUunsigned16@@PAPAUnativeResponse_struct@window@@@Z 
01:0004D46C ?_getCheckedState@checkButton@@SAXQAV1@@PAPAUstate_struct@1@@Z 
01:0004D554 ?setCheckedState@checkButton@@SAXQAV1@@PAUstate_struct@1@@Z 
01:0004D5BC ?stateTable@checkButton@@SAXPAUstate_struct@1@PAI@Z 
01:0004D5F0 ?setChecked@checkButton@@SAXQAV1@@PAUboolean_struct@_builtIn@@@Z 
01:0004D61C ?_getChecked@checkButton@@SAXQAV1@@PAPAUboolean_struct@_builtIn@@@Z 
01:0004D65C ?setStyle@checkButton@@SAXQAV1@@PAUboolean_struct@_builtIn@@1@Z 
01:0004D6D8 ?getStyle@checkButton@@SAXQAV1@@PAPAUboolean_struct@_builtIn@@1@Z 
01:0004D770 ?buttonStyleTable@checkButton@@SAXPAUboolean_struct@_builtIn@@0PAI@Z 
01:0004D7C0 ?setAuto@checkButton@@SAXQAV1@@@Z 
01:0004D7D4 ?setAuto@checkButton@@SAXQAV1@@PAUboolean_struct@_builtIn@@@Z 
01:0004D800 ?_getAuto@checkButton@@SAXQAV1@@PAPAUboolean_struct@_builtIn@@@Z 
01:0004D820 ?setLeftText@checkButton@@SAXQAV1@@@Z 
01:0004D834 ?setLeftText@checkButton@@SAXQAV1@@PAUboolean_struct@_builtIn@@@Z 
01:0004D8A8 ?_getLeftText@checkButton@@SAXQAV1@@PAPAUboolean_struct@_builtIn@@@Z 
01:0004D8C4 ?_new@checkButton@@SAXQAVcontainerWindow@@@PAPAV1@@@Z 
01:0004D8EC ?_new@checkButton@@SAXPAPAV1@@@Z  (Idle)
01:0004D914 ?stateTable@checkButton@@SAXPAPAUstate_struct@1@I@Z 
01:0004D954 ?buttonStyleTable@checkButton@@SAXPAPAUboolean_struct@_builtIn@@0I@Z 
01:0004D9D8 ?_object_facts_initializer@checkButton@@SGXQAV1@@@Z 
01:0004D9FC ?new@button@@SAXQAV1@@QAVcontainerWindow@@@@Z  (Idle)
01:0004DA18 ?new@button@@SAXQAV1@@@Z 
01:0004DA70 ?anonymous$o0$1$newok/1np$button@1@SAXPAUanonymous$o0$1$newok/1np$buttonc_struct@1@QAVwindow@@@PBUlParam@@@Z 
01:0004DB00 ?newOk@button@@SAXQAV1@@QAVcontainerWindow@@@@Z  (Idle)
01:0004DB7C ?newCancel@button@@SAXQAV1@@QAVcontainerWindow@@@@Z  (Idle)
01:0004DBFC ?show@button@@SAXQAVwindow@@@@Z 
01:0004DCD0 ?anonymous$o0$1$defaultheight/1np$button@1@SAXPAUanonymous$o0$1$defaultheight/1np$buttonc_struct@1@@Z 
01:0004DCF0 ?defaultHeight@button@@SGXQAV1@@PAUboolean_struct@_builtIn@@@Z 
01:0004DD44 ?defaultHeight@button@@SGPAUboolean_struct@_builtIn@@QAV1@@@Z 
01:0004DD84 ?onCancelButtonDestroy@button@@SAXQAV1@@QAVwindow@@@@Z 
01:0004DE38 ?_getClickResponder@button@@SAXQAV1@@PAX@Z 
01:0004DE4C ?setClickResponder@button@@SAXQAV1@@X@Z 
01:0004DE60 ?resetClickResponder@button@@SAXQAV1@@@Z 
01:0004DE74 ?_defaultClickResponder@button@@SAXQAV1@@PAPAUactionResponse_struct@1@@Z 
01:0004DE88 ?click@button@@SAXQAV1@@@Z 
01:0004DFCC ?_dispatchNotification@button@@SAXQAVcontrol@@@PBUunsigned16@@PAPAUnativeResponse_struct@window@@@Z 
01:0004DFFC ?setValidateOnClick@button@@SAXQAV1@@@Z 
01:0004E010 ?setValidateOnClick@button@@SAXQAV1@@PAUboolean_struct@_builtIn@@@Z 
01:0004E024 ?_getValidateOnClick@button@@SAXQAV1@@PAPAUboolean_struct@_builtIn@@@Z 
01:0004E038 ?setImageList@button@@SAXQAV1@@QAVimageList@@@@Z 
01:0004E060 ?anonymous$o0$1$setimagelist/6np$button@1@SAXPAUanonymous$o0$1$setimagelist/6np$buttonc_struct@1@@Z 
01:0004E0C8 ?setImageList@button@@SAXQAV1@@QAVimageList@@@HHHHPAUimageAlign_struct@1@@Z 
01:0004E180 ?_toAlignNative@button@@SAXPAUimageAlign_struct@1@AAUbutton_imageList_align@gui_native@@@Z 
--- From 'Obj\errorpresentationdialog.16250CAB.obj'
01:0004E1C4 ?_new@button@@SAXQAVcontainerWindow@@@PAPAV1@@@Z 
--- From 'Obj\controls.EA481C3E.obj'
01:0004E1EC ?_new@button@@SAXPAPAV1@@@Z  (Idle)
--- From 'Obj\errorpresentationdialog.16250CAB.obj'
01:0004E214 ?_newOk@button@@SAXQAVcontainerWindow@@@PAPAV1@@@Z 
01:0004E23C ?_newCancel@button@@SAXQAVcontainerWindow@@@PAPAV1@@@Z 
--- From 'Obj\controls.EA481C3E.obj'
01:0004E264 ?_object_facts_initializer@button@@SGXQAV1@@@Z 
01:0004F3DC versionControl?_initObject@@@QAGXQAV1@H@Z 
01:0004F408 ?@create_object@versionControl@@SGQAV1@@XZ 
01:0004F424 versionControl?_InternalFinalizer@@@QAGXQAV1@@Z 
01:00051A6C timerControl?_initObject@@@QAGXQAV1@H@Z 
01:00051AA4 ?@create_object@timerControl@@SGQAV1@@XZ 
01:00051AC0 timerControl?_InternalFinalizer@@@QAGXQAV1@@Z 
--- From 'Obj\controlsupport.CD1DE148.obj'
01:00054154 textControl?_initObject@@@QAGXQAV1@H@Z 
--- From 'Obj\controls.EA481C3E.obj'
01:0005418C ?@create_object@textControl@@SGQAV1@@XZ 
--- From 'Obj\controlsupport.CD1DE148.obj'
01:000541A8 textControl?_InternalFinalizer@@@QAGXQAV1@@Z 
--- From 'Obj\controls.EA481C3E.obj'
01:0005681C scrollControl?_initObject@@@QAGXQAV1@H@Z 
01:00056848 ?@create_object@scrollControl@@SGQAV1@@XZ 
01:00056864 scrollControl?_InternalFinalizer@@@QAGXQAV1@@Z 
01:00058E1C realControl?_initObject@@@QAGXQAV1@H@Z 
01:00058E60 ?@create_object@realControl@@SGQAV1@@XZ 
01:00058E7C realControl?_InternalFinalizer@@@QAGXQAV1@@Z 
01:00058E94 radioButtonGroup?_initObject@@@QAGXQAV1@H@Z 
01:00058EAC ?@create_object@radioButtonGroup@@SGQAV1@@XZ 
01:00058EC8 radioButtonGroup?_InternalFinalizer@@@QAGXQAV1@@Z 
01:0005B55C radioButton?_initObject@@@QAGXQAV1@H@Z 
01:0005B594 ?@create_object@radioButton@@SGQAV1@@XZ 
01:0005B5B0 radioButton?_InternalFinalizer@@@QAGXQAV1@@Z 
01:0005F338 listEdit?_initObject@@@QAGXQAV1@H@Z 
01:0005F370 ?@create_object@listEdit@@SGQAV1@@XZ 
01:0005F38C listEdit?_InternalFinalizer@@@QAGXQAV1@@Z 
01:00063184 listButton?_initObject@@@QAGXQAV1@H@Z 
01:000631BC ?@create_object@listButton@@SGQAV1@@XZ 
01:000631D8 listButton?_InternalFinalizer@@@QAGXQAV1@@Z 
01:00066F64 listBox?_initObject@@@QAGXQAV1@H@Z 
01:00066F90 ?@create_object@listBox@@SGQAV1@@XZ 
01:00066FAC listBox?_InternalFinalizer@@@QAGXQAV1@@Z 
01:00069554 integerControl?_initObject@@@QAGXQAV1@H@Z 
01:00069598 ?@create_object@integerControl@@SGQAV1@@XZ 
01:000695B4 integerControl?_InternalFinalizer@@@QAGXQAV1@@Z 
01:0006AC54 iconControl?_initObject@@@QAGXQAV1@H@Z 
01:0006ACA8 ?@create_object@iconControl@@SGQAV1@@XZ 
01:0006ACC4 iconControl?_InternalFinalizer@@@QAGXQAV1@@Z 
01:0006E03C groupBox?_initObject@@@QAGXQAV1@H@Z 
01:0006E070 ?@create_object@groupBox@@SGQAV1@@XZ 
01:0006E08C groupBox?_InternalFinalizer@@@QAGXQAV1@@Z 
01:000716B8 editControl?_initObject@@@QAGXQAV1@H@Z 
01:000716F0 ?@create_object@editControl@@SGQAV1@@XZ 
01:0007170C editControl?_InternalFinalizer@@@QAGXQAV1@@Z 
01:00073DE0 containerControl?_initObject@@@QAGXQAV1@H@Z 
01:00073E40 ?@create_object@containerControl@@SGQAV1@@XZ 
01:00073E5C containerControl?_InternalFinalizer@@@QAGXQAV1@@Z 
01:00076508 checkButton?_initObject@@@QAGXQAV1@H@Z 
01:00076540 ?@create_object@checkButton@@SGQAV1@@XZ 
01:0007655C checkButton?_InternalFinalizer@@@QAGXQAV1@@Z 
01:00078BFC button?_initObject@@@QAGXQAV1@H@Z 
01:00078C34 ?@create_object@button@@SGQAV1@@XZ 
01:00078C50 button?_InternalFinalizer@@@QAGXQAV1@@Z 
--- From 'Obj\gdiplus.D367CAF6.obj'
01:00078C60 ?newNative@textureBrush@@SAXQAV1@@PBUgpTexture@gdiplus_native@@@Z  (Idle)
01:00078C84 ?create@textureBrush@@SAXQAV1@@QAVimage@@@@Z  (Idle)
01:00078C98 ?create@textureBrush@@SAXQAV1@@QAVimage@@@PBUgpWrapMode@gdiplus_native@@@Z 
01:00078CD8 ?createF@textureBrush@@SAXQAV1@@QAVimage@@@PBUgpWrapMode@gdiplus_native@@PAUrectF_struct@gdiplus@@@Z  (Idle)
01:00078D5C ?createF@textureBrush@@SAXQAV1@@QAVimage@@@PBUgpWrapMode@gdiplus_native@@PANPANPANPAN@Z  (Idle)
01:00078E0C ?createI@textureBrush@@SAXQAV1@@QAVimage@@@PBUgpWrapMode@gdiplus_native@@HHHH@Z  (Idle)
01:00078E44 ?createI@textureBrush@@SAXQAV1@@QAVimage@@@PBUgpWrapMode@gdiplus_native@@PAUrectI_struct@gdiplus@@@Z 
01:00078EAC ?createIAF@textureBrush@@SAXQAV1@@QAVimage@@@PAUrectF_struct@gdiplus@@@Z  (Idle)
01:00078F2C ?createIAF@textureBrush@@SAXQAV1@@QAVimage@@@PAUrectF_struct@gdiplus@@QAVimageAttributes@@@@Z  (Idle)
01:00078FBC ?createIAI@textureBrush@@SAXQAV1@@QAVimage@@@PAUrectI_struct@gdiplus@@@Z  (Idle)
01:00079020 ?createIAI@textureBrush@@SAXQAV1@@QAVimage@@@PAUrectI_struct@gdiplus@@QAVimageAttributes@@@@Z  (Idle)
01:00079094 ?transform@textureBrush@@SGQAVmatrix@@@QAV1@@@Z 
01:000790EC ?transform@textureBrush@@SGXQAV1@@QAVmatrix@@@@Z 
01:00079130 ?resetTransform@textureBrush@@SAXQAV1@@@Z 
01:00079164 ?multiplyTransform@textureBrush@@SAXQAV1@@QAVmatrix@@@@Z 
01:00079178 ?multiplyTransform@textureBrush@@SAXQAV1@@QAVmatrix@@@PBUgpMatrixOrder@gdiplus_native@@@Z 
01:000791B8 ?translateTransform@textureBrush@@SAXQAV1@@PANPAN@Z 
01:000791CC ?translateTransform@textureBrush@@SAXQAV1@@PANPANPBUgpMatrixOrder@gdiplus_native@@@Z 
01:0007924C ?scaleTransform@textureBrush@@SAXQAV1@@PANPAN@Z 
01:00079260 ?scaleTransform@textureBrush@@SAXQAV1@@PANPANPBUgpMatrixOrder@gdiplus_native@@@Z 
01:000792E0 ?rotateTransform@textureBrush@@SAXQAV1@@PAN@Z 
01:000792F4 ?rotateTransform@textureBrush@@SAXQAV1@@PANPBUgpMatrixOrder@gdiplus_native@@@Z 
01:0007934C ?wrapMode@textureBrush@@SGPBUgpWrapMode@gdiplus_native@@QAV1@@@Z 
01:00079388 ?wrapMode@textureBrush@@SGXQAV1@@PBUgpWrapMode@gdiplus_native@@@Z 
01:000793C0 ?image@textureBrush@@SGQAV0@@QAV1@@@Z 
01:00079410 ?_newNative@textureBrush@@SAXPBUgpTexture@gdiplus_native@@PAPAV1@@@Z  (Idle)
01:00079438 ?_create@textureBrush@@SAXQAVimage@@@PAPAV1@@@Z  (Idle)
01:00079460 ?_create@textureBrush@@SAXQAVimage@@@PBUgpWrapMode@gdiplus_native@@PAPAV1@@@Z  (Idle)
01:0007948C ?_createF@textureBrush@@SAXQAVimage@@@PBUgpWrapMode@gdiplus_native@@PAUrectF_struct@gdiplus@@PAPAV1@@@Z  (Idle)
01:000794BC ?_createF@textureBrush@@SAXQAVimage@@@PBUgpWrapMode@gdiplus_native@@PANPANPANPANPAPAV1@@@Z  (Idle)
01:000794F4 ?_createI@textureBrush@@SAXQAVimage@@@PBUgpWrapMode@gdiplus_native@@HHHHPAPAV1@@@Z  (Idle)
01:0007952C ?_createI@textureBrush@@SAXQAVimage@@@PBUgpWrapMode@gdiplus_native@@PAUrectI_struct@gdiplus@@PAPAV1@@@Z  (Idle)
01:0007955C ?_createIAF@textureBrush@@SAXQAVimage@@@PAUrectF_struct@gdiplus@@PAPAV1@@@Z  (Idle)
01:00079588 ?_createIAF@textureBrush@@SAXQAVimage@@@PAUrectF_struct@gdiplus@@QAVimageAttributes@@@PAPAV1@@@Z  (Idle)
01:000795B8 ?_createIAI@textureBrush@@SAXQAVimage@@@PAUrectI_struct@gdiplus@@PAPAV1@@@Z  (Idle)
01:000795E4 ?_createIAI@textureBrush@@SAXQAVimage@@@PAUrectI_struct@gdiplus@@QAVimageAttributes@@@PAPAV1@@@Z  (Idle)
01:00079614 ?nativeTextureBrush@textureBrush@@SGPBUgpTexture@gdiplus_native@@QAV1@@@Z 
01:00079620 ?newNative@stringFormat@@SAXQAV1@@PBUgpStringFormat@gdiplus_native@@@Z  (Idle)
01:00079634 ?create@stringFormat@@SAXQAV1@@HPBUlangid@gui_native@@@Z  (Idle)
01:0007966C ?create@stringFormat@@SAXQAV1@@@Z  (Idle)
01:0007969C ?finalize@stringFormat@@SGXQAV1@@@Z 
01:000796FC ?_clone@stringFormat@@SAXQAV1@@PAPAV1@@@Z 
01:00079738 ?formatFlags@stringFormat@@SGHQAV1@@@Z 
01:00079774 ?formatFlags@stringFormat@@SGXQAV1@@H@Z 
01:000797AC ?alignment@stringFormat@@SGPBUstringAlignment@gdiplus_native@@QAV1@@@Z 
01:000797E8 ?alignment@stringFormat@@SGXQAV1@@PBUstringAlignment@gdiplus_native@@@Z 
01:00079820 ?lineAlignment@stringFormat@@SGPBUstringAlignment@gdiplus_native@@QAV1@@@Z 
01:0007985C ?lineAlignment@stringFormat@@SGXQAV1@@PBUstringAlignment@gdiplus_native@@@Z 
01:00079894 ?hotkeyPrefix@stringFormat@@SGHQAV1@@@Z 
01:000798D0 ?hotkeyPrefix@stringFormat@@SGXQAV1@@H@Z 
01:00079908 ?tabstopCount@stringFormat@@SGPBUpositive@@QAV1@@@Z 
01:00079954 ?setTabStops@stringFormat@@SAXQAV1@@PANPAU?$__packedList_struct@PAN@@@Z 
01:000799C4 ?getTabStops@stringFormat@@SAXQAV1@@PAPANPAPAU?$__packedList_struct@PAPAN@@@Z 
01:00079AA4 ?setDigitSubstitution@stringFormat@@SAXQAV1@@PBUlangid@gui_native@@PBUstringDigitSubstitute@gdiplus_native@@@Z 
01:00079AD8 ?getDigitSubstitution@stringFormat@@SAXQAV1@@AAUlangid@gui_native@@AAUstringDigitSubstitute@gdiplus_native@@@Z 
01:00079B0C ?trimming@stringFormat@@SGPBUstringTrimming@gdiplus_native@@QAV1@@@Z 
01:00079B48 ?trimming@stringFormat@@SGXQAV1@@PBUstringTrimming@gdiplus_native@@@Z 
01:00079B80 ?measurableCharacterRangeCount@stringFormat@@SGPBUpositive@@QAV1@@@Z 
01:00079BCC ?anonymous$o0$1$measurablecharacterrange/1np$stringFormat@1@SAXPAXPAUcharacterRange_struct@gdiplus@@@Z 
01:00079C08 ?measurableCharacterRange@stringFormat@@SGXQAV1@@PAU?$__packedList_struct@UcharacterRange@gdiplus@@@@@Z 
01:00079C68 ?genericDefault@stringFormat@@SGQAV1@@QAV1@@@Z 
01:00079CAC ?genericTypographi@stringFormat@@SGQAV1@@QAV1@@@Z 
01:00079CF0 ?_newNative@stringFormat@@SAXPBUgpStringFormat@gdiplus_native@@PAPAV1@@@Z 
01:00079D18 ?_create@stringFormat@@SAXPAPAV1@@@Z  (Idle)
01:00079D40 ?_create@stringFormat@@SAXHPBUlangid@gui_native@@PAPAV1@@@Z  (Idle)
01:00079D6C ?nativeStringFormat@stringFormat@@SGPBUgpStringFormat@gdiplus_native@@QAV1@@@Z 
01:00079D78 ?newNative@solidBrush@@SAXQAV1@@PBUgpSolidFill@gdiplus_native@@@Z  (Idle)
01:00079D9C ?create@solidBrush@@SAXQAV1@@QAVcolor@@@@Z  (Idle)
01:00079DC8 ?_newNative@solidBrush@@SAXPBUgpSolidFill@gdiplus_native@@PAPAV1@@@Z  (Idle)
01:00079DF0 ?_create@solidBrush@@SAXQAVcolor@@@PAPAV1@@@Z  (Idle)
01:00079E18 ?nativeSolidBrush@solidBrush@@SGPBUgpSolidFill@gdiplus_native@@QAV1@@@Z 
01:00079E24 ?newNative@region@@SAXQAV1@@PBUgpRegion@gdiplus_native@@@Z  (Idle)
01:00079E38 ?create@region@@SAXQAV1@@@Z  (Idle)
01:00079E68 ?createRectF@region@@SAXQAV1@@PAUrectF_struct@gdiplus@@@Z  (Idle)
01:00079E9C ?createRectI@region@@SAXQAV1@@PAUrectI_struct@gdiplus@@@Z  (Idle)
01:00079ED4 ?createPath@region@@SAXQAV1@@QAVgraphicsPath@@@@Z  (Idle)
01:00079F18 ?createRegionData@region@@SAXQAV1@@PAXPBUpositive@@@Z  (Idle)
01:00079F50 ?createHRGN@region@@SAXQAV1@@PBUhRgn@gui_native@@@Z  (Idle)
01:00079F88 ?finalize@region@@SGXQAV1@@@Z 
01:00079FE8 ?_fromHrgn@region@@SAXQAV1@@PBUhRgn@gui_native@@PAPAV1@@@Z 
01:0007A000 ?_clone@region@@SAXQAV1@@PAPAV1@@@Z 
01:0007A03C ?makeInfinite@region@@SAXQAV1@@@Z 
01:0007A070 ?makeEmpty@region@@SAXQAV1@@@Z 
01:0007A0A4 ?intersectRectF@region@@SAXQAV1@@PAUrectF_struct@gdiplus@@@Z 
01:0007A0D8 ?intersectRectI@region@@SAXQAV1@@PAUrectI_struct@gdiplus@@@Z 
01:0007A10C ?intersectPath@region@@SAXQAV1@@QAVgraphicsPath@@@@Z 
01:0007A14C ?intersectRegion@region@@SAXQAV1@@0@Z 
01:0007A18C ?unionRectF@region@@SAXQAV1@@PAUrectF_struct@gdiplus@@@Z 
01:0007A1C0 ?unionRectI@region@@SAXQAV1@@PAUrectI_struct@gdiplus@@@Z 
01:0007A1F4 ?unionPath@region@@SAXQAV1@@QAVgraphicsPath@@@@Z 
01:0007A234 ?unionRegion@region@@SAXQAV1@@0@Z 
01:0007A274 ?xorRectF@region@@SAXQAV1@@PAUrectF_struct@gdiplus@@@Z 
01:0007A2A8 ?xorRectI@region@@SAXQAV1@@PAUrectI_struct@gdiplus@@@Z 
01:0007A2DC ?xorPath@region@@SAXQAV1@@QAVgraphicsPath@@@@Z 
01:0007A31C ?xorRegion@region@@SAXQAV1@@0@Z 
01:0007A35C ?excludeRectF@region@@SAXQAV1@@PAUrectF_struct@gdiplus@@@Z 
01:0007A390 ?excludeRectI@region@@SAXQAV1@@PAUrectI_struct@gdiplus@@@Z 
01:0007A3C4 ?excludePath@region@@SAXQAV1@@QAVgraphicsPath@@@@Z 
01:0007A404 ?excludeRegion@region@@SAXQAV1@@0@Z 
01:0007A444 ?complementRectF@region@@SAXQAV1@@PAUrectF_struct@gdiplus@@@Z 
01:0007A478 ?complementRectI@region@@SAXQAV1@@PAUrectI_struct@gdiplus@@@Z 
01:0007A4AC ?complementPath@region@@SAXQAV1@@QAVgraphicsPath@@@@Z 
01:0007A4EC ?complementRegion@region@@SAXQAV1@@0@Z 
01:0007A52C ?translateF@region@@SAXQAV1@@PANPAN@Z 
01:0007A5A8 ?translateI@region@@SAXQAV1@@HH@Z 
01:0007A5DC ?transform@region@@SAXQAV1@@QAVmatrix@@@@Z 
01:0007A618 ?_getBoundsF@region@@SAXQAV1@@QAVgraphics@@@PAPAUrectF_struct@gdiplus@@@Z 
01:0007A678 ?_getBoundsI@region@@SAXQAV1@@QAVgraphics@@@PAPAUrectI_struct@gdiplus@@@Z 
01:0007A6D8 ?_getHRGN@region@@SAXQAV1@@QAVgraphics@@@AAUhRgn@gui_native@@@Z 
01:0007A718 ?isEmpty@region@@SAXQAV1@@QAVgraphics@@@@Z 
01:0007A768 ?isInfinite@region@@SAXQAV1@@QAVgraphics@@@@Z 
01:0007A7B8 ?equals@region@@SAXQAV1@@0QAVgraphics@@@@Z 
01:0007A818 ?_getDataSize@region@@SAXQAV1@@AAUbyteCount@@@Z 
01:0007A864 ?_getData@region@@SAXQAV1@@PAPAXAAUbyteCount@@@Z 
01:0007A8E0 ?isVisibleF@region@@SAXQAV1@@PAUpointF_struct@gdiplus@@@Z 
01:0007A8F4 ?isVisibleF@region@@SAXQAV1@@PANPAN@Z 
01:0007A964 ?isVisiblePointF@region@@SAXQAV1@@PAUpointF_struct@gdiplus@@PAUoptional_struct@core@@QAVgraphics@@@@Z 
01:0007A9F4 ?isVisibleRectF@region@@SAXQAV1@@PAUrectF_struct@gdiplus@@PAUoptional_struct@core@@QAVgraphics@@@@Z 
01:0007AAA0 ?isVisibleI@region@@SAXQAV1@@PAUpointI_struct@gdiplus@@@Z 
01:0007AAB4 ?isVisibleI@region@@SAXQAV1@@HH@Z 
01:0007AAE8 ?isVisiblePointI@region@@SAXQAV1@@PAUpointI_struct@gdiplus@@PAUoptional_struct@core@@QAVgraphics@@@@Z 
01:0007AB6C ?isVisibleRectI@region@@SAXQAV1@@PAUrectI_struct@gdiplus@@PAUoptional_struct@core@@QAVgraphics@@@@Z 
01:0007AC00 ?_getRegionScanCount@region@@SAXQAV1@@QAVmatrix@@@AAUpositive@@@Z 
01:0007AC5C ?_getRegionScanF@region@@SAXQAV1@@QAVmatrix@@@PAPAU?$__packedList_struct@UrectF@@@@@Z 
01:0007AD18 ?_getRegionScanI@region@@SAXQAV1@@QAVmatrix@@@PAPAU?$__packedList_struct@UrectI@@@@@Z 
01:0007ADD4 ?_newNative@region@@SAXPBUgpRegion@gdiplus_native@@PAPAV1@@@Z 
01:0007ADFC ?_create@region@@SAXPAPAV1@@@Z  (Idle)
01:0007AE24 ?_createRectF@region@@SAXPAUrectF_struct@gdiplus@@PAPAV1@@@Z  (Idle)
01:0007AE4C ?_createRectI@region@@SAXPAUrectI_struct@gdiplus@@PAPAV1@@@Z  (Idle)
01:0007AE74 ?_createPath@region@@SAXQAVgraphicsPath@@@PAPAV1@@@Z  (Idle)
01:0007AE9C ?_createRegionData@region@@SAXPAXPBUpositive@@PAPAV1@@@Z  (Idle)
01:0007AEC8 ?_createHRGN@region@@SAXPBUhRgn@gui_native@@PAPAV1@@@Z 
01:0007AEF0 ?nativeRegion@region@@SGXQAV1@@PBUgpRegion@gdiplus_native@@@Z 
01:0007AF00 ?nativeRegion@region@@SGPBUgpRegion@gdiplus_native@@QAV1@@@Z 
01:0007AF0C ?create@privateFontCollection@@SAXQAV1@@@Z  (Idle)
01:0007AF40 ?_create@privateFontCollection@@SAXPAPAV1@@@Z  (Idle)
01:0007AF64 ?create@pen@@SAXQAV1@@@Z  (Idle)
01:0007AF9C ?newNative@pen@@SAXQAV1@@PBUgpPen@gdiplus_native@@@Z  (Idle)
01:0007AFB0 ?createBrush@pen@@SAXQAV1@@PANQAVbrush@@@@Z  (Idle)
01:0007B018 ?createColor@pen@@SAXQAV1@@QAVcolor@@@PANPBUgpUnit@gdiplus_native@@@Z 
01:0007B084 ?finalize@pen@@SGXQAV1@@@Z 
01:0007B0E4 ?_clone@pen@@SAXQAV1@@PAPAV1@@@Z 
01:0007B120 ?alignment@pen@@SGPBUgpPenAlignment@gdiplus_native@@QAV1@@@Z 
01:0007B15C ?alignment@pen@@SGXQAV1@@PBUgpPenAlignment@gdiplus_native@@@Z 
01:0007B194 ?brush@pen@@SGQAV0@@QAV1@@@Z 
01:0007B32C ?brush@pen@@SGXQAV1@@QAV0@@@Z 
01:0007B370 ?color@pen@@SGQAV0@@QAV1@@@Z 
01:0007B400 ?color@pen@@SGXQAV1@@QAV0@@@Z 
01:0007B444 ?compoundArray@pen@@SGPAU?$__packedList_struct@PAN@@QAV1@@@Z 
01:0007B4F0 ?compoundArray@pen@@SGXQAV1@@PAU?$__packedList_struct@PAN@@@Z 
01:0007B544 ?customEndCap@pen@@SGQAVcustomLineCap@@@QAV1@@@Z 
01:0007B594 ?customEndCap@pen@@SGXQAV1@@QAVcustomLineCap@@@@Z 
01:0007B5D8 ?customStartCap@pen@@SGQAVcustomLineCap@@@QAV1@@@Z 
01:0007B628 ?customStartCap@pen@@SGXQAV1@@QAVcustomLineCap@@@@Z 
01:0007B66C ?dashCap@pen@@SGPBUgpDashCap@gdiplus_native@@QAV1@@@Z 
01:0007B6A8 ?dashCap@pen@@SGXQAV1@@PBUgpDashCap@gdiplus_native@@@Z 
01:0007B6E0 ?_dashOffset@pen@@SAXQAV1@@PAPAN@Z 
01:0007B74C ?dashOffset@pen@@SAXQAV1@@PAN@Z 
01:0007B7A0 ?dashPattern@pen@@SGPAU?$__packedList_struct@PAN@@QAV1@@@Z 
01:0007B84C ?dashPattern@pen@@SGXQAV1@@PAU?$__packedList_struct@PAN@@@Z 
01:0007B8A0 ?dashStyle@pen@@SGPBUgpDashStyle@gdiplus_native@@QAV1@@@Z 
01:0007B8DC ?dashStyle@pen@@SGXQAV1@@PBUgpDashStyle@gdiplus_native@@@Z 
01:0007B914 ?endCap@pen@@SGPBUgpLineCap@gdiplus_native@@QAV1@@@Z 
01:0007B950 ?endCap@pen@@SGXQAV1@@PBUgpLineCap@gdiplus_native@@@Z 
01:0007B988 ?startCap@pen@@SGPBUgpLineCap@gdiplus_native@@QAV1@@@Z 
01:0007B9C4 ?startCap@pen@@SGXQAV1@@PBUgpLineCap@gdiplus_native@@@Z 
01:0007B9FC ?lineJoin@pen@@SGPBUgpLineJoin@gdiplus_native@@QAV1@@@Z 
01:0007BA38 ?lineJoin@pen@@SGXQAV1@@PBUgpLineJoin@gdiplus_native@@@Z 
01:0007BA70 ?_miterLimit@pen@@SAXQAV1@@PAPAN@Z 
01:0007BADC ?miterLimit@pen@@SAXQAV1@@PAN@Z 
01:0007BB30 ?penType@pen@@SGPBUgpPenType@gdiplus_native@@QAV1@@@Z 
01:0007BB6C ?_width@pen@@SAXQAV1@@PAPAN@Z 
01:0007BBD8 ?width@pen@@SAXQAV1@@PAN@Z 
01:0007BC2C ?transform@pen@@SGQAVmatrix@@@QAV1@@@Z 
01:0007BC84 ?transform@pen@@SGXQAV1@@QAVmatrix@@@@Z 
01:0007BCC8 ?setLineCap@pen@@SAXQAV1@@PBUgpLineCap@gdiplus_native@@1PBUgpDashCap@4@@Z 
01:0007BD00 ?multiplyTransform@pen@@SAXQAV1@@QAVmatrix@@@PBUgpMatrixOrder@gdiplus_native@@@Z 
01:0007BD40 ?resetTransform@pen@@SAXQAV1@@@Z 
01:0007BD74 ?rotateTransform@pen@@SAXQAV1@@PANPBUgpMatrixOrder@gdiplus_native@@@Z 
01:0007BDCC ?scaleTransform@pen@@SAXQAV1@@PANPANPBUgpMatrixOrder@gdiplus_native@@@Z 
01:0007BE4C ?_newNative@pen@@SAXPBUgpPen@gdiplus_native@@PAPAV1@@@Z 
01:0007BE74 ?_create@pen@@SAXPAPAV1@@@Z  (Idle)
01:0007BE9C ?_createBrush@pen@@SAXPANQAVbrush@@@PAPAV1@@@Z  (Idle)
01:0007BEC8 ?_createColor@pen@@SAXQAVcolor@@@PANPBUgpUnit@gdiplus_native@@PAPAV1@@@Z  (Idle)
01:0007BEF8 ?nativePen@pen@@SGPBUgpPen@gdiplus_native@@QAV1@@@Z 
01:0007BF04 ?newNative@pathGradientBrush@@SAXQAV1@@PBUgpPathGradient@gdiplus_native@@@Z  (Idle)
01:0007BF28 ?createPathGradientF@pathGradientBrush@@SAXQAV1@@PAU?$__packedList_struct@UpointF@@@@@Z  (Idle)
01:0007BF3C ?createPathGradientF@pathGradientBrush@@SAXQAV1@@PAU?$__packedList_struct@UpointF@@@@PBUgpWrapMode@gdiplus_native@@@Z 
01:0007BF90 ?createPathGradientI@pathGradientBrush@@SAXQAV1@@PAU?$__packedList_struct@UpointI@@@@@Z  (Idle)
01:0007BFA4 ?createPathGradientI@pathGradientBrush@@SAXQAV1@@PAU?$__packedList_struct@UpointI@@@@PBUgpWrapMode@gdiplus_native@@@Z 
01:0007BFF8 ?createPathGradientFromPath@pathGradientBrush@@SAXQAV1@@QAVgraphicsPath@@@@Z  (Idle)
01:0007C03C ?centerColor@pathGradientBrush@@SGQAVcolor@@@QAV1@@@Z 
01:0007C08C ?centerColor@pathGradientBrush@@SGXQAV1@@QAVcolor@@@@Z 
01:0007C0D0 ?pointCount@pathGradientBrush@@SGPBUpositive@@QAV1@@@Z 
01:0007C11C ?surroundColorCount@pathGradientBrush@@SGPBUpositive@@QAV1@@@Z 
01:0007C168 $surroundColors$pathGradientBrush_implement$predicate$(i)$c$ 
01:0007C1E4 $surroundColors$pathGradientBrush_implement$predicate$(i,i)$c$ 
01:0007C258 ?graphicsPath@pathGradientBrush@@SGQAV0@@QAV1@@@Z 
01:0007C2A8 ?graphicsPath@pathGradientBrush@@SGXQAV1@@QAV0@@@Z 
01:0007C2EC ?centerPointF@pathGradientBrush@@SGPAUpointF_struct@gdiplus@@QAV1@@@Z 
01:0007C340 ?centerPointF@pathGradientBrush@@SGXQAV1@@PAUpointF_struct@gdiplus@@@Z 
01:0007C378 ?centerPointI@pathGradientBrush@@SGPAUpointI_struct@gdiplus@@QAV1@@@Z 
01:0007C3CC ?centerPointI@pathGradientBrush@@SGXQAV1@@PAUpointI_struct@gdiplus@@@Z 
01:0007C404 ?rectF@pathGradientBrush@@SGPAUrectF_struct@gdiplus@@QAV1@@@Z 
01:0007C458 ?rectI@pathGradientBrush@@SGPAUrectI_struct@gdiplus@@QAV1@@@Z 
01:0007C4AC ?useGammaCorrection@pathGradientBrush@@SGPAUboolean_struct@_builtIn@@QAV1@@@Z 
01:0007C4FC ?useGammaCorrection@pathGradientBrush@@SGXQAV1@@PAUboolean_struct@_builtIn@@@Z 
01:0007C548 ?blendCount@pathGradientBrush@@SGPBUpositive@@QAV1@@@Z 
01:0007C594 ?setBlend@pathGradientBrush@@SAXQAV1@@PAU?$__packedList_struct@PAN@@1@Z 
01:0007C630 ?getBlend@pathGradientBrush@@SAXQAV1@@PAPAU?$__packedList_struct@PAPAN@@1@Z 
01:0007C6D4 ?interpolationColorCount@pathGradientBrush@@SGPBUpositive@@QAV1@@@Z 
01:0007C720 $setInterpolationColors$pathGradientBrush_implement$predicate$(i,i,i)$c$_m39 
01:0007C7F4 $getInterpolationColors$pathGradientBrush_implement$predicate$(i,o,o)$c$_m40 
01:0007C898 ?setBlendBellShape@pathGradientBrush@@SAXQAV1@@PAN@Z 
01:0007C8AC ?setBlendBellShape@pathGradientBrush@@SAXQAV1@@PANPAN@Z 
01:0007C928 ?transform@pathGradientBrush@@SGQAVmatrix@@@QAV1@@@Z 
01:0007C980 ?transform@pathGradientBrush@@SGXQAV1@@QAVmatrix@@@@Z 
01:0007C9C4 ?resetTransform@pathGradientBrush@@SAXQAV1@@@Z 
01:0007C9F8 ?multiplyTransform@pathGradientBrush@@SAXQAV1@@QAVmatrix@@@@Z 
01:0007CA0C ?multiplyTransform@pathGradientBrush@@SAXQAV1@@QAVmatrix@@@PBUgpMatrixOrder@gdiplus_native@@@Z 
01:0007CA4C ?translateTransform@pathGradientBrush@@SAXQAV1@@PANPAN@Z 
01:0007CA60 ?translateTransform@pathGradientBrush@@SAXQAV1@@PANPANPBUgpMatrixOrder@gdiplus_native@@@Z 
01:0007CAE0 ?scaleTransform@pathGradientBrush@@SAXQAV1@@PANPAN@Z 
01:0007CAF4 ?scaleTransform@pathGradientBrush@@SAXQAV1@@PANPANPBUgpMatrixOrder@gdiplus_native@@@Z 
01:0007CB74 ?rotateTransform@pathGradientBrush@@SAXQAV1@@PAN@Z 
01:0007CB88 ?rotateTransform@pathGradientBrush@@SAXQAV1@@PANPBUgpMatrixOrder@gdiplus_native@@@Z 
01:0007CBE0 ?wrapMode@pathGradientBrush@@SGPBUgpWrapMode@gdiplus_native@@QAV1@@@Z 
01:0007CC1C ?wrapMode@pathGradientBrush@@SGXQAV1@@PBUgpWrapMode@gdiplus_native@@@Z 
01:0007CC54 ?getFocusScale@pathGradientBrush@@SAXQAV1@@PAPAN1@Z 
01:0007CCFC ?setFocusScale@pathGradientBrush@@SAXQAV1@@PANPAN@Z 
01:0007CD78 ?_newNative@pathGradientBrush@@SAXPBUgpPathGradient@gdiplus_native@@PAPAV1@@@Z 
01:0007CDA0 ?_createPathGradientF@pathGradientBrush@@SAXPAU?$__packedList_struct@UpointF@@@@PAPAV1@@@Z  (Idle)
01:0007CDC8 ?_createPathGradientF@pathGradientBrush@@SAXPAU?$__packedList_struct@UpointF@@@@PBUgpWrapMode@gdiplus_native@@PAPAV1@@@Z  (Idle)
01:0007CDF4 ?_createPathGradientI@pathGradientBrush@@SAXPAU?$__packedList_struct@UpointI@@@@PAPAV1@@@Z  (Idle)
01:0007CE1C ?_createPathGradientI@pathGradientBrush@@SAXPAU?$__packedList_struct@UpointI@@@@PBUgpWrapMode@gdiplus_native@@PAPAV1@@@Z  (Idle)
01:0007CE48 ?_createPathGradientFromPath@pathGradientBrush@@SAXQAVgraphicsPath@@@PAPAV1@@@Z  (Idle)
01:0007CE70 ?nativePathGradientBrush@pathGradientBrush@@SGPBUgpPathGradient@gdiplus_native@@QAV1@@@Z 
01:0007CE7C ?newNative@metafile@@SAXQAV1@@PBUgpMetafile@gdiplus_native@@@Z  (Idle)
01:0007CE94 ?createFromEnhMetafile@metafile@@SAXQAV1@@PBUhEnhMetafile@@PAUboolean_struct@_builtIn@@@Z  (Idle)
01:0007CEDC ?create@metafile@@SAXQAV1@@PB_W@Z  (Idle)
01:0007CF14 ?createFromWmf@metafile@@SAXQAV1@@PBUhMetafile@@PBUwmfPlaceableFileHeader@gdiplus_native@@PAUboolean_struct@_builtIn@@@Z  (Idle)
01:0007CF64 ?createFromIStream@metafile@@SAXQAV1@@QAViStream_native@@@@Z  (Idle)
01:0007CF9C ?recordMetafile@metafile@@SAXQAV1@@PBUhDC@@PBUemfType@gdiplus_native@@PB_W@Z  (Idle)
01:0007CFDC ?recordMetafile@metafile@@SAXQAV1@@PBUhDC@@PAUrectF_struct@gdiplus@@PBUmetafileFrameUnit@gdiplus_native@@PBUemfType@7@PB_W@Z  (Idle)
01:0007D020 ?recordMetafileI@metafile@@SAXQAV1@@PBUhDC@@PAUrectI_struct@gdiplus@@PBUmetafileFrameUnit@gdiplus_native@@PBUemfType@7@PB_W@Z  (Idle)
01:0007D064 ?recordMetafileFilename@metafile@@SAXQAV1@@PB_WPBUhDC@@PBUemfType@gdiplus_native@@1@Z  (Idle)
01:0007D0A8 ?recordMetafileFilename@metafile@@SAXQAV1@@PB_WPBUhDC@@PAUrectF_struct@gdiplus@@PBUmetafileFrameUnit@gdiplus_native@@PBUemfType@7@1@Z  (Idle)
01:0007D0EC ?recordMetafileFilenameI@metafile@@SAXQAV1@@PB_WPBUhDC@@PAUrectI_struct@gdiplus@@PBUmetafileFrameUnit@gdiplus_native@@PBUemfType@7@1@Z  (Idle)
01:0007D130 ?recordMetafileStream@metafile@@SAXQAV1@@QAViStream_native@@@PBUhDC@@PBUemfType@gdiplus_native@@PB_W@Z  (Idle)
01:0007D174 ?recordMetafileStream@metafile@@SAXQAV1@@QAViStream_native@@@PBUhDC@@PAUrectF_struct@gdiplus@@PBUmetafileFrameUnit@gdiplus_native@@PBUemfType@8@PB_W@Z  (Idle)
01:0007D1B8 ?recordMetafileStreamI@metafile@@SAXQAV1@@QAViStream_native@@@PBUhDC@@PAUrectI_struct@gdiplus@@PBUmetafileFrameUnit@gdiplus_native@@PBUemfType@8@PB_W@Z  (Idle)
01:0007D1FC ?_getMetafileHeaderFromWmf@metafile@@SAXPBUhMetafile@@PBUwmfPlaceableFileHeader@gdiplus_native@@PAPAUmetafileHeader_struct@4@@Z  (Idle)
01:0007D248 ?_getMetafileHeaderFromEmf@metafile@@SAXPBUhEnhMetafile@@PAPAUmetafileHeader_struct@gdiplus_native@@@Z  (Idle)
01:0007D290 ?_getMetafileHeaderFromFile@metafile@@SAXPB_WPAPAUmetafileHeader_struct@gdiplus_native@@@Z  (Idle)
01:0007D2D8 ?_getMetafileHeaderFromStream@metafile@@SAXQAViStream_native@@@PAPAUmetafileHeader_struct@gdiplus_native@@@Z  (Idle)
01:0007D320 ?_getMetafileHeader@metafile@@SAXQAV1@@PAPAUmetafileHeader_struct@gdiplus_native@@@Z 
01:0007D370 ?_newNative@metafile@@SAXPBUgpMetafile@gdiplus_native@@PAPAV1@@@Z  (Idle)
01:0007D398 ?_create@metafile@@SAXPB_WPAPAV1@@@Z  (Idle)
01:0007D3C0 ?_createFromEnhMetafile@metafile@@SAXPBUhEnhMetafile@@PAUboolean_struct@_builtIn@@PAPAV1@@@Z  (Idle)
01:0007D3EC ?_createFromWmf@metafile@@SAXPBUhMetafile@@PBUwmfPlaceableFileHeader@gdiplus_native@@PAUboolean_struct@_builtIn@@PAPAV1@@@Z  (Idle)
01:0007D41C ?_createFromIStream@metafile@@SAXQAViStream_native@@@PAPAV1@@@Z  (Idle)
01:0007D444 ?_recordMetafile@metafile@@SAXPBUhDC@@PBUemfType@gdiplus_native@@PB_WPAPAV1@@@Z  (Idle)
01:0007D474 ?_recordMetafile@metafile@@SAXPBUhDC@@PAUrectF_struct@gdiplus@@PBUmetafileFrameUnit@gdiplus_native@@PBUemfType@6@PB_WPAPAV1@@@Z  (Idle)
01:0007D4A8 ?_recordMetafileI@metafile@@SAXPBUhDC@@PAUrectI_struct@gdiplus@@PBUmetafileFrameUnit@gdiplus_native@@PBUemfType@6@PB_WPAPAV1@@@Z  (Idle)
01:0007D4DC ?_recordMetafileFilename@metafile@@SAXPB_WPBUhDC@@PBUemfType@gdiplus_native@@0PAPAV1@@@Z  (Idle)
01:0007D510 ?_recordMetafileFilename@metafile@@SAXPB_WPBUhDC@@PAUrectF_struct@gdiplus@@PBUmetafileFrameUnit@gdiplus_native@@PBUemfType@6@0PAPAV1@@@Z  (Idle)
01:0007D548 ?_recordMetafileFilenameI@metafile@@SAXPB_WPBUhDC@@PAUrectI_struct@gdiplus@@PBUmetafileFrameUnit@gdiplus_native@@PBUemfType@6@0PAPAV1@@@Z  (Idle)
01:0007D580 ?_recordMetafileStream@metafile@@SAXQAViStream_native@@@PBUhDC@@PBUemfType@gdiplus_native@@PB_WPAPAV1@@@Z  (Idle)
01:0007D5B4 ?_recordMetafileStream@metafile@@SAXQAViStream_native@@@PBUhDC@@PAUrectF_struct@gdiplus@@PBUmetafileFrameUnit@gdiplus_native@@PBUemfType@7@PB_WPAPAV1@@@Z  (Idle)
01:0007D5EC ?_recordMetafileStreamI@metafile@@SAXQAViStream_native@@@PBUhDC@@PAUrectI_struct@gdiplus@@PBUmetafileFrameUnit@gdiplus_native@@PBUemfType@7@PB_WPAPAV1@@@Z  (Idle)
01:0007D624 ?nativeMetafile@metafile@@SGXQAV1@@PBUgpMetafile@gdiplus_native@@@Z 
01:0007D634 ?nativeMetafile@metafile@@SGPBUgpMetafile@gdiplus_native@@QAV1@@@Z 
01:0007D640 ?newNative@matrix@@SAXQAV1@@PBUgpMatrix@gdiplus_native@@@Z  (Idle)
01:0007D654 ?create@matrix@@SAXQAV1@@@Z  (Idle)
01:0007D688 ?createI@matrix@@SAXQAV1@@PAUrect_struct@gdiplus_native@@PBUgpPoint@4@@Z  (Idle)
01:0007D6C0 ?createF@matrix@@SAXQAV1@@PAUrectF_struct@gdiplus_native@@PBUgpPointF@4@@Z  (Idle)
01:0007D6F8 ?create@matrix@@SAXQAV1@@PANPANPANPANPANPAN@Z  (Idle)
01:0007D810 ?finalize@matrix@@SGXQAV1@@@Z 
01:0007D870 ?_clone@matrix@@SAXQAV1@@PAPAV1@@@Z 
01:0007D8AC ?elements@matrix@@SGPAUelements_struct@1@QAV1@@@Z 
01:0007D8FC ?elements@matrix@@SGXQAV1@@PAUelements_struct@1@@Z 
01:0007D990 ?setElements@matrix@@SAXQAV1@@PANPANPANPANPANPAN@Z 
01:0007DA88 ?_offsetX@matrix@@SAXQAV1@@PAPAN@Z 
01:0007DAFC ?_offsetY@matrix@@SAXQAV1@@PAPAN@Z 
01:0007DB70 ?reset@matrix@@SAXQAV1@@@Z 
01:0007DBB0 ?multiply@matrix@@SAXQAV1@@0@Z 
01:0007DBC4 ?multiply@matrix@@SAXQAV1@@0PBUgpMatrixOrder@gdiplus_native@@@Z 
01:0007DC04 ?translate@matrix@@SAXQAV1@@PANPAN@Z 
01:0007DC18 ?translate@matrix@@SAXQAV1@@PANPANPBUgpMatrixOrder@gdiplus_native@@@Z 
01:0007DC98 ?scale@matrix@@SAXQAV1@@PANPAN@Z 
01:0007DCAC ?scale@matrix@@SAXQAV1@@PANPANPBUgpMatrixOrder@gdiplus_native@@@Z 
01:0007DD2C ?rotate@matrix@@SAXQAV1@@PAN@Z 
01:0007DD40 ?rotate@matrix@@SAXQAV1@@PANPBUgpMatrixOrder@gdiplus_native@@@Z 
01:0007DD98 ?rotateAt@matrix@@SAXQAV1@@PANPBUgpPointF@gdiplus_native@@PBUgpMatrixOrder@4@@Z 
01:0007DDD0 ?shear@matrix@@SAXQAV1@@PANPAN@Z 
01:0007DDE4 ?shear@matrix@@SAXQAV1@@PANPANPBUgpMatrixOrder@gdiplus_native@@@Z 
01:0007DE64 ?invert@matrix@@SAXQAV1@@@Z 
01:0007DE98 ?_transformI@matrix@@SAXQAV1@@PAU?$__packedList_struct@UpointI@@@@PAPAU?$__packedList_struct@U3@@@@Z 
01:0007DEF4 ?_transformF@matrix@@SAXQAV1@@PAU?$__packedList_struct@UpointF@@@@PAPAU?$__packedList_struct@U3@@@@Z 
01:0007DF50 ?isInvertible@matrix@@SAXQAV1@@@Z 
01:0007DF90 ?isIdentity@matrix@@SAXQAV1@@@Z 
01:0007DFD0 ?isEqual@matrix@@SAXQAV1@@0@Z 
01:0007E020 ?_newNative@matrix@@SAXPBUgpMatrix@gdiplus_native@@PAPAV1@@@Z 
01:0007E048 ?_create@matrix@@SAXPAPAV1@@@Z 
01:0007E070 ?_createI@matrix@@SAXPAUrect_struct@gdiplus_native@@PBUgpPoint@3@PAPAV1@@@Z  (Idle)
01:0007E09C ?_createF@matrix@@SAXPAUrectF_struct@gdiplus_native@@PBUgpPointF@3@PAPAV1@@@Z  (Idle)
01:0007E0C8 ?_create@matrix@@SAXPANPANPANPANPANPANPAPAV1@@@Z  (Idle)
01:0007E100 ?nativeMatrix@matrix@@SGXQAV1@@PBUgpMatrix@gdiplus_native@@@Z 
01:0007E110 ?nativeMatrix@matrix@@SGPBUgpMatrix@gdiplus_native@@QAV1@@@Z 
01:0007E11C ?newNative@linearGradientBrush@@SAXQAV1@@PBUgpLineGradient@gdiplus_native@@@Z  (Idle)
01:0007E140 ?createLineBrushF@linearGradientBrush@@SAXQAV1@@PAUpointF_struct@gdiplus@@1QAVcolor@@@3@Z  (Idle)
01:0007E198 ?createLineBrushI@linearGradientBrush@@SAXQAV1@@PAUpointI_struct@gdiplus@@1QAVcolor@@@3@Z  (Idle)
01:0007E1F4 ?createLineBrushFromRectF@linearGradientBrush@@SAXQAV1@@PAUrectF_struct@gdiplus@@QAVcolor@@@2PBUlinearGradientMode@gdiplus_native@@@Z  (Idle)
01:0007E250 ?createLineBrushFromRectI@linearGradientBrush@@SAXQAV1@@PAUrectI_struct@gdiplus@@QAVcolor@@@2PBUlinearGradientMode@gdiplus_native@@@Z  (Idle)
01:0007E2AC ?createFromRectWithAngleF@linearGradientBrush@@SAXQAV1@@PAUrectF_struct@gdiplus@@QAVcolor@@@2PAN@Z  (Idle)
01:0007E2C0 ?createFromRectWithAngleF@linearGradientBrush@@SAXQAV1@@PAUrectF_struct@gdiplus@@QAVcolor@@@2PANPAUboolean_struct@_builtIn@@@Z 
01:0007E354 ?createFromRectWithAngleI@linearGradientBrush@@SAXQAV1@@PAUrectI_struct@gdiplus@@QAVcolor@@@2PAN@Z  (Idle)
01:0007E368 ?createFromRectWithAngleI@linearGradientBrush@@SAXQAV1@@PAUrectI_struct@gdiplus@@QAVcolor@@@2PANPAUboolean_struct@_builtIn@@@Z 
01:0007E3FC ?setLinearColors@linearGradientBrush@@SAXQAV1@@QAVcolor@@@1@Z 
01:0007E448 ?getLinearColors@linearGradientBrush@@SAXQAV1@@PAPAVcolor@@@1@Z 
01:0007E4EC ?rectF@linearGradientBrush@@SGPAUrectF_struct@gdiplus@@QAV1@@@Z 
01:0007E540 ?rectI@linearGradientBrush@@SGPAUrectI_struct@gdiplus@@QAV1@@@Z 
01:0007E594 ?useGammaCorrection@linearGradientBrush@@SGPAUboolean_struct@_builtIn@@QAV1@@@Z 
01:0007E5E4 ?useGammaCorrection@linearGradientBrush@@SGXQAV1@@PAUboolean_struct@_builtIn@@@Z 
01:0007E630 ?blendCount@linearGradientBrush@@SGPBUpositive@@QAV1@@@Z 
01:0007E67C ?setBlend@linearGradientBrush@@SAXQAV1@@PAU?$__packedList_struct@PAN@@1@Z 
01:0007E718 ?getBlend@linearGradientBrush@@SAXQAV1@@PAPAU?$__packedList_struct@PAPAN@@1@Z 
01:0007E7BC ?interpolationColorCount@linearGradientBrush@@SGPBUpositive@@QAV1@@@Z 
01:0007E808 $setInterpolationColors$linearGradientBrush_implement$predicate$(i,i,i)$c$_m27 
01:0007E8DC $getInterpolationColors$linearGradientBrush_implement$predicate$(i,o,o)$c$_m28 
01:0007E980 ?setBlendBellShape@linearGradientBrush@@SAXQAV1@@PAN@Z 
01:0007E994 ?setBlendBellShape@linearGradientBrush@@SAXQAV1@@PANPAN@Z 
01:0007EA10 ?transform@linearGradientBrush@@SGQAVmatrix@@@QAV1@@@Z 
01:0007EA68 ?transform@linearGradientBrush@@SGXQAV1@@QAVmatrix@@@@Z 
01:0007EAAC ?resetTransform@linearGradientBrush@@SAXQAV1@@@Z 
01:0007EAE0 ?multiplyTransform@linearGradientBrush@@SAXQAV1@@QAVmatrix@@@@Z 
01:0007EAF4 ?multiplyTransform@linearGradientBrush@@SAXQAV1@@QAVmatrix@@@PBUgpMatrixOrder@gdiplus_native@@@Z 
01:0007EB34 ?translateTransform@linearGradientBrush@@SAXQAV1@@PANPAN@Z 
01:0007EB48 ?translateTransform@linearGradientBrush@@SAXQAV1@@PANPANPBUgpMatrixOrder@gdiplus_native@@@Z 
01:0007EBC8 ?scaleTransform@linearGradientBrush@@SAXQAV1@@PANPAN@Z 
01:0007EBDC ?scaleTransform@linearGradientBrush@@SAXQAV1@@PANPANPBUgpMatrixOrder@gdiplus_native@@@Z 
01:0007EC5C ?rotateTransform@linearGradientBrush@@SAXQAV1@@PAN@Z 
01:0007EC70 ?rotateTransform@linearGradientBrush@@SAXQAV1@@PANPBUgpMatrixOrder@gdiplus_native@@@Z 
01:0007ECC8 ?wrapMode@linearGradientBrush@@SGPBUgpWrapMode@gdiplus_native@@QAV1@@@Z 
01:0007ED04 ?wrapMode@linearGradientBrush@@SGXQAV1@@PBUgpWrapMode@gdiplus_native@@@Z 
01:0007ED3C ?_newNative@linearGradientBrush@@SAXPBUgpLineGradient@gdiplus_native@@PAPAV1@@@Z 
01:0007ED64 ?_createLineBrushF@linearGradientBrush@@SAXPAUpointF_struct@gdiplus@@0QAVcolor@@@2PAPAV1@@@Z  (Idle)
01:0007ED98 ?_createLineBrushI@linearGradientBrush@@SAXPAUpointI_struct@gdiplus@@0QAVcolor@@@2PAPAV1@@@Z  (Idle)
01:0007EDCC ?_createLineBrushFromRectF@linearGradientBrush@@SAXPAUrectF_struct@gdiplus@@QAVcolor@@@1PBUlinearGradientMode@gdiplus_native@@PAPAV1@@@Z  (Idle)
01:0007EE00 ?_createLineBrushFromRectI@linearGradientBrush@@SAXPAUrectI_struct@gdiplus@@QAVcolor@@@1PBUlinearGradientMode@gdiplus_native@@PAPAV1@@@Z  (Idle)
01:0007EE34 ?_createFromRectWithAngleF@linearGradientBrush@@SAXPAUrectF_struct@gdiplus@@QAVcolor@@@1PANPAPAV1@@@Z  (Idle)
01:0007EE68 ?_createFromRectWithAngleF@linearGradientBrush@@SAXPAUrectF_struct@gdiplus@@QAVcolor@@@1PANPAUboolean_struct@_builtIn@@PAPAV1@@@Z  (Idle)
01:0007EE9C ?_createFromRectWithAngleI@linearGradientBrush@@SAXPAUrectI_struct@gdiplus@@QAVcolor@@@1PANPAPAV1@@@Z  (Idle)
01:0007EED0 ?_createFromRectWithAngleI@linearGradientBrush@@SAXPAUrectI_struct@gdiplus@@QAVcolor@@@1PANPAUboolean_struct@_builtIn@@PAPAV1@@@Z  (Idle)
01:0007EF04 ?nativeLinearGradientBrush@linearGradientBrush@@SGPBUgpLineGradient@gdiplus_native@@QAV1@@@Z 
01:0007EF10 ?create@installedFontCollection@@SAXQAV1@@@Z  (Idle)
01:0007EF44 ?_create@installedFontCollection@@SAXPAPAV1@@@Z  (Idle)
01:0007EF68 ?new@imageAttributes@@SAXQAV1@@@Z  (Idle)
01:0007EF9C ?new@imageAttributes@@SAXQAV1@@PBUgpImageAttributes@gdiplus_native@@@Z 
01:0007EFB0 ?finalize@imageAttributes@@SGXQAV1@@@Z 
01:0007F010 ?_clone@imageAttributes@@SAXQAV1@@PAPAV1@@@Z 
01:0007F04C ?setToIdentity@imageAttributes@@SAXQAV1@@@Z 
01:0007F060 ?setToIdentity@imageAttributes@@SAXQAV1@@PBUcolorAdjustType@gdiplus_native@@@Z 
01:0007F090 ?reset@imageAttributes@@SAXQAV1@@@Z 
01:0007F0A4 ?reset@imageAttributes@@SAXQAV1@@PBUcolorAdjustType@gdiplus_native@@@Z 
01:0007F0D4 ?setColorMatrix@imageAttributes@@SAXQAV1@@PAUcolorMatrix_struct@gdiplus_native@@@Z 
01:0007F0EC ?setColorMatrix@imageAttributes@@SAXQAV1@@PAUcolorMatrix_struct@gdiplus_native@@PBUcolorMatrixFlags@4@PBUcolorAdjustType@4@@Z 
01:0007F128 ?clearColorMatrix@imageAttributes@@SAXQAV1@@@Z 
01:0007F13C ?clearColorMatrix@imageAttributes@@SAXQAV1@@PBUcolorAdjustType@gdiplus_native@@@Z 
01:0007F174 ?setColorMatrices@imageAttributes@@SAXQAV1@@PAUcolorMatrix_struct@gdiplus_native@@1@Z 
01:0007F18C ?setColorMatrices@imageAttributes@@SAXQAV1@@PAUcolorMatrix_struct@gdiplus_native@@1PBUcolorMatrixFlags@4@PBUcolorAdjustType@4@@Z 
01:0007F1C8 ?clearColorMatrices@imageAttributes@@SAXQAV1@@@Z 
01:0007F1DC ?clearColorMatrices@imageAttributes@@SAXQAV1@@PBUcolorAdjustType@gdiplus_native@@@Z 
01:0007F214 ?setThreshold@imageAttributes@@SAXQAV1@@PAN@Z 
01:0007F228 ?setThreshold@imageAttributes@@SAXQAV1@@PANPBUcolorAdjustType@gdiplus_native@@@Z 
01:0007F284 ?clearThreshold@imageAttributes@@SAXQAV1@@@Z 
01:0007F298 ?clearThreshold@imageAttributes@@SAXQAV1@@PBUcolorAdjustType@gdiplus_native@@@Z 
01:0007F2CC ?setGamma@imageAttributes@@SAXQAV1@@PAN@Z 
01:0007F2E0 ?setGamma@imageAttributes@@SAXQAV1@@PANPBUcolorAdjustType@gdiplus_native@@@Z 
01:0007F33C ?clearGamma@imageAttributes@@SAXQAV1@@@Z 
01:0007F350 ?clearGamma@imageAttributes@@SAXQAV1@@PBUcolorAdjustType@gdiplus_native@@@Z 
01:0007F384 ?setNoOp@imageAttributes@@SAXQAV1@@@Z 
01:0007F398 ?setNoOp@imageAttributes@@SAXQAV1@@PBUcolorAdjustType@gdiplus_native@@@Z 
01:0007F3CC ?clearNoOp@imageAttributes@@SAXQAV1@@@Z 
01:0007F3E0 ?clearNoOp@imageAttributes@@SAXQAV1@@PBUcolorAdjustType@gdiplus_native@@@Z 
01:0007F414 ?setColorKey@imageAttributes@@SAXQAV1@@QAVcolor@@@1@Z 
01:0007F428 ?setColorKey@imageAttributes@@SAXQAV1@@QAVcolor@@@1PBUcolorAdjustType@gdiplus_native@@@Z 
01:0007F478 ?clearColorKey@imageAttributes@@SAXQAV1@@@Z 
01:0007F48C ?clearColorKey@imageAttributes@@SAXQAV1@@PBUcolorAdjustType@gdiplus_native@@@Z 
01:0007F4C4 ?setOutputChannel@imageAttributes@@SAXQAV1@@PBUcolorChannelFlags@gdiplus_native@@@Z 
01:0007F4D8 ?setOutputChannel@imageAttributes@@SAXQAV1@@PBUcolorChannelFlags@gdiplus_native@@PBUcolorAdjustType@4@@Z 
01:0007F50C ?clearOutputChannel@imageAttributes@@SAXQAV1@@@Z 
01:0007F520 ?clearOutputChannel@imageAttributes@@SAXQAV1@@PBUcolorAdjustType@gdiplus_native@@@Z 
01:0007F554 ?setOutputChannelColorProfile@imageAttributes@@SAXQAV1@@PB_W@Z 
01:0007F568 ?setOutputChannelColorProfile@imageAttributes@@SAXQAV1@@PB_WPBUcolorAdjustType@gdiplus_native@@@Z 
01:0007F59C ?clearOutputChannelColorProfile@imageAttributes@@SAXQAV1@@@Z 
01:0007F5B0 ?clearOutputChannelColorProfile@imageAttributes@@SAXQAV1@@PBUcolorAdjustType@gdiplus_native@@@Z 
01:0007F5E4 ?setRemapTable@imageAttributes@@SAXQAV1@@PBUpositive@@PBUcolorMap@gdiplus_native@@@Z 
01:0007F5F8 ?setRemapTable@imageAttributes@@SAXQAV1@@PBUpositive@@PBUcolorMap@gdiplus_native@@PBUcolorAdjustType@5@@Z 
01:0007F634 ?clearRemapTable@imageAttributes@@SAXQAV1@@@Z 
01:0007F648 ?clearRemapTable@imageAttributes@@SAXQAV1@@PBUcolorAdjustType@gdiplus_native@@@Z 
01:0007F680 ?setBrushRemapTable@imageAttributes@@SAXQAV1@@PBUpositive@@PBUcolorMap@gdiplus_native@@@Z 
01:0007F694 ?clearBrushRemapTable@imageAttributes@@SAXQAV1@@@Z 
01:0007F6A8 ?setWrapMode@imageAttributes@@SAXQAV1@@PBUgpWrapMode@gdiplus_native@@QAVcolor@@@PAUboolean_struct@_builtIn@@@Z 
01:0007F700 ?_getAdjustedPalette@imageAttributes@@SAXQAV1@@PBUcolorAdjustType@gdiplus_native@@PAPAUcolorPalette_struct@4@@Z 
01:0007F750 ?_new@imageAttributes@@SAXPAPAV1@@@Z  (Idle)
01:0007F778 ?_new@imageAttributes@@SAXPBUgpImageAttributes@gdiplus_native@@PAPAV1@@@Z 
01:0007F7A0 ?nativeImageAttributes@imageAttributes@@SGXQAV1@@PBUgpImageAttributes@gdiplus_native@@@Z 
01:0007F7B0 ?nativeImageAttributes@imageAttributes@@SGPBUgpImageAttributes@gdiplus_native@@QAV1@@@Z 
01:0007F7BC ?newNative@image@@SAXQAV1@@PBUgpImage@gdiplus_native@@@Z 
01:0007F7E4 ?createFromFile@image@@SAXQAV1@@PB_WPAUboolean_struct@_builtIn@@@Z  (Idle)
01:0007F800 ?createFromFile@image@@SAXQAV1@@PB_W@Z 
01:0007F834 ?createFromFileICM@image@@SAXQAV1@@PB_W@Z 
01:0007F86C ?createFromStream@image@@SAXQAV1@@QAViStream_native@@@@Z  (Idle)
01:0007F8A4 ?createFromStreamICM@image@@SAXQAV1@@QAViStream_native@@@@Z  (Idle)
01:0007F8DC ?createFromStream@image@@SAXQAV1@@QAViStream_native@@@PAUboolean_struct@_builtIn@@@Z  (Idle)
01:0007F8F8 ?createFromBinary@image@@SAXQAV1@@QAE@Z  (Idle)
01:0007F97C ?_fromStream@image@@SAXQAV1@@QAViStream_native@@@PAUboolean_struct@_builtIn@@PAPAV1@@@Z 
01:0007F99C ?_clone@image@@SAXQAV1@@PAPAV1@@@Z 
01:0007F9F0 ?_fromFile@image@@SAXQAV1@@PB_WPAUboolean_struct@_builtIn@@PAPAV1@@@Z 
01:0007FA10 ?_fromFile@image@@SAXQAV1@@PB_WPAPAV1@@@Z 
01:0007FA28 ?_fromFileICM@image@@SAXQAV1@@PB_WPAPAV1@@@Z 
01:0007FA40 ?finalize@image@@SGXQAV1@@@Z 
01:0007FA70 ?dispose@image@@SAXQAV1@@@Z 
01:0007FB10 ?_getEncoderParameterListSize@image@@SAXQAV1@@PAUnativeGuid_struct@core@@AAUbyteCount@@@Z 
01:0007FB74 ?_getEncoderParameterList@image@@SAXQAV1@@PAUnativeGuid_struct@core@@PBUbyteCount@@PAPAUencoderParameters_struct@gdiplus@@@Z 
01:0007FBE0 ?saveToFile@image@@SAXQAV1@@PB_WPAUnativeGuid_struct@core@@PAUencoderParameters_struct@gdiplus@@@Z 
01:0007FC2C ?saveToStream@image@@SAXQAV1@@QAViStream_native@@@PAUnativeGuid_struct@core@@PAUencoderParameters_struct@gdiplus@@@Z 
01:0007FC78 ?saveAdd@image@@SAXQAV1@@PAUencoderParameters_struct@gdiplus@@@Z 
01:0007FCC0 ?saveAdd@image@@SAXQAV1@@0PAUencoderParameters_struct@gdiplus@@@Z 
01:0007FD18 ?type@image@@SGPBUimageType@gdiplus_native@@QAV1@@@Z 
01:0007FD6C ?physicalSize@image@@SGPAUsizeF_struct@gdiplus@@QAV1@@@Z 
01:0007FDDC ?getBounds@image@@SAXQAV1@@PAPAUrectF_struct@gdiplus@@AAUgpUnit@gdiplus_native@@@Z 
01:0007FE44 ?width@image@@SGPBUpositive@@QAV1@@@Z 
01:0007FE98 ?height@image@@SGPBUpositive@@QAV1@@@Z 
01:0007FEEC ?_horizontalResolution@image@@SAXQAV1@@PAPAN@Z 
01:0007FF70 ?_verticalResolution@image@@SAXQAV1@@PAPAN@Z 
01:0007FFF4 ?flags@image@@SGIQAV1@@@Z 
01:00080048 ?rawFormat@image@@SGPAUnativeGuid_struct@core@@QAV1@@@Z 
01:000800B0 ?pixelFormat@image@@SGPBU0gdiplus_native@@QAV1@@@Z 
01:00080104 ?paletteSize@image@@SGHQAV1@@@Z 
01:00080158 ?palette@image@@SGPAUcolorPalette_struct@gdiplus_native@@QAV1@@@Z 
01:000801DC ?palette@image@@SGXQAV1@@PAUcolorPalette_struct@gdiplus_native@@@Z 
01:0008022C ?_getThumbnailImage@image@@SAXQAV1@@IIXPAXPAPAV1@@@Z 
01:00080290 ?frameDimensionCount@image@@SGPBUpositive@@QAV1@@@Z 
01:000802F4 ?frameDimensionsList@image@@SGPAU?$__packedList_struct@UnativeGuid@@@@QAV1@@@Z 
01:00080388 ?_getFrameCount@image@@SAXQAV1@@PAUnativeGuid_struct@core@@PAI@Z 
01:000803D0 ?selectActiveFrame@image@@SAXQAV1@@PAUnativeGuid_struct@core@@I@Z 
01:00080418 ?rotateFlip@image@@SAXQAV1@@PBUrotateFlipType@gdiplus_native@@@Z 
01:00080460 ?propertyCount@image@@SGPBUpositive@@QAV1@@@Z 
01:000804C4 ?propertyIdList@image@@SGPAU?$__packedList_struct@UpropertyId@@@@QAV1@@@Z 
01:0008055C ?_getPropertyItemSize@image@@SAXQAV1@@PBUpropertyId@@AAUbyteCount@@@Z 
01:000805C0 ?_getPropertyItem@image@@SAXQAV1@@PBUpropertyId@@PBUbyteCount@@PAPAUpropertyItem_struct@gdiplus@@@Z 
01:00080630 ?_getPropertyItem@image@@SAXQAV1@@PBUpropertyId@@PAPAUpropertyItem_struct@gdiplus@@@Z 
01:00080668 ?getPropertySize@image@@SAXQAV1@@AAUbyteCount@@AAUpositive@@@Z 
01:000806E8 ?_getAllPropertyItems@image@@SAXQAV1@@PBUbyteCount@@PBUpositive@@PAPAU?$__packedList_struct@UpropertyItem@gdiplus@@@@@Z 
01:00080768 ?removePropertyItem@image@@SAXQAV1@@PBUpropertyId@@@Z 
01:000807B0 ?setPropertyItem@image@@SAXQAV1@@PAUpropertyItem_struct@gdiplus@@@Z 
01:000807F8 ?_newNative@image@@SAXPBUgpImage@gdiplus_native@@PAPAV1@@@Z 
01:00080820 ?_createFromFile@image@@SAXPB_WPAUboolean_struct@_builtIn@@PAPAV1@@@Z 
01:0008084C ?_createFromFile@image@@SAXPB_WPAPAV1@@@Z 
01:00080874 ?_createFromFileICM@image@@SAXPB_WPAPAV1@@@Z 
01:0008089C ?_createFromStream@image@@SAXQAViStream_native@@@PAUboolean_struct@_builtIn@@PAPAV1@@@Z 
01:000808C8 ?_createFromStreamICM@image@@SAXQAViStream_native@@@PAPAV1@@@Z  (Idle)
01:000808F0 ?_createFromStream@image@@SAXQAViStream_native@@@PAPAV1@@@Z  (Idle)
01:00080918 ?_createFromBinary@image@@SAXQAEPAPAV1@@@Z  (Idle)
01:00080940 ?_object_facts_initializer@image@@SGXQAV1@@@Z 
01:00080958 ?nativeImage@image@@SGPBUgpImage@gdiplus_native@@QAV1@@@Z 
01:00080978 ?createFromFile@icon@@SAXQAV1@@PB_W@Z  (Idle)
01:000809A0 ?createFromBinary@icon@@SAXQAV1@@QAE@Z  (Idle)
01:000809E0 $createFromImages$icon_class$predicate$(i,i)$b$  (Idle)
01:00080A0C ?_getImage@icon@@SAXQAV1@@PBUpositive@@1PAPAVimage@@@@Z 
01:00080A44 ?_getBitmap@icon@@SAXQAV1@@PBUpositive@@1PAPAVbitmap@@@@Z 
01:00080BB0 ?_createBitmap@icon@@SAXPAUsource_struct@1@PBUpositive@@1PAPAVbitmap@@@@Z 
01:00080DA8 ?_adjustBitmapDim@icon@@SAXQAVimage@@@PBUpositive@@1PAPAVbitmap@@@@Z 
01:00080E4C ?_getHBitmap@icon@@SAXQAV1@@PBUpositive@@1AAUhBitmap@gui_native@@@Z 
01:00080F80 ?_createFromFile@icon@@SAXPB_WPAPAV1@@@Z  (Idle)
01:00080FA8 ?_createFromBinary@icon@@SAXQAEPAPAV1@@@Z  (Idle)
01:00080FD0 $createFromImages$icon_class$predicate$(i,o)$b$_c6  (Idle)
01:00080FF8 ?newNative@hatchBrush@@SAXQAV1@@PBUgpHatch@gdiplus_native@@@Z  (Idle)
01:0008101C ?createHatchBrush@hatchBrush@@SAXQAV1@@PBUgpHatchStyle@gdiplus_native@@QAVcolor@@@2@Z  (Idle)
01:00081070 ?hatchStyle@hatchBrush@@SGPBUgpHatchStyle@gdiplus_native@@QAV1@@@Z 
01:000810AC ?foregroundColor@hatchBrush@@SGQAVcolor@@@QAV1@@@Z 
01:000810FC ?backgroundColor@hatchBrush@@SGQAVcolor@@@QAV1@@@Z 
01:0008114C ?_newNative@hatchBrush@@SAXPBUgpHatch@gdiplus_native@@PAPAV1@@@Z 
01:00081174 ?_createHatchBrush@hatchBrush@@SAXPBUgpHatchStyle@gdiplus_native@@QAVcolor@@@1PAPAV1@@@Z  (Idle)
01:000811A4 ?nativeHatchBrush@hatchBrush@@SGPBUgpHatch@gdiplus_native@@QAV1@@@Z 
01:000811B0 ?newNative@graphicsPathIterator@@SAXQAV1@@PBUgpPathIterator@gdiplus_native@@@Z  (Idle)
01:000811C4 ?create@graphicsPathIterator@@SAXQAV1@@@Z  (Idle)
01:000811F8 ?create@graphicsPathIterator@@SAXQAV1@@QAVgraphicsPath@@@@Z  (Idle)
01:00081238 ?finalize@graphicsPathIterator@@SGXQAV1@@@Z 
01:00081298 ?_nextSubPath@graphicsPathIterator@@SAXQAV1@@AAUpositive@@1PAPAUboolean_struct@_builtIn@@1@Z 
01:0008132C ?_nextSubPath@graphicsPathIterator@@SAXQAV1@@PAPAVgraphicsPath@@@PAPAUboolean_struct@_builtIn@@AAUpositive@@@Z 
01:000813AC ?_nextPathType@graphicsPathIterator@@SAXQAV1@@PAHAAUpositive@@22@Z 
01:0008143C ?_nextMarker@graphicsPathIterator@@SAXQAV1@@AAUpositive@@11@Z 
01:000814BC ?_nextMarker@graphicsPathIterator@@SAXQAV1@@PAPAVgraphicsPath@@@AAUpositive@@@Z 
01:00081524 ?count@graphicsPathIterator@@SGPBUpositive@@QAV1@@@Z 
01:00081570 ?subPathCount@graphicsPathIterator@@SGPBUpositive@@QAV1@@@Z 
01:000815BC ?hasCurve@graphicsPathIterator@@SAXQAV1@@@Z 
01:000815FC ?rewind@graphicsPathIterator@@SAXQAV1@@@Z 
01:00081630 ?enumerate@graphicsPathIterator@@SAXQAV1@@PAPAU?$__packedList_struct@UpointF@@@@PAPAU?$__packedList_struct@Uinteger@@@@@Z 
01:000816E4 ?copyData@graphicsPathIterator@@SAXQAV1@@PAPAU?$__packedList_struct@UpointF@@@@PAPAU?$__packedList_struct@Uinteger@@@@PBUpositive@@3@Z 
01:000817C0 ?_newNative@graphicsPathIterator@@SAXPBUgpPathIterator@gdiplus_native@@PAPAV1@@@Z  (Idle)
01:000817E8 ?_create@graphicsPathIterator@@SAXPAPAV1@@@Z  (Idle)
01:00081810 ?_create@graphicsPathIterator@@SAXQAVgraphicsPath@@@PAPAV1@@@Z  (Idle)
01:00081838 ?newNative@graphicsPath@@SAXQAV1@@PBUgpPath@gdiplus_native@@@Z  (Idle)
01:0008184C ?create@graphicsPath@@SAXQAV1@@@Z  (Idle)
01:00081860 ?create@graphicsPath@@SAXQAV1@@PBUgpFillMode@gdiplus_native@@@Z 
01:00081894 ?createPathF@graphicsPath@@SAXQAV1@@PAU?$__packedList_struct@UpointF@@@@PAU?$__packedList_struct@Uinteger@@@@@Z  (Idle)
01:000818A8 ?createPathF@graphicsPath@@SAXQAV1@@PAU?$__packedList_struct@UpointF@@@@PAU?$__packedList_struct@Uinteger@@@@PBUgpFillMode@gdiplus_native@@@Z 
01:00081950 ?createPathI@graphicsPath@@SAXQAV1@@PAU?$__packedList_struct@UpointI@@@@PAU?$__packedList_struct@Uinteger@@@@@Z  (Idle)
01:00081964 ?createPathI@graphicsPath@@SAXQAV1@@PAU?$__packedList_struct@UpointI@@@@PAU?$__packedList_struct@Uinteger@@@@PBUgpFillMode@gdiplus_native@@@Z 
01:00081A0C ?finalize@graphicsPath@@SGXQAV1@@@Z 
01:00081A6C ?_clone@graphicsPath@@SAXQAV1@@PAPAV1@@@Z 
01:00081AA8 ?reset@graphicsPath@@SAXQAV1@@@Z 
01:00081ADC ?fillMode@graphicsPath@@SGPBUgpFillMode@gdiplus_native@@QAV1@@@Z 
01:00081B18 ?fillMode@graphicsPath@@SGXQAV1@@PBUgpFillMode@gdiplus_native@@@Z 
01:00081B50 ?getPathData@graphicsPath@@SAXQAV1@@PAPAU?$__packedList_struct@UpointF@@@@PAPAU?$__packedList_struct@Uinteger@@@@@Z 
01:00081C3C ?startFigure@graphicsPath@@SAXQAV1@@@Z 
01:00081C70 ?closeFigure@graphicsPath@@SAXQAV1@@@Z 
01:00081CA4 ?closeAllFigures@graphicsPath@@SAXQAV1@@@Z 
01:00081CD8 ?setMarker@graphicsPath@@SAXQAV1@@@Z 
01:00081D0C ?clearMarkers@graphicsPath@@SAXQAV1@@@Z 
01:00081D40 ?reverse@graphicsPath@@SAXQAV1@@@Z 
01:00081D74 ?lastPoint@graphicsPath@@SGPAUpointF_struct@gdiplus@@QAV1@@@Z 
01:00081DC8 ?addArcF@graphicsPath@@SAXQAV1@@PANPANPANPANPANPAN@Z 
01:00081EDC ?addArcI@graphicsPath@@SAXQAV1@@HHHHPANPAN@Z 
01:00081F64 ?addArcI@graphicsPath@@SAXQAV1@@PAUrectI_struct@gdiplus@@PANPAN@Z 
01:00081FC0 ?addArcF@graphicsPath@@SAXQAV1@@PAUrectF_struct@gdiplus@@PANPAN@Z 
01:000820F8 ?addBezierF@graphicsPath@@SAXQAV1@@PANPANPANPANPANPANPANPAN@Z 
01:00082258 ?addBezierI@graphicsPath@@SAXQAV1@@HHHHHHHH@Z 
01:0008229C ?addBezierF@graphicsPath@@SAXQAV1@@PAUpointF_struct@gdiplus@@111@Z 
01:00082348 ?addBezierI@graphicsPath@@SAXQAV1@@PAUpointI_struct@gdiplus@@111@Z 
01:000823C0 ?addBeziersI@graphicsPath@@SAXQAV1@@PAU?$__packedList_struct@UpointI@@@@@Z 
01:00082408 ?addBeziersF@graphicsPath@@SAXQAV1@@PAU?$__packedList_struct@UpointF@@@@@Z 
01:00082450 ?addClosedCurveF@graphicsPath@@SAXQAV1@@PAU?$__packedList_struct@UpointF@@@@@Z 
01:00082498 ?addClosedCurveI@graphicsPath@@SAXQAV1@@PAU?$__packedList_struct@UpointI@@@@@Z 
01:000824E0 ?addClosedCurveF@graphicsPath@@SAXQAV1@@PAU?$__packedList_struct@UpointF@@@@PAN@Z 
01:00082550 ?addClosedCurveI@graphicsPath@@SAXQAV1@@PAU?$__packedList_struct@UpointI@@@@PAN@Z 
01:000825C0 ?addCurveF@graphicsPath@@SAXQAV1@@PAU?$__packedList_struct@UpointF@@@@@Z 
01:00082608 ?addCurveI@graphicsPath@@SAXQAV1@@PAU?$__packedList_struct@UpointI@@@@@Z 
01:00082650 ?addCurveF@graphicsPath@@SAXQAV1@@PAU?$__packedList_struct@UpointF@@@@PAN@Z 
01:000826C0 ?addCurveI@graphicsPath@@SAXQAV1@@PAU?$__packedList_struct@UpointI@@@@PAN@Z 
01:00082730 ?addCurveF@graphicsPath@@SAXQAV1@@PAU?$__packedList_struct@UpointF@@@@HHPAN@Z 
01:000827A8 ?addCurveI@graphicsPath@@SAXQAV1@@PAU?$__packedList_struct@UpointI@@@@HHPAN@Z 
01:00082820 ?addEllipseF@graphicsPath@@SAXQAV1@@PANPANPANPAN@Z 
01:000828E8 ?addEllipseI@graphicsPath@@SAXQAV1@@HHHH@Z 
01:00082920 ?addEllipseF@graphicsPath@@SAXQAV1@@PAUrectF_struct@gdiplus@@@Z 
01:0008298C ?addEllipseI@graphicsPath@@SAXQAV1@@PAUrectI_struct@gdiplus@@@Z 
01:000829D8 ?addLineI@graphicsPath@@SAXQAV1@@HHHH@Z 
01:00082A10 ?addLineF@graphicsPath@@SAXQAV1@@PANPANPANPAN@Z 
01:00082AD8 ?addLineI@graphicsPath@@SAXQAV1@@PAUpointI_struct@gdiplus@@1@Z 
01:00082B1C ?addLineF@graphicsPath@@SAXQAV1@@PAUpointF_struct@gdiplus@@1@Z 
01:00082C40 ?addLinesF@graphicsPath@@SAXQAV1@@PAU?$__packedList_struct@UpointF@@@@@Z 
01:00082C88 ?addLinesI@graphicsPath@@SAXQAV1@@PAU?$__packedList_struct@UpointI@@@@@Z 
01:00082CD0 ?addPath@graphicsPath@@SAXQAV1@@0PAUboolean_struct@_builtIn@@@Z 
01:00082D24 ?addPieF@graphicsPath@@SAXQAV1@@PANPANPANPANPANPAN@Z 
01:00082E38 ?addPieI@graphicsPath@@SAXQAV1@@HHHHPANPAN@Z 
01:00082EC0 ?addPieI@graphicsPath@@SAXQAV1@@PAUrectI_struct@gdiplus@@PANPAN@Z 
01:00082F1C ?addPieF@graphicsPath@@SAXQAV1@@PAUrectF_struct@gdiplus@@PANPAN@Z 
01:00083054 ?addPolygonF@graphicsPath@@SAXQAV1@@PAU?$__packedList_struct@UpointF@@@@@Z 
01:0008309C ?addPolygonI@graphicsPath@@SAXQAV1@@PAU?$__packedList_struct@UpointI@@@@@Z 
01:000830E4 ?addRectangleF@graphicsPath@@SAXQAV1@@PANPANPANPAN@Z 
01:000831AC ?addRectangleI@graphicsPath@@SAXQAV1@@HHHH@Z 
01:000831E4 ?addRectangleF@graphicsPath@@SAXQAV1@@PAUrectF_struct@gdiplus@@@Z 
01:00083250 ?addRectangleI@graphicsPath@@SAXQAV1@@PAUrectI_struct@gdiplus@@@Z 
01:0008329C ?addRectanglesF@graphicsPath@@SAXQAV1@@PAU?$__packedList_struct@UrectF@@@@@Z 
01:000832E4 ?addRectanglesI@graphicsPath@@SAXQAV1@@PAU?$__packedList_struct@UrectI@@@@@Z 
01:0008332C ?addString@graphicsPath@@SAXQAV1@@PB_WHPAUoptional_struct@core@@QAVfontFamily@@@HPANPAUrectF_struct@gdiplus@@PAU34@QAVstringFormat@@@@Z 
01:000833F0 ?transform@graphicsPath@@SAXQAV1@@QAVmatrix@@@@Z 
01:0008342C ?_getBoundsF@graphicsPath@@SAXQAV1@@PAPAUrectF_struct@gdiplus@@@Z 
01:00083458 ?_getBoundsF@graphicsPath@@SAXQAV1@@QAVmatrix@@@PAPAUrectF_struct@gdiplus@@@Z 
01:00083494 ?_getBoundsF@graphicsPath@@SAXQAV1@@PAUoptional_struct@core@@QAVmatrix@@@PAU34@QAVpen@@@PAPAUrectF_struct@gdiplus@@@Z 
01:00083544 ?_getBoundsI@graphicsPath@@SAXQAV1@@PAPAUrectI_struct@gdiplus@@@Z 
01:00083570 ?_getBoundsI@graphicsPath@@SAXQAV1@@QAVmatrix@@@PAPAUrectI_struct@gdiplus@@@Z 
01:000835AC ?_getBoundsI@graphicsPath@@SAXQAV1@@PAUoptional_struct@core@@QAVmatrix@@@PAU34@QAVpen@@@PAPAUrectI_struct@gdiplus@@@Z 
01:0008365C ?flatten@graphicsPath@@SAXQAV1@@@Z 
01:0008367C ?flatten@graphicsPath@@SAXQAV1@@QAVmatrix@@@@Z 
01:000836B0 ?flatten@graphicsPath@@SAXQAV1@@PAUoptional_struct@core@@QAVmatrix@@@PAN@Z 
01:00083738 ?widen@graphicsPath@@SAXQAV1@@QAVpen@@@@Z 
01:00083758 ?widen@graphicsPath@@SAXQAV1@@QAVpen@@@PAUoptional_struct@core@@QAVmatrix@@@@Z 
01:0008376C ?widen@graphicsPath@@SAXQAV1@@QAVpen@@@PAUoptional_struct@core@@QAVmatrix@@@PAN@Z 
01:00083804 ?outline@graphicsPath@@SAXQAV1@@@Z 
01:00083824 ?outline@graphicsPath@@SAXQAV1@@QAVmatrix@@@@Z 
01:00083858 ?outline@graphicsPath@@SAXQAV1@@PAUoptional_struct@core@@QAVmatrix@@@PAN@Z 
01:000838E0 ?warp@graphicsPath@@SAXQAV1@@PAU?$__packedList_struct@UpointF@@@@PAUrectF_struct@gdiplus@@PAUoptional_struct@core@@QAVmatrix@@@PBUwarpMode@gdiplus_native@@PAN@Z 
01:000839C4 ?pointCount@graphicsPath@@SGPBUpositive@@QAV1@@@Z 
01:00083A10 ?pathPointsF@graphicsPath@@SGPAU?$__packedList_struct@UpointF@@@@QAV1@@@Z 
01:00083A8C ?pathPointsI@graphicsPath@@SGPAU?$__packedList_struct@UpointI@@@@QAV1@@@Z 
01:00083B08 ?pathTypes@graphicsPath@@SGPAU?$__packedList_struct@Uinteger@@@@QAV1@@@Z 
01:00083B7C ?isVisibleF@graphicsPath@@SAXQAV1@@PAUpointF_struct@gdiplus@@@Z 
01:00083B90 ?isVisibleF@graphicsPath@@SAXQAV1@@PANPAN@Z 
01:00083C00 ?isVisiblePointF@graphicsPath@@SAXQAV1@@PAUpointF_struct@gdiplus@@PAUoptional_struct@core@@QAVgraphics@@@@Z 
01:00083C90 ?isVisibleI@graphicsPath@@SAXQAV1@@PAUpointI_struct@gdiplus@@@Z 
01:00083CA4 ?isVisibleI@graphicsPath@@SAXQAV1@@HH@Z 
01:00083CD8 ?isVisiblePointI@graphicsPath@@SAXQAV1@@PAUpointI_struct@gdiplus@@PAUoptional_struct@core@@QAVgraphics@@@@Z 
01:00083D5C ?isOutlineVisibleF@graphicsPath@@SAXQAV1@@PAUpointF_struct@gdiplus@@@Z 
01:00083D7C ?isOutlineVisibleF@graphicsPath@@SAXQAV1@@PANPAN@Z 
01:00083DF8 ?isOutlineVisiblePointF@graphicsPath@@SAXQAV1@@PAUpointF_struct@gdiplus@@PAUoptional_struct@core@@QAVpen@@@PAU56@QAVgraphics@@@@Z 
01:00083EB8 ?isOutlineVisibleI@graphicsPath@@SAXQAV1@@PAUpointI_struct@gdiplus@@@Z 
01:00083ED8 ?isOutlineVisibleI@graphicsPath@@SAXQAV1@@HH@Z 
01:00083F18 ?isOutlineVisiblePointI@graphicsPath@@SAXQAV1@@PAUpointI_struct@gdiplus@@PAUoptional_struct@core@@QAVpen@@@PAU56@QAVgraphics@@@@Z 
01:00083FCC ?_newNative@graphicsPath@@SAXPBUgpPath@gdiplus_native@@PAPAV1@@@Z 
01:00083FF4 ?_create@graphicsPath@@SAXPAPAV1@@@Z 
01:0008401C ?_create@graphicsPath@@SAXPBUgpFillMode@gdiplus_native@@PAPAV1@@@Z  (Idle)
01:00084044 ?_createPathF@graphicsPath@@SAXPAU?$__packedList_struct@UpointF@@@@PAU?$__packedList_struct@Uinteger@@@@PAPAV1@@@Z  (Idle)
01:00084070 ?_createPathF@graphicsPath@@SAXPAU?$__packedList_struct@UpointF@@@@PAU?$__packedList_struct@Uinteger@@@@PBUgpFillMode@gdiplus_native@@PAPAV1@@@Z  (Idle)
01:000840A0 ?_createPathI@graphicsPath@@SAXPAU?$__packedList_struct@UpointI@@@@PAU?$__packedList_struct@Uinteger@@@@PAPAV1@@@Z  (Idle)
01:000840CC ?_createPathI@graphicsPath@@SAXPAU?$__packedList_struct@UpointI@@@@PAU?$__packedList_struct@Uinteger@@@@PBUgpFillMode@gdiplus_native@@PAPAV1@@@Z  (Idle)
01:000840FC ?nativePath@graphicsPath@@SGXQAV1@@PBUgpPath@gdiplus_native@@@Z 
01:0008410C ?nativePath@graphicsPath@@SGPBUgpPath@gdiplus_native@@QAV1@@@Z 
01:00084118 ?createFromWindow@graphics@@SAXQAV1@@QAVwindow@@@@Z  (Idle)
01:00084144 ?newNative@graphics@@SAXQAV1@@PBUgpGraphics@gdiplus_native@@@Z  (Idle)
01:00084158 ?createFromHDC@graphics@@SAXQAV1@@PBUhDC@gui_native@@@Z  (Idle)
01:0008418C ?createFromHDC@graphics@@SAXQAV1@@PBUhDC@gui_native@@PBUhandle@@@Z  (Idle)
01:000841C4 ?createFromHWND@graphics@@SAXQAV1@@PBUhwnd@core@@@Z 
01:000841D8 ?createFromHWND@graphics@@SAXQAV1@@PBUhwnd@@PAUboolean_struct@_builtIn@@@Z 
01:00084240 ?createFromImage@graphics@@SAXQAV1@@QAVimage@@@@Z  (Idle)
01:00084280 ?finalize@graphics@@SGXQAV1@@@Z 
01:0008429C ?delete@graphics@@SAXQAV1@@@Z 
01:000842FC ?flush@graphics@@SAXQAV1@@@Z 
01:00084310 ?flush@graphics@@SAXQAV1@@PBUgpFlushIntention@gdiplus_native@@@Z 
01:00084340 ?_getHDC@graphics@@SAXQAV1@@AAUhDC@gui_native@@@Z 
01:00084370 ?releaseHDC@graphics@@SAXQAV1@@PBUhDC@gui_native@@@Z 
01:000843A0 ?compositingMode@graphics@@SGXQAV1@@PBU0gdiplus_native@@@Z 
01:000843D8 ?compositingMode@graphics@@SGPBU0gdiplus_native@@QAV1@@@Z 
01:00084414 ?compositingQuality@graphics@@SGXQAV1@@PBU0gdiplus_native@@@Z 
01:0008444C ?compositingQuality@graphics@@SGPBU0gdiplus_native@@QAV1@@@Z 
01:00084488 ?_dpiX@graphics@@SAXQAV1@@PAPAN@Z 
01:000844F4 ?_dpiY@graphics@@SAXQAV1@@PAPAN@Z 
01:00084560 ?interpolationMode@graphics@@SGPBU0gdiplus_native@@QAV1@@@Z 
01:0008459C ?interpolationMode@graphics@@SGXQAV1@@PBU0gdiplus_native@@@Z 
01:000845D4 ?renderingOrigin@graphics@@SGPAUpointI_struct@gdiplus@@QAV1@@@Z 
01:00084630 ?renderingOrigin@graphics@@SGXQAV1@@PAUpointI_struct@gdiplus@@@Z 
01:00084674 ?textRenderingHint@graphics@@SGPBU0gdiplus_native@@QAV1@@@Z 
01:000846B0 ?textRenderingHint@graphics@@SGXQAV1@@PBU0gdiplus_native@@@Z 
01:000846E8 ?textContrast@graphics@@SGIQAV1@@@Z 
01:00084724 ?textContrast@graphics@@SGXQAV1@@I@Z 
01:0008475C ?smoothingMode@graphics@@SGXQAV1@@PBU0gdiplus_native@@@Z 
01:00084794 ?smoothingMode@graphics@@SGPBU0gdiplus_native@@QAV1@@@Z 
01:000847D0 ?pixelOffsetMode@graphics@@SGPBU0gdiplus_native@@QAV1@@@Z 
01:0008480C ?pixelOffsetMode@graphics@@SGXQAV1@@PBU0gdiplus_native@@@Z 
01:00084844 ?transform@graphics@@SGQAVmatrix@@@QAV1@@@Z 
01:0008489C ?transform@graphics@@SGXQAV1@@QAVmatrix@@@@Z 
01:000848E0 ?resetTransform@graphics@@SAXQAV1@@@Z 
01:00084914 ?multiplyTransform@graphics@@SAXQAV1@@QAVmatrix@@@@Z 
01:00084928 ?multiplyTransform@graphics@@SAXQAV1@@QAVmatrix@@@PBUgpMatrixOrder@gdiplus_native@@@Z 
01:00084968 ?translateTransform@graphics@@SAXQAV1@@PANPAN@Z 
01:0008497C ?translateTransform@graphics@@SAXQAV1@@PANPANPBUgpMatrixOrder@gdiplus_native@@@Z 
01:000849FC ?scaleTransform@graphics@@SAXQAV1@@PANPAN@Z 
01:00084A10 ?scaleTransform@graphics@@SAXQAV1@@PANPANPBUgpMatrixOrder@gdiplus_native@@@Z 
01:00084A90 ?rotateTransform@graphics@@SAXQAV1@@PAN@Z 
01:00084AA4 ?rotateTransform@graphics@@SAXQAV1@@PANPBUgpMatrixOrder@gdiplus_native@@@Z 
01:00084AFC ?_transformPointsF@graphics@@SAXQAV1@@PBUgpCoordinateSpace@gdiplus_native@@1PAU?$__packedList_struct@UpointF@@@@PAPAU?$__packedList_struct@U7@@@@Z 
01:00084B64 ?_transformPointsI@graphics@@SAXQAV1@@PBUgpCoordinateSpace@gdiplus_native@@1PAU?$__packedList_struct@UpointI@@@@PAPAU?$__packedList_struct@U7@@@@Z 
01:00084BCC ?_pageScale@graphics@@SAXQAV1@@PAPAN@Z 
01:00084C38 ?pageScale@graphics@@SAXQAV1@@PAN@Z 
01:00084C8C ?pageUnit@graphics@@SGPBUgpUnit@gdiplus_native@@QAV1@@@Z 
01:00084CC8 ?pageUnit@graphics@@SGXQAV1@@PBUgpUnit@gdiplus_native@@@Z 
01:00084D00 ?_getNearestColor@graphics@@SAXQAV1@@QAVcolor@@@PAPAV3@@@Z 
01:00084D6C ?drawArcF@graphics@@SAXQAV1@@QAVpen@@@PANPANPANPANPANPAN@Z 
01:00084E90 ?drawArcI@graphics@@SAXQAV1@@QAVpen@@@HHHHPANPAN@Z 
01:00084F28 ?drawArcI@graphics@@SAXQAV1@@QAVpen@@@PAUrectI_struct@gdiplus@@PANPAN@Z 
01:00084F84 ?drawArcF@graphics@@SAXQAV1@@QAVpen@@@PAUrectF_struct@gdiplus@@PANPAN@Z 
01:000850BC ?drawBezierF@graphics@@SAXQAV1@@QAVpen@@@PANPANPANPANPANPANPANPAN@Z 
01:0008522C ?drawBezierI@graphics@@SAXQAV1@@QAVpen@@@HHHHHHHH@Z 
01:00085280 ?drawBezierF@graphics@@SAXQAV1@@QAVpen@@@PAUpointF_struct@gdiplus@@222@Z 
01:0008533C ?drawBezierI@graphics@@SAXQAV1@@QAVpen@@@PAUpointI_struct@gdiplus@@222@Z 
01:000853C4 ?drawBeziersI@graphics@@SAXQAV1@@QAVpen@@@PAU?$__packedList_struct@UpointI@@@@@Z 
01:0008541C ?drawBeziersF@graphics@@SAXQAV1@@QAVpen@@@PAU?$__packedList_struct@UpointF@@@@@Z 
01:00085474 ?drawClosedCurveF@graphics@@SAXQAV1@@QAVpen@@@PAU?$__packedList_struct@UpointF@@@@@Z 
01:000854CC ?drawClosedCurveI@graphics@@SAXQAV1@@QAVpen@@@PAU?$__packedList_struct@UpointI@@@@@Z 
01:00085524 ?drawClosedCurveF@graphics@@SAXQAV1@@QAVpen@@@PAU?$__packedList_struct@UpointF@@@@PAN@Z 
01:000855A4 ?drawClosedCurveI@graphics@@SAXQAV1@@QAVpen@@@PAU?$__packedList_struct@UpointI@@@@PAN@Z 
01:00085624 ?drawCurveF@graphics@@SAXQAV1@@QAVpen@@@PAU?$__packedList_struct@UpointF@@@@@Z 
01:0008567C ?drawCurveI@graphics@@SAXQAV1@@QAVpen@@@PAU?$__packedList_struct@UpointI@@@@@Z 
01:000856D4 ?drawCurveF@graphics@@SAXQAV1@@QAVpen@@@PAU?$__packedList_struct@UpointF@@@@PAN@Z 
01:00085754 ?drawCurveI@graphics@@SAXQAV1@@QAVpen@@@PAU?$__packedList_struct@UpointI@@@@PAN@Z 
01:000857D4 ?drawCurveF@graphics@@SAXQAV1@@QAVpen@@@PAU?$__packedList_struct@UpointF@@@@HHPAN@Z 
01:0008585C ?drawCurveI@graphics@@SAXQAV1@@QAVpen@@@PAU?$__packedList_struct@UpointI@@@@HHPAN@Z 
01:000858E4 ?drawEllipseF@graphics@@SAXQAV1@@QAVpen@@@PANPANPANPAN@Z 
01:000859BC ?drawEllipseI@graphics@@SAXQAV1@@QAVpen@@@HHHH@Z 
01:00085A04 ?drawEllipseF@graphics@@SAXQAV1@@QAVpen@@@PAUrectF_struct@gdiplus@@@Z 
01:00085A80 ?drawEllipseI@graphics@@SAXQAV1@@QAVpen@@@PAUrectI_struct@gdiplus@@@Z 
01:00085AE0 ?drawImageF@graphics@@SAXQAV1@@PAUoptional_struct@core@@QAVimage@@@PANPAN@Z 
01:00085B8C ?drawImageI@graphics@@SAXQAV1@@PAUoptional_struct@core@@QAVimage@@@HH@Z 
01:00085BF0 ?drawImageF@graphics@@SAXQAV1@@PAUoptional_struct@core@@QAVimage@@@PAUpointF_struct@gdiplus@@@Z 
01:00085C6C ?drawImageI@graphics@@SAXQAV1@@PAUoptional_struct@core@@QAVimage@@@PAUpointI_struct@gdiplus@@@Z 
01:00085CDC ?drawImageRectF@graphics@@SAXQAV1@@PAUoptional_struct@core@@QAVimage@@@PANPANPANPAN@Z 
01:00085DD4 ?drawImageRectI@graphics@@SAXQAV1@@PAUoptional_struct@core@@QAVimage@@@HHHH@Z 
01:00085E40 ?drawImageRectF@graphics@@SAXQAV1@@PAUoptional_struct@core@@QAVimage@@@PAUrectF_struct@gdiplus@@@Z 
01:00085EDC ?drawImageRectI@graphics@@SAXQAV1@@PAUoptional_struct@core@@QAVimage@@@PAUrectI_struct@gdiplus@@@Z 
01:00085F60 ?drawImagePointsF@graphics@@SAXQAV1@@PAUoptional_struct@core@@QAVimage@@@PAU?$__packedList_struct@UpointF@@@@@Z 
01:00086060 ?drawImagePointsI@graphics@@SAXQAV1@@PAUoptional_struct@core@@QAVimage@@@PAU?$__packedList_struct@UpointI@@@@@Z 
01:00086160 ?drawImagePointRectF@graphics@@SAXQAV1@@PAUoptional_struct@core@@QAVimage@@@PANPANPANPANPANPANPBUgpUnit@gdiplus_native@@@Z 
01:000862A8 ?drawImagePointRectI@graphics@@SAXQAV1@@PAUoptional_struct@core@@QAVimage@@@HHHHHHPBUgpUnit@gdiplus_native@@@Z 
01:0008631C ?drawImageRectRectF@graphics@@SAXQAV1@@PAUoptional_struct@core@@QAVimage@@@PAUrectF_struct@gdiplus@@PANPANPANPANPBUgpUnit@gdiplus_native@@PAU34@QAVimageAttributes@@@XPAX@Z 
01:0008648C ?drawImageRectRectI@graphics@@SAXQAV1@@PAUoptional_struct@core@@QAVimage@@@PAUrectI_struct@gdiplus@@HHHHPBUgpUnit@gdiplus_native@@PAU34@QAVimageAttributes@@@XPAX@Z 
01:00086554 ?drawImagePointsRectF@graphics@@SAXQAV1@@PAUoptional_struct@core@@QAVimage@@@PAU?$__packedList_struct@UpointF@@@@PANPANPANPANPBUgpUnit@gdiplus_native@@PAU34@QAVimageAttributes@@@XPAX@Z 
01:000866A4 ?drawImagePointsRectI@graphics@@SAXQAV1@@PAUoptional_struct@core@@QAVimage@@@PAU?$__packedList_struct@UpointI@@@@HHHHPBUgpUnit@gdiplus_native@@PAU34@QAVimageAttributes@@@XPAX@Z 
01:00086764 ?drawLineI@graphics@@SAXQAV1@@QAVpen@@@HHHH@Z 
01:000867AC ?drawLineF@graphics@@SAXQAV1@@QAVpen@@@PANPANPANPAN@Z 
01:00086884 ?drawLineI@graphics@@SAXQAV1@@QAVpen@@@PAUpointI_struct@gdiplus@@2@Z 
01:000868C8 ?drawLineF@graphics@@SAXQAV1@@QAVpen@@@PAUpointF_struct@gdiplus@@2@Z 
01:000869EC ?drawLinesF@graphics@@SAXQAV1@@QAVpen@@@PAU?$__packedList_struct@UpointF@@@@@Z 
01:00086A44 ?drawLinesI@graphics@@SAXQAV1@@QAVpen@@@PAU?$__packedList_struct@UpointI@@@@@Z 
01:00086A9C ?drawPath@graphics@@SAXQAV1@@QAVpen@@@QAVgraphicsPath@@@@Z 
01:00086AE8 ?drawPieF@graphics@@SAXQAV1@@QAVpen@@@PANPANPANPANPANPAN@Z 
01:00086C0C ?drawPieI@graphics@@SAXQAV1@@QAVpen@@@HHHHPANPAN@Z 
01:00086CA4 ?drawPieI@graphics@@SAXQAV1@@QAVpen@@@PAUrectI_struct@gdiplus@@PANPAN@Z 
01:00086D00 ?drawPieF@graphics@@SAXQAV1@@QAVpen@@@PAUrectF_struct@gdiplus@@PANPAN@Z 
01:00086E38 ?drawPolygonF@graphics@@SAXQAV1@@QAVpen@@@PAU?$__packedList_struct@UpointF@@@@@Z 
01:00086E90 ?drawPolygonI@graphics@@SAXQAV1@@QAVpen@@@PAU?$__packedList_struct@UpointI@@@@@Z 
01:00086EE8 ?drawRectangleF@graphics@@SAXQAV1@@QAVpen@@@PANPANPANPAN@Z 
01:00086FC0 ?drawRectangleI@graphics@@SAXQAV1@@QAVpen@@@HHHH@Z 
01:00087008 ?drawRectangleF@graphics@@SAXQAV1@@QAVpen@@@PAUrectF_struct@gdiplus@@@Z 
01:00087084 ?drawRectangleI@graphics@@SAXQAV1@@QAVpen@@@PAUrectI_struct@gdiplus@@@Z 
01:000870E4 ?drawRectanglesF@graphics@@SAXQAV1@@QAVpen@@@PAU?$__packedList_struct@UrectF@@@@@Z 
01:0008713C ?drawRectanglesI@graphics@@SAXQAV1@@QAVpen@@@PAU?$__packedList_struct@UrectI@@@@@Z 
01:00087194 ?drawString@graphics@@SAXQAV1@@PB_WPAUoptional_struct@core@@QAVfont@@@PAUrectF_struct@gdiplus@@PAU34@QAVstringFormat@@@PAU34@QAVbrush@@@@Z 
01:000871CC ?drawString@graphics@@SAXQAV1@@PB_WHPAUoptional_struct@core@@QAVfont@@@PAUrectF_struct@gdiplus@@PAU34@QAVstringFormat@@@PAU34@QAVbrush@@@@Z 
01:00087298 ?measureString@graphics@@SAXQAV1@@PB_WPAUoptional_struct@core@@QAVfont@@@PAUrectF_struct@gdiplus@@PAU34@QAVstringFormat@@@PAPAU67@PAHPAH@Z 
01:000872E4 ?measureString@graphics@@SAXQAV1@@PB_WHPAUoptional_struct@core@@QAVfont@@@PAUrectF_struct@gdiplus@@PAU34@QAVstringFormat@@@PAPAU67@PAHPAH@Z 
01:000873A0 $measureCharacterRanges$graphics_implement$predicate$(i,i,i,i,i,i,i)$c$_m107 
01:000874DC ?drawDriverString@graphics@@SAXQAV1@@PB_WHPAUoptional_struct@core@@QAVfont@@@PAU34@QAVbrush@@@PAU?$__packedList_struct@UpointF@@@@IPAU34@QAVmatrix@@@@Z 
01:000875C0 ?measureDriverString@graphics@@SAXQAV1@@PB_WHPAUoptional_struct@core@@QAVfont@@@PAU?$__packedList_struct@UpointF@@@@IPAU34@QAVmatrix@@@PAPAUrectF_struct@gdiplus@@@Z 
01:00087690 ?drawCachedBitmap@graphics@@SAXQAV1@@QAVcachedBitmap@@@HH@Z 
01:000876D4 ?setClipGraphics@graphics@@SAXQAV1@@0@Z 
01:000876E8 ?setClipGraphics@graphics@@SAXQAV1@@0PBUcombineMode@gdiplus_native@@@Z 
01:00087728 ?setClipRectF@graphics@@SAXQAV1@@PAUrectF_struct@gdiplus@@@Z 
01:0008773C ?setClipRectF@graphics@@SAXQAV1@@PAUrectF_struct@gdiplus@@PBUcombineMode@gdiplus_native@@@Z 
01:000877AC ?setClipRectI@graphics@@SAXQAV1@@PAUrectI_struct@gdiplus@@@Z 
01:000877C0 ?setClipRectI@graphics@@SAXQAV1@@PAUrectI_struct@gdiplus@@PBUcombineMode@gdiplus_native@@@Z 
01:00087810 ?setClipRegion@graphics@@SAXQAV1@@QAVregion@@@@Z 
01:00087824 ?setClipRegion@graphics@@SAXQAV1@@QAVregion@@@PBUcombineMode@gdiplus_native@@@Z 
01:00087864 ?setClipPath@graphics@@SAXQAV1@@QAVgraphicsPath@@@@Z 
01:00087878 ?setClipPath@graphics@@SAXQAV1@@QAVgraphicsPath@@@PBUcombineMode@gdiplus_native@@@Z 
01:000878B8 ?setClipHrgn@graphics@@SAXQAV1@@PBUhRgn@gui_native@@@Z 
01:000878CC ?setClipHrgn@graphics@@SAXQAV1@@PBUhRgn@gui_native@@PBUcombineMode@gdiplus_native@@@Z 
01:00087900 ?intersectClipRectF@graphics@@SAXQAV1@@PAUrectF_struct@gdiplus@@@Z 
01:00087914 ?intersectClipRectI@graphics@@SAXQAV1@@PAUrectI_struct@gdiplus@@@Z 
01:00087928 ?intersectClipRegion@graphics@@SAXQAV1@@QAVregion@@@@Z 
01:0008793C ?excludeClipRectF@graphics@@SAXQAV1@@PAUrectF_struct@gdiplus@@@Z 
01:00087950 ?excludeClipRectI@graphics@@SAXQAV1@@PAUrectI_struct@gdiplus@@@Z 
01:00087964 ?excludeClipRegion@graphics@@SAXQAV1@@QAVregion@@@@Z 
01:00087978 ?resetClip@graphics@@SAXQAV1@@@Z 
01:000879AC ?translateClipF@graphics@@SAXQAV1@@PANPAN@Z 
01:00087A28 ?translateClipI@graphics@@SAXQAV1@@HH@Z 
01:00087A5C ?_getClip@graphics@@SAXQAV1@@PAPAVregion@@@@Z 
01:00087A98 ?_getClipBoundsF@graphics@@SAXQAV1@@PAPAUrectF_struct@gdiplus@@@Z 
01:00087AE0 ?_getClipBoundsI@graphics@@SAXQAV1@@PAPAUrectI_struct@gdiplus@@@Z 
01:00087B28 ?isClipEmpty@graphics@@SAXQAV1@@@Z 
01:00087B68 ?_getVisibleClipBoundsF@graphics@@SAXQAV1@@PAPAUrectF_struct@gdiplus@@@Z 
01:00087BB0 ?_getVisibleClipBoundsI@graphics@@SAXQAV1@@PAPAUrectI_struct@gdiplus@@@Z 
01:00087BF8 ?isVisibleClipEmpty@graphics@@SAXQAV1@@@Z 
01:00087C38 ?isVisiblePointF@graphics@@SAXQAV1@@PANPAN@Z 
01:00087CA0 ?isVisiblePointF@graphics@@SAXQAV1@@PAUpointF_struct@gdiplus@@@Z 
01:00087D00 ?isVisiblePointI@graphics@@SAXQAV1@@HH@Z 
01:00087D2C ?isVisiblePointI@graphics@@SAXQAV1@@PAUpointI_struct@gdiplus@@@Z 
01:00087D7C ?isVisibleRectF@graphics@@SAXQAV1@@PANPANPANPAN@Z 
01:00087E2C ?isVisibleRectF@graphics@@SAXQAV1@@PAUrectF_struct@gdiplus@@@Z 
01:00087EAC ?isVisibleRectI@graphics@@SAXQAV1@@HHHH@Z 
01:00087EE4 ?isVisibleRectI@graphics@@SAXQAV1@@PAUrectI_struct@gdiplus@@@Z 
01:00087F48 ?_save@graphics@@SAXQAV1@@AAUgpGraphicsState@gdiplus_native@@@Z 
01:00087F78 ?restore@graphics@@SAXQAV1@@PBUgpGraphicsState@gdiplus_native@@@Z 
01:00087FA8 ?addMetafileComment@graphics@@SAXQAV1@@QAE@Z 
01:00087FF0 ?halfTonePalette@graphics@@SGPBUhPalette@gui_native@@QAV1@@@Z 
01:00088008 ?clear@graphics@@SAXQAV1@@QAVcolor@@@@Z 
01:00088044 ?enumerateMetaFileDestPointF@graphics@@SAXQAV1@@PAUoptional_struct@core@@QAVmetafile@@@PAUpointF_struct@gdiplus@@XPAXPAU34@QAVimageAttributes@@@@Z 
01:000880E0 ?enumerateMetaFileDestPointI@graphics@@SAXQAV1@@PAUoptional_struct@core@@QAVmetafile@@@PAUpointI_struct@gdiplus@@XPAXPAU34@QAVimageAttributes@@@@Z 
01:0008817C ?enumerateMetaFileDestRectF@graphics@@SAXQAV1@@PAUoptional_struct@core@@QAVmetafile@@@PAUrectF_struct@gdiplus@@XPAXPAU34@QAVimageAttributes@@@@Z 
01:00088218 ?enumerateMetaFileDestRectI@graphics@@SAXQAV1@@PAUoptional_struct@core@@QAVmetafile@@@PAUrectI_struct@gdiplus@@XPAXPAU34@QAVimageAttributes@@@@Z 
01:000882B4 ?enumerateMetaFileDestPointsF@graphics@@SAXQAV1@@PAUoptional_struct@core@@QAVmetafile@@@PAU?$__packedList_struct@UpointF@@@@XPAXPAU34@QAVimageAttributes@@@@Z 
01:0008836C ?enumerateMetaFileDestPointsI@graphics@@SAXQAV1@@PAUoptional_struct@core@@QAVmetafile@@@PAU?$__packedList_struct@UpointI@@@@XPAXPAU34@QAVimageAttributes@@@@Z 
01:00088424 ?enumerateMetaFileSrcRectDestPointF@graphics@@SAXQAV1@@PAUoptional_struct@core@@QAVmetafile@@@PAUpointF_struct@gdiplus@@PAUrectF_struct@7@PBUgpUnit@gdiplus_native@@XPAXPAU34@QAVimageAttributes@@@@Z 
01:000884C8 ?enumerateMetaFileSrcRectDestPointI@graphics@@SAXQAV1@@PAUoptional_struct@core@@QAVmetafile@@@PAUpointI_struct@gdiplus@@PAUrectI_struct@7@PBUgpUnit@gdiplus_native@@XPAXPAU34@QAVimageAttributes@@@@Z 
01:0008856C ?enumerateMetaFileSrcRectDestRectF@graphics@@SAXQAV1@@PAUoptional_struct@core@@QAVmetafile@@@PAUrectF_struct@gdiplus@@2PBUgpUnit@gdiplus_native@@XPAXPAU34@QAVimageAttributes@@@@Z 
01:00088610 ?enumerateMetaFileSrcRectDestRectI@graphics@@SAXQAV1@@PAUoptional_struct@core@@QAVmetafile@@@PAUrectI_struct@gdiplus@@2PBUgpUnit@gdiplus_native@@XPAXPAU34@QAVimageAttributes@@@@Z 
01:000886B4 ?enumerateMetaFileSrcRectDestPointsF@graphics@@SAXQAV1@@PAUoptional_struct@core@@QAVmetafile@@@PAU?$__packedList_struct@UpointF@@@@PAUrectF_struct@gdiplus@@PBUgpUnit@gdiplus_native@@XPAXPAU34@QAVimageAttributes@@@@Z 
01:00088770 ?enumerateMetaFileSrcRectDestPointsI@graphics@@SAXQAV1@@PAUoptional_struct@core@@QAVmetafile@@@PAU?$__packedList_struct@UpointI@@@@PAUrectI_struct@gdiplus@@PBUgpUnit@gdiplus_native@@XPAXPAU34@QAVimageAttributes@@@@Z 
01:0008882C ?fillClosedCurveF@graphics@@SAXQAV1@@QAVbrush@@@PAU?$__packedList_struct@UpointF@@@@@Z 
01:00088888 ?fillClosedCurveI@graphics@@SAXQAV1@@QAVbrush@@@PAU?$__packedList_struct@UpointI@@@@@Z 
01:000888E4 ?fillClosedCurveF@graphics@@SAXQAV1@@QAVbrush@@@PAU?$__packedList_struct@UpointF@@@@PBUgpFillMode@gdiplus_native@@@Z 
01:000888F8 ?fillClosedCurveI@graphics@@SAXQAV1@@QAVbrush@@@PAU?$__packedList_struct@UpointI@@@@PBUgpFillMode@gdiplus_native@@@Z 
01:0008890C ?fillClosedCurveF@graphics@@SAXQAV1@@QAVbrush@@@PAU?$__packedList_struct@UpointF@@@@PBUgpFillMode@gdiplus_native@@PAN@Z 
01:00088990 ?fillClosedCurveI@graphics@@SAXQAV1@@QAVbrush@@@PAU?$__packedList_struct@UpointI@@@@PBUgpFillMode@gdiplus_native@@PAN@Z 
01:00088A14 ?fillEllipseF@graphics@@SAXQAV1@@QAVbrush@@@PANPANPANPAN@Z 
01:00088AEC ?fillEllipseI@graphics@@SAXQAV1@@QAVbrush@@@HHHH@Z 
01:00088B38 ?fillEllipseF@graphics@@SAXQAV1@@QAVbrush@@@PAUrectF_struct@gdiplus@@@Z 
01:00088BB4 ?fillEllipseI@graphics@@SAXQAV1@@QAVbrush@@@PAUrectI_struct@gdiplus@@@Z 
01:00088C14 ?fillPath@graphics@@SAXQAV1@@QAVbrush@@@QAVgraphicsPath@@@@Z 
01:00088C60 ?fillPieF@graphics@@SAXQAV1@@QAVbrush@@@PANPANPANPANPANPAN@Z 
01:00088D84 ?fillPieI@graphics@@SAXQAV1@@QAVbrush@@@HHHHPANPAN@Z 
01:00088E1C ?fillPieI@graphics@@SAXQAV1@@QAVbrush@@@PAUrectI_struct@gdiplus@@PANPAN@Z 
01:00088E78 ?fillPieF@graphics@@SAXQAV1@@QAVbrush@@@PAUrectF_struct@gdiplus@@PANPAN@Z 
01:00088FB0 ?fillPolygonF@graphics@@SAXQAV1@@QAVbrush@@@PAU?$__packedList_struct@UpointF@@@@@Z 
01:00088FC4 ?fillPolygonI@graphics@@SAXQAV1@@QAVbrush@@@PAU?$__packedList_struct@UpointI@@@@@Z 
01:00088FD8 ?fillPolygonF@graphics@@SAXQAV1@@QAVbrush@@@PAU?$__packedList_struct@UpointF@@@@PBUgpFillMode@gdiplus_native@@@Z 
01:00089034 ?fillPolygonI@graphics@@SAXQAV1@@QAVbrush@@@PAU?$__packedList_struct@UpointI@@@@PBUgpFillMode@gdiplus_native@@@Z 
01:00089090 ?fillRectangleF@graphics@@SAXQAV1@@QAVbrush@@@PANPANPANPAN@Z 
01:00089168 ?fillRectangleI@graphics@@SAXQAV1@@QAVbrush@@@HHHH@Z 
01:000891B4 ?fillRectangleF@graphics@@SAXQAV1@@QAVbrush@@@PAUrectF_struct@gdiplus@@@Z 
01:00089230 ?fillRectangleI@graphics@@SAXQAV1@@QAVbrush@@@PAUrectI_struct@gdiplus@@@Z 
01:00089290 ?fillRectanglesF@graphics@@SAXQAV1@@QAVbrush@@@PAU?$__packedList_struct@UrectF@@@@@Z 
01:000892EC ?fillRectanglesI@graphics@@SAXQAV1@@QAVbrush@@@PAU?$__packedList_struct@UrectI@@@@@Z 
01:00089348 ?fillRegion@graphics@@SAXQAV1@@QAVbrush@@@QAVregion@@@@Z 
01:00089394 ?_beginContainer@graphics@@SAXQAV1@@AAUgpGraphicsContainer@gdiplus_native@@@Z 
01:000893C4 ?_beginContainerF@graphics@@SAXQAV1@@PAUrectF_struct@gdiplus@@1PBUgpUnit@gdiplus_native@@AAUgpGraphicsContainer@8@@Z 
01:000893FC ?_beginContainerI@graphics@@SAXQAV1@@PAUrectI_struct@gdiplus@@1PBUgpUnit@gdiplus_native@@AAUgpGraphicsContainer@8@@Z 
01:00089434 ?endContainer@graphics@@SAXQAV1@@PBUgpGraphicsContainer@gdiplus_native@@@Z 
01:00089464 ?_newNative@graphics@@SAXPBUgpGraphics@gdiplus_native@@PAPAV1@@@Z  (Idle)
01:0008948C ?_createFromWindow@graphics@@SAXQAVwindow@@@PAPAV1@@@Z  (Idle)
01:000894B4 ?_createFromHDC@graphics@@SAXPBUhDC@gui_native@@PAPAV1@@@Z  (Idle)
01:000894DC ?_createFromHDC@graphics@@SAXPBUhDC@gui_native@@PBUhandle@@PAPAV1@@@Z  (Idle)
01:00089508 ?_createFromHWND@graphics@@SAXPBUhwnd@core@@PAPAV1@@@Z  (Idle)
01:00089530 ?_createFromHWND@graphics@@SAXPBUhwnd@@PAUboolean_struct@_builtIn@@PAPAV1@@@Z  (Idle)
--- From 'Obj\imagelist.0B04176D.obj'
01:0008955C ?_createFromImage@graphics@@SAXQAVimage@@@PAPAV1@@@Z 
--- From 'Obj\gdiplus.D367CAF6.obj'
01:00089584 ?nativeGraphics@graphics@@SGPBUgpGraphics@gdiplus_native@@QAV1@@@Z 
01:00089590 addSizeInteger  (Idle)
01:000895E8 addSizeFloat  (Idle)
01:00089644 addPointInteger  (Idle)
01:0008969C addPointFloat  (Idle)
01:000896F8 subSizeInteger  (Idle)
01:00089750 subSizeFloat  (Idle)
01:000897AC subPointInteger  (Idle)
01:00089804 subPointFloat  (Idle)
01:00089860 offsetRectPointInteger  (Idle)
01:000898CC offsetRectPointFloat  (Idle)
01:00089940 offsetRectInteger  (Idle)
01:0008999C offsetRectFloat  (Idle)
01:00089A40 ?isEmptyAreaInteger@gdiplusSupport@@SAXPAUrectI_struct@gdiplus@@@Z  (Idle)
01:00089A84 ?isEmptyAreaFloat@gdiplusSupport@@SAXPAUrectF_struct@gdiplus@@@Z  (Idle)
01:00089B0C ?containsInteger@gdiplusSupport@@SAXPAUrectI_struct@gdiplus@@HH@Z  (Idle)
01:00089B70 ?containsPointInteger@gdiplusSupport@@SAXPAUrectI_struct@gdiplus@@PAUpointI_struct@3@@Z  (Idle)
01:00089B9C ?containsFloat@gdiplusSupport@@SAXPAUrectF_struct@gdiplus@@PANPAN@Z  (Idle)
01:00089CF0 ?containsPointFloat@gdiplusSupport@@SAXPAUrectF_struct@gdiplus@@PAUpointF_struct@3@@Z  (Idle)
01:00089EAC ?_inflateInteger@gdiplusSupport@@SAXPAUrectI_struct@gdiplus@@HHPAPAU23@@Z  (Idle)
01:00089F24 ?_inflatePointInteger@gdiplusSupport@@SAXPAUrectI_struct@gdiplus@@PAUpointI_struct@3@PAPAU23@@Z  (Idle)
01:00089F58 ?_inflateFloat@gdiplusSupport@@SAXPAUrectF_struct@gdiplus@@PANPANPAPAU23@@Z  (Idle)
01:0008A06C ?_inflatePointFloat@gdiplusSupport@@SAXPAUrectF_struct@gdiplus@@PAUpointF_struct@3@PAPAU23@@Z  (Idle)
01:0008A108 ?_intersectInteger@gdiplusSupport@@SAXPAUrectI_struct@gdiplus@@0PAPAU23@@Z  (Idle)
01:0008A200 ?_intersectFloat@gdiplusSupport@@SAXPAUrectF_struct@gdiplus@@0PAPAU23@@Z  (Idle)
01:0008A334 ?intersectsWithInteger@gdiplusSupport@@SAXPAUrectI_struct@gdiplus@@0@Z  (Idle)
01:0008A35C ?intersectsWithFloat@gdiplusSupport@@SAXPAUrectF_struct@gdiplus@@0@Z  (Idle)
01:0008A384 ?_unionInteger@gdiplusSupport@@SAXPAUrectI_struct@gdiplus@@0PAPAU23@@Z  (Idle)
01:0008A47C ?_unionFloat@gdiplusSupport@@SAXPAUrectF_struct@gdiplus@@0PAPAU23@@Z  (Idle)
01:0008A5B0 ?anonymous$c0$1$pointilisttoarray/3np$gdiplusSupport@1@SAXPAXPAUpointI_struct@gdiplus@@@Z 
01:0008A5EC ?pointIListToArray@gdiplusSupport@@SAXPAU?$__packedList_struct@UpointI@@@@PAPAXAAUpositive@@@Z 
01:0008A634 ?anonymous$c0$1$bytelisttoarray/3np$gdiplusSupport@1@SAXPAXH@Z 
01:0008A658 ?byteListToArray@gdiplusSupport@@SAXPAU?$__packedList_struct@Uinteger@@@@PAPAXAAUpositive@@@Z 
01:0008A6A0 ?pointFListToArray@gdiplusSupport@@SAXPAU?$__packedList_struct@UpointF@@@@PAPAXAAUpositive@@@Z 
01:0008A714 ?rectFListToArray@gdiplusSupport@@SAXPAU?$__packedList_struct@UrectF@@@@PAPAXAAUpositive@@@Z 
01:0008A770 ?rectIListToArray@gdiplusSupport@@SAXPAU?$__packedList_struct@UrectI@@@@PAPAXAAUpositive@@@Z 
01:0008A7CC ?anonymous$c0$1$colorlisttoarray/3np$gdiplusSupport@1@SAXPAXQAVcolor@@@@Z 
01:0008A7E8 $colorListToArray$gdiplusSupport_class$predicate$(i,o,o)$b$_c34 
01:0008A830 ?anonymous$c0$1$reallisttoarray/3np$gdiplusSupport@1@SAXPAXPAN@Z 
01:0008A860 ?realListToArray@gdiplusSupport@@SAXPAU?$__packedList_struct@PAN@@PAPAXAAUpositive@@@Z 
01:0008A8A8 ?fillPointFArray@gdiplusSupport@@SAXPAXPAU?$__packedList_struct@UpointF@@@@@Z 
01:0008A920 ?fillRectFArray@gdiplusSupport@@SAXPAXPAU?$__packedList_struct@UrectF@@@@@Z 
01:0008A9E8 ?fillRectIArray@gdiplusSupport@@SAXPAXPAU?$__packedList_struct@UrectI@@@@@Z 
01:0008AA90 ?_arrayToList@gdiplusSupport@@SAXQAVrTypeLibrary@TypeLibraries@RunTime@VIP@@PAXPBUpositive@@XPAPAU?$__packedList_struct@PAPAX@@@Z  (Idle)
01:0008AB28 ?_anonymous$c0$1$tocolorlist/2nf$gdiplusSupport@1@SAXPAXPAPAUtuple_struct@core@@PAPAXPAPAVcolor@@@@Z 
01:0008AB9C $toColorList$gdiplusSupport_class$predicate$(i,i,o)$b$_c40 
01:0008ABDC ?_anonymous$c0$1$toreallist/2nf$gdiplusSupport@1@SAXPAXPAPAUtuple_struct@core@@PAPAXPAPAN@Z 
01:0008AC68 ?_toRealList@gdiplusSupport@@SAXPAXPBUpositive@@PAPAU?$__packedList_struct@PAPAN@@@Z 
01:0008ACA8 ?_anonymous$c0$1$topointilist/2nf$gdiplusSupport@1@SAXPAXPAPAUtuple_struct@core@@PAPAXPAPAUpointI_struct@gdiplus@@@Z 
01:0008AD54 ?_toPointIList@gdiplusSupport@@SAXPAXPBUpositive@@PAPAU?$__packedList_struct@UpointI@@@@@Z 
01:0008AD94 ?_anonymous$c0$1$topropertyitemlist/2nf$gdiplusSupport@1@SAXPAXPAPAUtuple_struct@core@@PAPAXPAPAUpropertyItem_struct@gdiplus@@@Z 
01:0008ADEC ?_toPropertyItemList@gdiplusSupport@@SAXPAXPBUpositive@@PAPAU?$__packedList_struct@UpropertyItem@gdiplus@@@@@Z 
01:0008AE2C ?_anonymous$c0$1$tounsignedlist/2nf$gdiplusSupport@1@SAXPAXPAPAUtuple_struct@core@@PAPAXPAI@Z 
01:0008AE90 ?_toUnsignedList@gdiplusSupport@@SAXPAXPBUpositive@@PAPAU?$__packedList_struct@Uunsigned@@@@@Z 
01:0008AED0 ?_anonymous$c0$1$toguidlist/2nf$gdiplusSupport@1@SAXPAXPAPAUtuple_struct@core@@PAPAXPAPAUnativeGuid_struct@3@@Z 
01:0008AF28 ?_toGUIDList@gdiplusSupport@@SAXPAXPBUpositive@@PAPAU?$__packedList_struct@UnativeGuid@@@@@Z 
01:0008AF68 ?_anonymous$c0$1$tobytelist/2nf$gdiplusSupport@1@SAXPAXPAPAUtuple_struct@core@@PAPAXPAH@Z 
01:0008AFCC ?_toByteList@gdiplusSupport@@SAXPAXPBUpositive@@PAPAU?$__packedList_struct@Uinteger@@@@@Z 
01:0008B00C ?_anonymous$c0$1$torectilist/2nf$gdiplusSupport@1@SAXPAXPAPAUtuple_struct@core@@PAPAXPAPAUrectI_struct@gdiplus@@@Z 
01:0008B118 ?_toRectIList@gdiplusSupport@@SAXPAXPBUpositive@@PAPAU?$__packedList_struct@UrectI@@@@@Z 
01:0008B158 ?_anonymous$c0$1$torectflist/2nf$gdiplusSupport@1@SAXPAXPAPAUtuple_struct@core@@PAPAXPAPAUrectF_struct@gdiplus@@@Z 
01:0008B264 ?_toRectFList@gdiplusSupport@@SAXPAXPBUpositive@@PAPAU?$__packedList_struct@UrectF@@@@@Z 
01:0008B2A4 ?_toPointFList@gdiplusSupport@@SAXPAXPBUpositive@@PAPAU?$__packedList_struct@UpointF@@@@@Z 
01:0008B384 ?checkStatus_explicit@gdiplusSupport@@SAXPAUprogramPoint_struct@core@@PBUgpStatus@gdiplus_native@@@Z 
01:0008B64C ?_tryGetStatusMessage@gdiplusSupport@@SAXPBUgpStatus@gdiplus_native@@PAPB_W@Z 
--- From 'Obj\imagelist.0B04176D.obj'
01:0008B848 ?_startup@gdiplus@@SAXPAI@Z 
--- From 'Obj\gdiplus.D367CAF6.obj'
01:0008B88C ?_startup@gdiplus@@SAXPAUgdiplusStartupInput_struct@gdiplus_native@@PAI@Z 
01:0008B8B4 ?_startup@gdiplus@@SAXPAUgdiplusStartupInput_struct@gdiplus_native@@PAPAUgdiplusStartupOutput_struct@3@PAI@Z  (Idle)
01:0008B900 ?shutdown@gdiplus@@SAXI@Z 
01:0008B910 ?anonymous$c0$1$mkrunnable/1nf$gdiplus@1@SAXPAUanonymous$c0$1$mkrunnable/1nf$gdiplusc_struct@1@@Z 
01:0008B9A0 ?_mkRunnable@gdiplus@@SAXXPAX@Z  (Idle)
01:0008B9D4 ?getImageDecodersSize@gdiplus@@SAXAAUpositive@@AAUbyteCount@@@Z  (Idle)
01:0008BA34 ?_anonymous$c0$1$imagedecoders/0nf$gdiplus@1@SAXPAXPAPAUtuple_struct@core@@PAPAXPAPAUimageCodecInfo_struct@1@@Z 
01:0008BB48 ?imageDecoders@gdiplus@@SGPAU?$__packedList_struct@UimageCodecInfo@@@@XZ  (Idle)
01:0008BBD0 ?getImageEncodersSize@gdiplus@@SAXAAUpositive@@AAUbyteCount@@@Z  (Idle)
01:0008BC30 ?_anonymous$c0$1$imageencoders/0nf$gdiplus@1@SAXPAXPAPAUtuple_struct@core@@PAPAXPAPAUimageCodecInfo_struct@1@@Z 
01:0008BD44 ?imageEncoders@gdiplus@@SGPAU?$__packedList_struct@UimageCodecInfo@@@@XZ  (Idle)
01:0008BDCC ?_nullToEmptyString@gdiplus@@SAXPB_WPAPB_W@Z 
01:0008BE10 ?objectTypeIsValid@gdiplus@@SAXH@Z  (Idle)
01:0008BE30 ?_pointR@gdiplus@@SAXPANPANPAPAUpointF_struct@1@@Z  (Idle)
01:0008BE98 ?_sizeR@gdiplus@@SAXPANPANPAPAUsizeF_struct@1@@Z  (Idle)
01:0008BF00 ?_rectR@gdiplus@@SAXPANPANPANPANPAPAUrectF_struct@1@@Z  (Idle)
01:0008BFAC ?_rectF@gdiplus@@SAXPAUpointF_struct@1@PAUsizeF_struct@1@PAPAUrectF_struct@1@@Z  (Idle)
01:0008C000 ?newNative@fontFamily@@SAXQAV1@@PBUgpFontFamily@gdiplus_native@@@Z  (Idle)
01:0008C014 ?create@fontFamily@@SAXQAV1@@@Z  (Idle)
01:0008C024 ?createFromName@fontFamily@@SAXQAV1@@PB_W@Z  (Idle)
01:0008C058 ?createFromName@fontFamily@@SAXQAV1@@PB_WQAVfontCollection@@@@Z  (Idle)
01:0008C09C ?finalize@fontFamily@@SGXQAV1@@@Z 
01:0008C0FC ?_clone@fontFamily@@SAXQAV1@@PAPAV1@@@Z 
01:0008C138 ?_getFamilyName@fontFamily@@SAXQAV1@@PBUlangid@gui_native@@PAPB_W@Z 
01:0008C17C ?isAvailable@fontFamily@@SAXQAV1@@@Z 
01:0008C1C8 ?isStyleAvailable@fontFamily@@SAXQAV1@@H@Z 
01:0008C20C ?_getEmHeight@fontFamily@@SAXQAV1@@HPAH@Z 
01:0008C250 ?_getCellAscent@fontFamily@@SAXQAV1@@HPAH@Z 
01:0008C294 ?_getCellDescent@fontFamily@@SAXQAV1@@HPAH@Z 
01:0008C2D8 ?_getLineSpacing@fontFamily@@SAXQAV1@@HPAH@Z 
01:0008C31C ?genericSansSerif@fontFamily@@SGQAV1@@XZ  (Idle)
01:0008C38C ?genericSerif@fontFamily@@SGQAV1@@XZ  (Idle)
01:0008C3FC ?genericMonospace@fontFamily@@SGQAV1@@XZ  (Idle)
01:0008C46C ?_newNative@fontFamily@@SAXPBUgpFontFamily@gdiplus_native@@PAPAV1@@@Z 
01:0008C494 ?_create@fontFamily@@SAXPAPAV1@@@Z  (Idle)
01:0008C4BC ?_createFromName@fontFamily@@SAXPB_WPAPAV1@@@Z  (Idle)
01:0008C4E4 ?_createFromName@fontFamily@@SAXPB_WQAVfontCollection@@@PAPAV1@@@Z  (Idle)
01:0008C510 ?nativeFontFamily@fontFamily@@SGPBUgpFontFamily@gdiplus_native@@QAV1@@@Z 
01:0008C51C ?newNative@fontCollection@@SAXQAV1@@PBUgpFontCollection@gdiplus_native@@@Z 
01:0008C530 ?create@fontCollection@@SAXQAV1@@@Z  (Idle)
01:0008C540 ?_anonymous$o0$1$families/0nf$fontCollection@1@SAXPAXPAPAUtuple_struct@core@@PAPAXPAPAVfontFamily@@@@Z 
01:0008C5A4 $families$fontCollection_implement$predicate$(i)$c$ 
01:0008C674 ?_newNative@fontCollection@@SAXPBUgpFontCollection@gdiplus_native@@PAPAV1@@@Z  (Idle)
01:0008C69C ?_create@fontCollection@@SAXPAPAV1@@@Z  (Idle)
01:0008C6C4 ?nativeFontCollection@fontCollection@@SGPBUgpFontCollection@gdiplus_native@@QAV1@@@Z 
01:0008C6D0 ?newNative@font@@SAXQAV1@@PBUgpFont@gdiplus_native@@@Z  (Idle)
01:0008C6E4 ?createFromHDC@font@@SAXQAV1@@PBUhDC@gui_native@@@Z  (Idle)
01:0008C718 ?createFromLogFont@font@@SAXQAV1@@PBUhDC@gui_native@@PAUlogfont_struct@4@@Z  (Idle)
01:0008C750 ?createFromFontFamily@font@@SAXQAV1@@QAVfontFamily@@@PANHPBUgpUnit@gdiplus_native@@@Z  (Idle)
01:0008C7C0 ?finalize@font@@SGXQAV1@@@Z 
01:0008C820 ?_clone@font@@SAXQAV1@@PAPAV1@@@Z 
01:0008C85C ?_getLogFont@font@@SAXQAV1@@QAVgraphics@@@PAPAUlogfont_struct@gui_native@@@Z 
01:0008C8B4 ?_getHeight@font@@SAXQAV1@@QAVgraphics@@@PAPAN@Z 
01:0008C930 ?_getHeightGivenDPI@font@@SAXQAV1@@PANPAPAN@Z 
01:0008C9C4 ?style@font@@SGHQAV1@@@Z 
01:0008CA00 ?_size@font@@SAXQAV1@@PAPAN@Z 
01:0008CA6C ?unit@font@@SGHQAV1@@@Z 
01:0008CAA8 ?fontfamily@font@@SGQAVfontFamily@@@QAV1@@@Z 
01:0008CAF8 ?_newNative@font@@SAXPBUgpFont@gdiplus_native@@PAPAV1@@@Z 
01:0008CB20 ?_createFromHDC@font@@SAXPBUhDC@gui_native@@PAPAV1@@@Z  (Idle)
01:0008CB48 ?_createFromLogFont@font@@SAXPBUhDC@gui_native@@PAUlogfont_struct@3@PAPAV1@@@Z  (Idle)
01:0008CB74 ?_createFromFontFamily@font@@SAXQAVfontFamily@@@PANHPBUgpUnit@gdiplus_native@@PAPAV1@@@Z  (Idle)
01:0008CBA8 ?nativeFont@font@@SGXQAV1@@PBUgpFont@gdiplus_native@@@Z 
01:0008CBB8 ?nativeFont@font@@SGPBUgpFont@gdiplus_native@@QAV1@@@Z 
01:0008CBC4 ?newNative@customLineCap@@SAXQAV1@@PBUgpCustomLineCap@gdiplus_native@@@Z 
01:0008CBD8 ?createFillPath@customLineCap@@SAXQAV1@@QAVgraphicsPath@@@PBUgpLineCap@gdiplus_native@@PAN@Z  (Idle)
01:0008CC44 ?createStrokePath@customLineCap@@SAXQAV1@@QAVgraphicsPath@@@PBUgpLineCap@gdiplus_native@@PAN@Z  (Idle)
01:0008CCB4 ?create@customLineCap@@SAXQAV1@@@Z  (Idle)
01:0008CCC4 ?_clone@customLineCap@@SAXQAV1@@PAPAV1@@@Z 
01:0008CD00 ?finalize@customLineCap@@SGXQAV1@@@Z 
01:0008CD60 ?setStrokeCaps@customLineCap@@SAXQAV1@@PBUgpLineCap@gdiplus_native@@1@Z 
01:0008CD94 ?getStrokeCaps@customLineCap@@SAXQAV1@@AAUgpLineCap@gdiplus_native@@1@Z 
01:0008CDC8 ?strokeJoin@customLineCap@@SGPBUgpLineJoin@gdiplus_native@@QAV1@@@Z 
01:0008CE04 ?strokeJoin@customLineCap@@SGXQAV1@@PBUgpLineJoin@gdiplus_native@@@Z 
01:0008CE3C ?baseCap@customLineCap@@SGPBUgpLineCap@gdiplus_native@@QAV1@@@Z 
01:0008CE78 ?baseCap@customLineCap@@SGXQAV1@@PBUgpLineCap@gdiplus_native@@@Z 
01:0008CEB0 ?_baseInset@customLineCap@@SAXQAV1@@PAPAN@Z 
01:0008CF1C ?baseInset@customLineCap@@SAXQAV1@@PAN@Z 
01:0008CF70 ?_widthScale@customLineCap@@SAXQAV1@@PAPAN@Z 
01:0008CFDC ?widthScale@customLineCap@@SAXQAV1@@PAN@Z 
01:0008D030 ?_create@customLineCap@@SAXPAPAV1@@@Z  (Idle)
01:0008D058 ?_newNative@customLineCap@@SAXPBUgpCustomLineCap@gdiplus_native@@PAPAV1@@@Z 
01:0008D080 ?_createFillPath@customLineCap@@SAXQAVgraphicsPath@@@PBUgpLineCap@gdiplus_native@@PANPAPAV1@@@Z  (Idle)
01:0008D0B0 ?_createStrokePath@customLineCap@@SAXQAVgraphicsPath@@@PBUgpLineCap@gdiplus_native@@PANPAPAV1@@@Z  (Idle)
01:0008D0E0 ?nativeCustomLineCap@customLineCap@@SGXQAV1@@PBUgpCustomLineCap@gdiplus_native@@@Z 
01:0008D0F0 ?nativeCustomLineCap@customLineCap@@SGPBUgpCustomLineCap@gdiplus_native@@QAV1@@@Z 
01:0008D0FC ?newNative@color@@SAXQAV1@@I@Z  (Idle)
01:0008D110 ?create@color@@SAXQAV1@@@Z  (Idle)
01:0008D124 ?create@color@@SAXQAV1@@I@Z  (Idle)
01:0008D128 ?create@color@@SAXQAV1@@PBUunsigned8@@11@Z  (Idle)
01:0008D158 ?create@color@@SAXQAV1@@PBUunsigned8@@111@Z 
01:0008D18C ?createFromVpiColor@color@@SAXQAV1@@PBU1vpiDomains@@@Z  (Idle)
01:0008D25C ?alphaPart@color@@SGPBUunsigned8@@QAV1@@@Z 
01:0008D2A8 ?redPart@color@@SGPBUunsigned8@@QAV1@@@Z 
01:0008D2F4 ?greenPart@color@@SGPBUunsigned8@@QAV1@@@Z 
01:0008D340 ?bluePart@color@@SGPBUunsigned8@@QAV1@@@Z 
01:0008D38C ?vpiColor@color@@SGPBU1vpiDomains@@QAV1@@@Z 
01:0008D3FC ?_makeARGB@color@@SAXPBUunsigned8@@000PAI@Z 
01:0008D48C ?_newNative@color@@SAXIPAPAV1@@@Z 
01:0008D4B4 ?_create@color@@SAXPAPAV1@@@Z  (Idle)
--- From 'Obj\imagelist.0B04176D.obj'
01:0008D4DC ?_create@color@@SAXIPAPAV1@@@Z 
--- From 'Obj\gdiplus.D367CAF6.obj'
01:0008D504 ?_create@color@@SAXPBUunsigned8@@00PAPAV1@@@Z  (Idle)
--- From 'Obj\imagelist.0B04176D.obj'
01:0008D538 ?_create@color@@SAXPBUunsigned8@@000PAPAV1@@@Z 
--- From 'Obj\gdiplus.D367CAF6.obj'
01:0008D570 ?_createFromVpiColor@color@@SAXPBU1vpiDomains@@PAPAV1@@@Z  (Idle)
01:0008D598 ?nativeColor@color@@SGXQAV1@@I@Z 
01:0008D5A8 ?nativeColor@color@@SGIQAV1@@@Z 
01:0008D5B4 ?create@cachedBitmap@@SAXQAV1@@QAVbitmap@@@QAVgraphics@@@@Z  (Idle)
01:0008D608 ?finalize@cachedBitmap@@SGXQAV1@@@Z 
01:0008D668 ?_create@cachedBitmap@@SAXQAVbitmap@@@QAVgraphics@@@PAPAV1@@@Z  (Idle)
01:0008D694 ?nativeCachedBitmap@cachedBitmap@@SGXQAV1@@PBUgpCachedBitmap@gdiplus_native@@@Z 
01:0008D6A4 ?nativeCachedBitmap@cachedBitmap@@SGPBUgpCachedBitmap@gdiplus_native@@QAV1@@@Z 
01:0008D6B0 ?newNative@brush@@SAXQAV1@@PBUgpBrush@gdiplus_native@@@Z 
01:0008D6C4 ?_clone@brush@@SAXQAV1@@PAPAV1@@@Z 
01:0008D85C ?finalize@brush@@SGXQAV1@@@Z 
01:0008D8BC ?brushType@brush@@SGPBUgpBrushType@gdiplus_native@@QAV1@@@Z 
01:0008D8F8 ?_newNative@brush@@SAXPBUgpBrush@gdiplus_native@@PAPAV1@@@Z  (Idle)
01:0008D920 ?nativeBrush@brush@@SGXQAV1@@PBUgpBrush@gdiplus_native@@@Z 
01:0008D930 ?nativeBrush@brush@@SGPBUgpBrush@gdiplus_native@@QAV1@@@Z 
01:0008D93C ?newNative@bitmap@@SAXQAV1@@PBUgpBitmap@gdiplus_native@@@Z  (Idle)
01:0008D958 ?createFromFile@bitmap@@SAXQAV1@@PB_WPAUboolean_struct@_builtIn@@@Z  (Idle)
01:0008D974 ?createFromFile@bitmap@@SAXQAV1@@PB_W@Z 
01:0008DA1C ?createFromFileICM@bitmap@@SAXQAV1@@PB_W@Z 
01:0008DA54 ?createFromBitmapInfo@bitmap@@SAXQAV1@@PBUbitmapInfo@@PAX@Z  (Idle)
01:0008DA8C ?createFromHBitmap@bitmap@@SAXQAV1@@PBUhBitmap@gui_native@@PBUhPalette@4@@Z  (Idle)
01:0008DAC4 ?createFromHIcon@bitmap@@SAXQAV1@@PBUhIcon@gui_native@@@Z  (Idle)
01:0008DC68 ?getTempBitmap@bitmap@@SAXPBUhIcon@gui_native@@PAPAV1@@PAPAUbitmapData_struct@gdiplus@@@Z 
01:0008DD54 ?hasAlphaChannel@bitmap@@SAXPAUbitmapData_struct@gdiplus@@@Z 
01:0008DE10 ?createFromResource@bitmap@@SAXQAV1@@PBUhModule@@PB_W@Z  (Idle)
01:0008DE48 ?createFromStream@bitmap@@SAXQAV1@@QAViStream_native@@@PAUboolean_struct@_builtIn@@@Z  (Idle)
01:0008DE64 ?createFromStream@bitmap@@SAXQAV1@@QAViStream_native@@@@Z 
01:0008DE9C ?createFromStreamICM@bitmap@@SAXQAV1@@QAViStream_native@@@@Z 
01:0008DED4 ?createFromScan@bitmap@@SAXQAV1@@HHHPBUpixelFormat@gdiplus_native@@PAX@Z  (Idle)
01:0008DF18 ?create@bitmap@@SAXQAV1@@HHPBUpixelFormat@gdiplus_native@@@Z 
01:0008DF34 ?createFromGraphics@bitmap@@SAXQAV1@@HHQAVgraphics@@@@Z  (Idle)
01:0008DF7C ?createFromDirectDrawSurface@bitmap@@SAXQAV1@@QAViUnknown@@@@Z  (Idle)
01:0008DFB4 ?createFromBinary@bitmap@@SAXQAV1@@QAE@Z  (Idle)
01:0008DFEC ?createFromBuffer@bitmap@@SAXQAV1@@PAXPBUbyteCount@@@Z  (Idle)
01:0008E028 ?createFromResID@bitmap@@SAXQAV1@@PBUhModule@@IPBUpositive@@3@Z  (Idle)
01:0008E078 ?createFromHandle@bitmap@@SAXQAV1@@PBUhandle@@I@Z 
01:0008E098 ?_loadImageHandle@bitmap@@SAXPBUhModule@@IPBUpositive@@2PAPAUtuple_struct@core@@AAUhandle@@PAI@Z 
01:0008E15C ?_clone@bitmap@@SAXQAVimage@@@PAPAV2@@@Z 
01:0008E1B4 ?_cloneRectI@bitmap@@SAXQAV1@@PAUrectI_struct@gdiplus@@PBUpixelFormat@gdiplus_native@@PAPAV1@@@Z 
01:0008E21C ?_cloneRectF@bitmap@@SAXQAV1@@PAUrectF_struct@gdiplus@@PBUpixelFormat@gdiplus_native@@PAPAV1@@@Z 
01:0008E2A0 ?_cloneI@bitmap@@SAXQAV1@@HHHHPBUpixelFormat@gdiplus_native@@PAPAV1@@@Z 
01:0008E2E4 ?_cloneF@bitmap@@SAXQAV1@@PANPANPANPANPBUpixelFormat@gdiplus_native@@PAPAV1@@@Z 
01:0008E3A0 ?_fromBITMAPINFO@bitmap@@SAXQAV1@@PBUbitmapInfo@@PAXPAPAV1@@@Z 
01:0008E3C0 ?_fromFile@bitmap@@SAXQAVimage@@@PB_WPAUboolean_struct@_builtIn@@PAPAV2@@@Z 
01:0008E3F4 ?_fromHBITMAP@bitmap@@SAXQAV1@@PBUhBitmap@gui_native@@PBUhPalette@4@PAPAV1@@@Z 
01:0008E414 ?_fromHICON@bitmap@@SAXQAV1@@PBUhIcon@gui_native@@PAPAV1@@@Z 
01:0008E42C ?_fromResource@bitmap@@SAXQAV1@@PBUhModule@core@@PB_WPAPAV1@@@Z 
01:0008E44C ?_getHBITMAP@bitmap@@SAXQAV1@@QAVcolor@@@AAUhBitmap@gui_native@@@Z 
01:0008E48C ?_getHICON@bitmap@@SAXQAV1@@AAUhIcon@gui_native@@@Z 
01:0008E4BC ?_getPixel@bitmap@@SAXQAV1@@HHPAPAVcolor@@@@Z 
01:0008E504 ?setPixel@bitmap@@SAXQAV1@@HHQAVcolor@@@@Z 
01:0008E544 ?lockBits@bitmap@@SAXQAV1@@PAUrect_struct@gdiplus_native@@IPBUpixelFormat@4@PAUbitmapData_struct@gdiplus@@@Z 
01:0008E57C ?setResolution@bitmap@@SAXQAV1@@PANPAN@Z 
01:0008E5F8 ?unlockBits@bitmap@@SAXQAV1@@PAUbitmapData_struct@gdiplus@@@Z 
01:0008E628 ?_newNative@bitmap@@SAXPBUgpBitmap@gdiplus_native@@PAPAV1@@@Z 
--- From 'Obj\imagelist.0B04176D.obj'
01:0008E650 ?_create@bitmap@@SAXHHPBUpixelFormat@gdiplus_native@@PAPAV1@@@Z 
--- From 'Obj\gdiplus.D367CAF6.obj'
01:0008E680 ?_createFromScan@bitmap@@SAXHHHPBUpixelFormat@gdiplus_native@@PAXPAPAV1@@@Z  (Idle)
01:0008E6B4 ?_createFromGraphics@bitmap@@SAXHHQAVgraphics@@@PAPAV1@@@Z  (Idle)
01:0008E6E4 ?_createFromBitmapInfo@bitmap@@SAXPBUbitmapInfo@@PAXPAPAV1@@@Z 
--- From 'Obj\imagelist.0B04176D.obj'
01:0008E710 ?_createFromHBitmap@bitmap@@SAXPBUhBitmap@gui_native@@PBUhPalette@3@PAPAV1@@@Z 
--- From 'Obj\gdiplus.D367CAF6.obj'
01:0008E73C ?_createFromFile@bitmap@@SAXPB_WPAUboolean_struct@_builtIn@@PAPAV1@@@Z 
--- From 'Obj\imagelist.0B04176D.obj'
01:0008E768 ?_createFromFile@bitmap@@SAXPB_WPAPAV1@@@Z 
--- From 'Obj\gdiplus.D367CAF6.obj'
01:0008E790 ?_createFromFileICM@bitmap@@SAXPB_WPAPAV1@@@Z  (Idle)
01:0008E7B8 ?_createFromResource@bitmap@@SAXPBUhModule@@PB_WPAPAV1@@@Z 
01:0008E7E4 ?_createFromHIcon@bitmap@@SAXPBUhIcon@gui_native@@PAPAV1@@@Z 
01:0008E80C ?_createFromStream@bitmap@@SAXQAViStream_native@@@PAUboolean_struct@_builtIn@@PAPAV1@@@Z  (Idle)
01:0008E838 ?_createFromStream@bitmap@@SAXQAViStream_native@@@PAPAV1@@@Z  (Idle)
01:0008E860 ?_createFromStreamICM@bitmap@@SAXQAViStream_native@@@PAPAV1@@@Z  (Idle)
01:0008E888 ?_createFromDirectDrawSurface@bitmap@@SAXQAViUnknown@@@PAPAV1@@@Z  (Idle)
01:0008E8B0 ?_createFromBinary@bitmap@@SAXQAEPAPAV1@@@Z  (Idle)
01:0008E8D8 ?_createFromBuffer@bitmap@@SAXPAXPBUbyteCount@@PAPAV1@@@Z  (Idle)
--- From 'Obj\imagelist.0B04176D.obj'
01:0008E904 ?_createFromResID@bitmap@@SAXPBUhModule@@IPBUpositive@@2PAPAV1@@@Z 
--- From 'Obj\gdiplus.D367CAF6.obj'
01:0008E938 ?_createFromHandle@bitmap@@SAXPBUhandle@@IPAPAV1@@@Z  (Idle)
01:0008E964 ?nativeBitmap@bitmap@@SGXQAV1@@PBUgpBitmap@gdiplus_native@@@Z 
01:0008E974 ?nativeBitmap@bitmap@@SGPBUgpBitmap@gdiplus_native@@QAV1@@@Z 
01:0008E980 ?newNative@adjustableArrowCap@@SAXQAV1@@PBUgpAdjustableArrowCap@gdiplus_native@@@Z  (Idle)
01:0008E9A4 ?create@adjustableArrowCap@@SAXQAV1@@PANPANPAUboolean_struct@_builtIn@@@Z  (Idle)
01:0008EA38 ?_height@adjustableArrowCap@@SAXQAV1@@PAPAN@Z 
01:0008EAA4 ?height@adjustableArrowCap@@SAXQAV1@@PAN@Z 
01:0008EAF8 ?_width@adjustableArrowCap@@SAXQAV1@@PAPAN@Z 
01:0008EB64 ?width@adjustableArrowCap@@SAXQAV1@@PAN@Z 
01:0008EBB8 ?_middleInset@adjustableArrowCap@@SAXQAV1@@PAPAN@Z 
01:0008EC24 ?middleInset@adjustableArrowCap@@SAXQAV1@@PAN@Z 
01:0008EC78 ?fillState@adjustableArrowCap@@SGPAUboolean_struct@_builtIn@@QAV1@@@Z 
01:0008ECC8 ?fillState@adjustableArrowCap@@SGXQAV1@@PAUboolean_struct@_builtIn@@@Z 
01:0008ED14 ?isFilled@adjustableArrowCap@@SAXQAV1@@@Z 
01:0008ED30 ?_newNative@adjustableArrowCap@@SAXPBUgpAdjustableArrowCap@gdiplus_native@@PAPAV1@@@Z  (Idle)
01:0008ED58 ?_create@adjustableArrowCap@@SAXPANPANPAUboolean_struct@_builtIn@@PAPAV1@@@Z  (Idle)
01:0008EDE0 textureBrush?_initObject@@@QAGXQAV1@H@Z 
01:0008EE0C ?@create_object@textureBrush@@SGQAV1@@XZ 
01:0008EE28 textureBrush?_InternalFinalizer@@@QAGXQAV1@@Z 
01:0008EE40 stringFormat?_initObject@@@QAGXQAV1@H@Z 
01:0008EE54 ?@create_object@stringFormat@@SGQAV1@@XZ 
01:0008EE70 stringFormat?_InternalFinalizer@@@QAGXQAV1@@Z 
01:0008EF10 solidBrush?_initObject@@@QAGXQAV1@H@Z 
01:0008EF3C ?@create_object@solidBrush@@SGQAV1@@XZ 
01:0008EF58 solidBrush?_InternalFinalizer@@@QAGXQAV1@@Z 
01:0008EF70 region?_initObject@@@QAGXQAV1@H@Z 
01:0008EF84 ?@create_object@region@@SGQAV1@@XZ 
01:0008EFA0 region?_InternalFinalizer@@@QAGXQAV1@@Z 
01:0008F020 privateFontCollection?_initObject@@@QAGXQAV1@H@Z 
01:0008F04C ?@create_object@privateFontCollection@@SGQAV1@@XZ 
01:0008F068 privateFontCollection?_InternalFinalizer@@@QAGXQAV1@@Z 
01:0008F080 pen?_initObject@@@QAGXQAV1@H@Z 
01:0008F094 ?@create_object@pen@@SGQAV1@@XZ 
01:0008F0B0 pen?_InternalFinalizer@@@QAGXQAV1@@Z 
01:0008F150 pathGradientBrush?_initObject@@@QAGXQAV1@H@Z 
01:0008F17C ?@create_object@pathGradientBrush@@SGQAV1@@XZ 
01:0008F198 pathGradientBrush?_InternalFinalizer@@@QAGXQAV1@@Z 
01:0008F450 metafile?_initObject@@@QAGXQAV1@H@Z 
01:0008F47C ?@create_object@metafile@@SGQAV1@@XZ 
01:0008F498 metafile?_InternalFinalizer@@@QAGXQAV1@@Z 
01:0008F4B0 matrix?_initObject@@@QAGXQAV1@H@Z 
01:0008F4C4 ?@create_object@matrix@@SGQAV1@@XZ 
01:0008F4E0 matrix?_InternalFinalizer@@@QAGXQAV1@@Z 
01:0008F580 linearGradientBrush?_initObject@@@QAGXQAV1@H@Z 
01:0008F5AC ?@create_object@linearGradientBrush@@SGQAV1@@XZ 
01:0008F5C8 linearGradientBrush?_InternalFinalizer@@@QAGXQAV1@@Z 
01:0008F610 installedFontCollection?_initObject@@@QAGXQAV1@H@Z 
01:0008F63C ?@create_object@installedFontCollection@@SGQAV1@@XZ 
01:0008F658 installedFontCollection?_InternalFinalizer@@@QAGXQAV1@@Z 
01:0008F670 imageAttributes?_initObject@@@QAGXQAV1@H@Z 
01:0008F684 ?@create_object@imageAttributes@@SGQAV1@@XZ 
01:0008F6A0 imageAttributes?_InternalFinalizer@@@QAGXQAV1@@Z 
01:0008F6F0 image?_initObject@@@QAGXQAV1@H@Z 
01:0008F710 ?@create_object@image@@SGQAV1@@XZ 
01:0008F72C image?_InternalFinalizer@@@QAGXQAV1@@Z 
01:0008F77C icon?_initObject@@@QAGXQAV1@H@Z 
01:0008F790 ?@create_object@icon@@SGQAV1@@XZ 
01:0008F7AC icon?_InternalFinalizer@@@QAGXQAV1@@Z 
01:0008F810 hatchBrush?_initObject@@@QAGXQAV1@H@Z 
01:0008F83C ?@create_object@hatchBrush@@SGQAV1@@XZ 
01:0008F858 hatchBrush?_InternalFinalizer@@@QAGXQAV1@@Z 
01:0008F870 graphicsPathIterator?_initObject@@@QAGXQAV1@H@Z 
01:0008F884 ?@create_object@graphicsPathIterator@@SGQAV1@@XZ 
01:0008F8A0 graphicsPathIterator?_InternalFinalizer@@@QAGXQAV1@@Z 
01:0008F8F0 graphicsPath?_initObject@@@QAGXQAV1@H@Z 
01:0008F904 ?@create_object@graphicsPath@@SGQAV1@@XZ 
01:0008F920 graphicsPath?_InternalFinalizer@@@QAGXQAV1@@Z 
01:0008F970 graphics?_initObject@@@QAGXQAV1@H@Z 
01:0008F984 ?@create_object@graphics@@SGQAV1@@XZ 
01:0008F9A0 graphics?_InternalFinalizer@@@QAGXQAV1@@Z 
01:0008F9F0 fontFamily?_initObject@@@QAGXQAV1@H@Z 
01:0008FA04 ?@create_object@fontFamily@@SGQAV1@@XZ 
01:0008FA20 fontFamily?_InternalFinalizer@@@QAGXQAV1@@Z 
01:0008FA70 fontCollection?_initObject@@@QAGXQAV1@H@Z 
01:0008FA84 ?@create_object@fontCollection@@SGQAV1@@XZ 
01:0008FAA0 fontCollection?_InternalFinalizer@@@QAGXQAV1@@Z 
01:0008FAB4 font?_initObject@@@QAGXQAV1@H@Z 
01:0008FAC8 ?@create_object@font@@SGQAV1@@XZ 
01:0008FAE4 font?_InternalFinalizer@@@QAGXQAV1@@Z 
01:0008FB34 customLineCap?_initObject@@@QAGXQAV1@H@Z 
01:0008FB48 ?@create_object@customLineCap@@SGQAV1@@XZ 
01:0008FB64 customLineCap?_InternalFinalizer@@@QAGXQAV1@@Z 
01:0008FBB4 color?_initObject@@@QAGXQAV1@H@Z 
01:0008FBC8 ?@create_object@color@@SGQAV1@@XZ 
01:0008FBE4 color?_InternalFinalizer@@@QAGXQAV1@@Z 
01:0008FBF8 cachedBitmap?_initObject@@@QAGXQAV1@H@Z 
01:0008FC0C ?@create_object@cachedBitmap@@SGQAV1@@XZ 
01:0008FC28 cachedBitmap?_InternalFinalizer@@@QAGXQAV1@@Z 
01:0008FC78 brush?_initObject@@@QAGXQAV1@H@Z 
01:0008FC8C ?@create_object@brush@@SGQAV1@@XZ 
01:0008FCA8 brush?_InternalFinalizer@@@QAGXQAV1@@Z 
01:0008FF78 bitmap?_initObject@@@QAGXQAV1@H@Z 
01:0008FFA4 ?@create_object@bitmap@@SGQAV1@@XZ 
01:0008FFC0 bitmap?_InternalFinalizer@@@QAGXQAV1@@Z 
01:000900B8 adjustableArrowCap?_initObject@@@QAGXQAV1@H@Z 
01:000900E4 ?@create_object@adjustableArrowCap@@SGQAV1@@XZ 
01:00090100 adjustableArrowCap?_InternalFinalizer@@@QAGXQAV1@@Z 
--- From 'Obj\controlsupport.CD1DE148.obj'
01:00090110 ?raise_controlHasNoContainerException_explicit@guiSupport_exception@@SAXPAUprogramPoint_struct@core@@QAVcontrol@@@@Z 
01:00090194 ?raise_couldNotChangeContainerException_explicit@guiSupport_exception@@SAXPAUprogramPoint_struct@core@@QAVcontrol@@@@Z 
--- From 'Obj\guisupport.243CF570.obj'
01:00090218 ?raise_controlDoesNotBelongToContainerException_explicit@guiSupport_exception@@SAXPAUprogramPoint_struct@core@@QAVcontrol@@@@Z  (Idle)
01:0009029C ?raise_controlAlreadyExistsInContainerException_explicit@guiSupport_exception@@SAXPAUprogramPoint_struct@core@@QAVcontrol@@@@Z  (Idle)
--- From 'Obj\controlsupport.CD1DE148.obj'
01:00090320 ?new@containerWindowSupport@@SAXQAV1@@QAVcontainerWindow@@@@Z 
--- From 'Obj\guisupport.243CF570.obj'
01:000903E4 ?anonymous$o0$1$oncontainershow/2np$containerWindowSupport@1@SAXPAUanonymous$o0$1$oncontainershow/2np$containerWindowSupportc_struct@1@@Z 
01:00090418 ?onContainerShow@containerWindowSupport@@SAXQAV1@@QAVwindow@@@PBUlParam@@@Z 
01:00090534 ?createControls@containerWindowSupport@@SAXQAV1@@@Z 
01:00090614 ?_onControlHandler@containerWindowSupport@@SAXQAV1@@PBUwindowHandle@@PAUevent_struct@vpiDomains@@AAUlResult@@@Z 
01:000906C8 ?_onNativeEvent@containerWindowSupport@@SAXQAV1@@QAVwindow@@@IPBUwParam@@PBUlParam@@PAPAUnativeResponse_struct@3@@Z 
01:000908E4 ?addControl@containerWindowSupport@@SAXQAV1@@QAVcontrol@@@H@Z 
01:0009091C ?_addControl@containerWindowSupport@@SAXQAV1@@QAVcontrol@@@PAH@Z 
01:00090AA8 ?delControl@containerWindowSupport@@SAXQAV1@@QAVcontrol@@@@Z 
01:00090C84 ?delContainerControl@containerWindowSupport@@SAXQAV1@@QAVcontrol@@@@Z 
01:00090DA8 ?_addContainerControl@containerWindowSupport@@SAXQAV1@@QAVcontainerControl@@@PAH@Z 
01:00090DF4 ?_getContainerControl_nd@containerWindowSupport@@SAXQAV1@@PAPAVcontainerControl@@@@Z 
01:00090E40 ?_tryGetControl@containerWindowSupport@@SAXQAV1@@PAPAVcontrol@@@@Z 
01:00090E4C ?setGroupIfFirstControl@containerWindowSupport@@SAXQAV1@@QAVcontrol@@@@Z 
01:00090EA4 ?setGroupIfPreviousIsContainer@containerWindowSupport@@SAXQAV1@@QAVcontrol@@@@Z 
01:00090F00 ?isContainer@containerWindowSupport@@SAXQAVcontrol@@@@Z 
01:00090F5C ?preventRadioButtonBeforeContainer@containerWindowSupport@@SAXQAV1@@QAVcontrol@@@@Z 
01:00090FD8 ?_lookupControl_dt@containerWindowSupport@@SAXQAV1@@HPAPAVcontrol@@@@Z 
01:00091054 ?_lookupNestedControl_dt@containerWindowSupport@@SAXQAV1@@HPAPAVcontrol@@@@Z 
01:000910E8 ?getControl_nd@containerWindowSupport@@SAXQAV1@@PAPAVcontrol@@@PAH@Z 
01:000911B0 ?_getControl_nd@containerWindowSupport@@SAXQAV1@@PAPAVcontrol@@@@Z 
01:000911D4 ?_getNestedControl_nd@containerWindowSupport@@SAXQAV1@@PAPAVcontrol@@@@Z 
01:0009122C ?_getNestedControl_nd@containerWindowSupport@@SAXQAV1@@QAVcontrol@@@PAPAV3@@@Z 
01:000912FC ?_tryGetPreviousControl@containerWindowSupport@@SAXQAV1@@QAVcontrol@@@PAPAV3@@@Z 
01:0009136C ?_tryGetNextControl@containerWindowSupport@@SAXQAV1@@QAVcontrol@@@PAPAV3@@@Z 
01:000913CC ?_getRadioButtonGroup@containerWindowSupport@@SAXQAV1@@PAPAVradioButtonGroup@@@@Z 
01:0009143C ?layoutDockedControls@containerWindowSupport@@SAXQAV1@@@Z 
01:00091458 ?_layoutDockedControls@containerWindowSupport@@SAXQAV1@@PAPAUrct_struct@vpiDomains@@@Z 
01:000915A4 ?anonymous$o0$1$setdocking/0np$containerWindowSupport@1@SAXPAUanonymous$o0$1$setdocking/0np$containerWindowSupportc_struct@1@QAVwindow@@@@Z 
01:000915BC ?setDocking@containerWindowSupport@@SAXQAV1@@@Z 
01:00091640 ?dockControl@containerWindowSupport@@SAXPAUdockStyle_struct@control@@QAV3@@QAVvarM@@@PAUrct_struct@vpiDomains@@@Z 
01:00091A14 ?_new@containerWindowSupport@@SAXQAVcontainerWindow@@@PAPAV1@@@Z  (Idle)
01:00091A3C ?_object_facts_initializer@containerWindowSupport@@SGXQAV1@@@Z 
01:00091A58 $pairMember_dt$containerWindowSupport_implement$predicate$(i,o,i)$c$_m17 
01:00091AC0 $pairMember_dt$containerWindowSupport_implement$predicate$(i,i,o)$c$_m17 
--- From 'Obj\controlsupport.CD1DE148.obj'
01:00091B30 containerWindowSupport?_initObject@@@QAGXQAV1@H@Z 
--- From 'Obj\guisupport.243CF570.obj'
01:00091B50 ?@create_object@containerWindowSupport@@SGQAV1@@XZ 
--- From 'Obj\controlsupport.CD1DE148.obj'
01:00091B6C containerWindowSupport?_InternalFinalizer@@@QAGXQAV1@@Z 
--- From 'Obj\imagelist.0B04176D.obj'
01:00091B80 ?new@imageList@@SAXQAV1@@PBUpositive@@1@Z  (Idle)
01:00091B94 ?new@imageList@@SAXQAV1@@PBUpositive@@1PAUpixelFormat_struct@1@@Z 
01:00091BEC ?load@imageList@@SAXQAV1@@PB_WPAUpixelFormat_struct@1@@Z  (Idle)
01:00091C94 ?save@imageList@@SAXQAV1@@PB_W@Z 
01:00091CE4 ?saveToBinary@imageList@@SAXQAV1@@PBUbyteCount@@QAPAEAAU3@@Z 
01:00091DFC ?width@imageList@@SGPBUpositive@@QAV1@@@Z 
01:00091E60 ?height@imageList@@SGPBUpositive@@QAV1@@@Z 
01:00091EC4 ?count@imageList@@SGPBUpositive@@QAV1@@@Z 
01:00091EF4 ?_getNativePixelFormat@imageList@@SAXPAUpixelformat_struct@1@PAI@Z 
01:00091F48 ?_getGDIpPixelFormat@imageList@@SAXPAUpixelformat_struct@1@PAH@Z  (Idle)
01:00091FA0 ?_tryLookupImage@imageList@@SAXQAV1@@PAUimageDescriptor_struct@1@PAH@Z  (Idle)
01:00092004 ?_tryLookupImageFromFile@imageList@@SAXQAV1@@PB_WPAH@Z 
01:0009202C ?_tryLookupGDIplusBitmap@imageList@@SAXQAV1@@QAVbitmap@@@PAH@Z 
01:00092058 ?_tryLookupResourceFromHInstance@imageList@@SAXQAV1@@PBUhModule@@PBUresId@@PAH@Z 
01:00092090 ?_tryLookupResource@imageList@@SAXQAV1@@PBUresId@@PAH@Z 
01:000920C8 ?_addImageFromfile@imageList@@SAXQAV1@@PB_WPAH@Z 
01:00092174 ?_addGDIplusBitmap@imageList@@SAXQAV1@@QAVbitmap@@@PAH@Z 
01:00092214 ?_addIcon@imageList@@SAXQAV1@@PBUhIcon@gui_native@@PAH@Z 
01:000922E8 ?_addResourceFromHInstance@imageList@@SAXQAV1@@PBUhModule@@PBUresId@@PAH@Z 
01:000923C0 ?_addResource@imageList@@SAXQAV1@@PBUresId@@PAH@Z 
01:000923FC ?_addImage@imageList@@SAXQAV1@@QAVbitmap@@@PAH@Z 
01:00092574 ?replaceImageFromfile@imageList@@SAXQAV1@@HPB_W@Z 
01:00092680 ?replaceGDIplusBitmap@imageList@@SAXQAV1@@HQAVbitmap@@@@Z 
01:00092780 ?replaceResource@imageList@@SAXQAV1@@HPBUresId@@@Z 
01:000927BC ?replaceResourceFromHInstance@imageList@@SAXQAV1@@PBUhModule@@HPBUresId@@@Z 
01:00092918 ?replaceImage@imageList@@SAXQAV1@@HQAVbitmap@@@@Z 
01:00092AAC ?draw@imageList@@SAXQAV1@@QAVwindowGDI@@@HPAUpnt_struct@vpiDomains@@@Z 
01:00092B04 ?drawNativeDC@imageList@@SAXQAV1@@PBUhandle@@HPAUpnt_struct@vpiDomains@@@Z 
01:00092B5C ?dispose@imageList@@SAXQAV1@@@Z 
01:00092B84 ?finalize@imageList@@SGXQAV1@@@Z 
01:00092B9C ?checkBoolResult_explicit@imageList@@SAXPAUprogramPoint_struct@core@@PBUbooleanInt@@@Z 
01:00092BC0 ?_new@imageList@@SAXPBUpositive@@0PAPAV1@@@Z  (Idle)
01:00092BEC ?_new@imageList@@SAXPBUpositive@@0PAUpixelFormat_struct@1@PAPAV1@@@Z  (Idle)
01:00092C1C ?_load@imageList@@SAXPB_WPAUpixelFormat_struct@1@PAPAV1@@@Z  (Idle)
01:00092C48 ?native@imageList@@SGPBUhImageList@gui_0@QAV1@@@Z 
01:00092C54 ?pixelFormat@imageList@@SGPAUpixelFormat_struct@1@QAV1@@@Z 
01:00092C68 imageList?_initObject@@@QAGXQAV1@H@Z 
01:00092C7C ?@create_object@imageList@@SGQAV1@@XZ 
01:00092C98 imageList?_InternalFinalizer@@@QAGXQAV1@@Z 
--- From 'Obj\statusbarcontrol.83EE7AF0.obj'
01:00092CE0 ?anonymous$o0$1$new/0np$statusBarControl@1@SAXPAUanonymous$o0$1$new/0np$statusBarControlc_struct@1@QAVwindow@@@@Z 
01:00092D10 ?anonymous$o0$2$new/0np$statusBarControl@1@SAXPAUanonymous$o0$2$new/0np$statusBarControlc_struct@1@@Z 
01:00092D8C ?new@statusBarControl@@SAXQAV1@@@Z  (Idle)
--- From 'Obj\statusbar.91A8DF89.obj'
01:00092E1C ?new@statusBarControl@@SAXQAV1@@QAVcontainerWindow@@@@Z 
--- From 'Obj\statusbarcontrol.83EE7AF0.obj'
01:00092E38 ?dockStyle@statusBarControl@@SGPAUdockStyle_struct@control@@QAV3@@@Z 
01:00092E50 ?dockStyle@statusBarControl@@SGXQAVcontrol@@@PAUdockStyle_struct@2@@Z 
01:00092EA8 $cells$statusBarControl_implement$predicate$(i,i)$c$ 
01:00092ECC $cells$statusBarControl_implement$predicate$(i)$c$ 
01:00092EE4 ?anonymous$o0$1$updatecells/0np$statusBarControl@1@SAXPAUanonymous$o0$1$updatecells/0np$statusBarControlc_struct@1@@Z 
01:00093094 ?updateCells@statusBarControl@@SAXQAV1@@@Z 
01:000930CC $getWidths$statusBarControl_implement$predicate$(i,i,o)$c$_m3 
01:00093138 ?_new@statusBarControl@@SAXPAPAV1@@@Z  (Idle)
01:00093160 ?_new@statusBarControl@@SAXQAVcontainerWindow@@@PAPAV1@@@Z  (Idle)
01:00093188 ?_object_facts_initializer@statusBarControl@@SGXQAV1@@@Z 
01:000931A0 ?new@statusBarCell@@SAXQAV1@@QAVstatusBarControl@@@PBUpositive@@@Z  (Idle)
01:000931B8 ?anonymous$o0$1$text/1np$statusBarCell@1@SAXPAUanonymous$o0$1$text/1np$statusBarCellc_struct@1@@Z 
01:00093278 ?text@statusBarCell@@SGXQAV1@@PB_W@Z 
01:000932D8 ?text@statusBarCell@@SGPB_WQAV1@@@Z 
01:00093414 ?control@statusBarCell@@SGXQAV1@@PAUoptional_struct@core@@QAV0@@@Z 
01:00093584 ?control@statusBarCell@@SGPAUoptional_struct@core@@QAV0@@QAV1@@@Z 
01:0009359C ?_getRectangle@statusBarCell@@SAXQAV1@@PAPAUrct_struct@vpiDomains@@@Z 
01:00093668 ?_new@statusBarCell@@SAXQAVstatusBarControl@@@PBUpositive@@PAPAV1@@@Z 
01:00093694 ?_object_facts_initializer@statusBarCell@@SGXQAV1@@@Z 
01:000936AC ?width@statusBarCell@@SGPBUpositive@@QAV1@@@Z 
--- From 'Obj\statusbar.91A8DF89.obj'
01:00096CE0 statusBarControl?_initObject@@@QAGXQAV1@H@Z 
--- From 'Obj\statusbarcontrol.83EE7AF0.obj'
01:00096D28 ?@create_object@statusBarControl@@SGQAV1@@XZ 
--- From 'Obj\statusbar.91A8DF89.obj'
01:00096D44 statusBarControl?_InternalFinalizer@@@QAGXQAV1@@Z 
--- From 'Obj\statusbarcontrol.83EE7AF0.obj'
01:00096D64 statusBarCell?_initObject@@@QAGXQAV1@H@Z 
01:00096D88 ?@create_object@statusBarCell@@SGQAV1@@XZ 
01:00096DA4 statusBarCell?_InternalFinalizer@@@QAGXQAV1@@Z 
--- From 'Obj\tooltip.C2C27652.obj'
01:00096DB0 ?new@trackingTooltip@@SAXQAV1@@@Z  (Idle)
01:00096DC8 ?endAllTrackingTooltips@trackingTooltip@@SAXXZ  (Idle)
01:00096DD0 ?_new@trackingTooltip@@SAXPAPAV1@@@Z  (Idle)
01:00096DF4 ?new@controlTooltip@@SAXQAV1@@@Z  (Idle)
--- From 'Obj\controlsupport.CD1DE148.obj'
01:00096E0C ?default@controlTooltip@@SGQAV1@@XZ 
--- From 'Obj\tooltip.C2C27652.obj'
01:00096E80 ?_new@controlTooltip@@SAXPAPAV1@@@Z 
01:00096EA8 ?new@areaTooltip@@SAXQAV1@@QAVcontrol@@@X@Z  (Idle)
01:00096FBC ?anonymous$o0$1$new/2np$areaTooltip@1@SAXPAUanonymous$o0$1$new/2np$areaTooltipc_struct@1@QAVwindow@@@@Z 
01:00096FD4 ?onMouseEnter@areaTooltip@@SAXQAV1@@QAVwindow@@@PAUpnt_struct@vpiDomains@@PBUwParam@@@Z 
01:00097028 ?onMouseLeave@areaTooltip@@SAXQAV1@@QAVwindow@@@@Z 
01:000970C4 ?_anonymous$o0$1$onmousehover/3np$areaTooltip@1@SAXPAUanonymous$o0$1$onmousehover/3np$areaTooltipc_struct@1@PAPB_W@Z 
01:000970D8 ?onMouseHover@areaTooltip@@SAXQAV1@@QAVwindow@@@PAUpnt_struct@vpiDomains@@PBUwparam@@@Z 
01:00097370 ?_displacePnt@areaTooltip@@SAXPAUpnt_struct@vpiDomains@@HHPAPAU23@@Z 
01:000973B8 ?_distance@areaTooltip@@SAXPAUpnt_struct@vpiDomains@@0AAUpositive@@@Z  (Idle)
01:00097420 ?pntInside@areaTooltip@@SAXPAUpnt_struct@vpiDomains@@PAUrct_struct@3@@Z  (Idle)
01:00097480 ?killTooltip@areaTooltip@@SAXQAV1@@@Z 
01:000974A0 ?_msgCtlHandler@areaTooltip@@SAXQAV1@@QAVwindow@@@IPBUwParam@@PBUlParam@@PAPAUnativeResponse_struct@3@@Z 
01:0009770C ?disable@areaTooltip@@SAXQAV1@@@Z 
01:00097788 ?enable@areaTooltip@@SAXQAV1@@@Z 
01:0009779C ?_new@areaTooltip@@SAXQAVcontrol@@@XPAPAV1@@@Z  (Idle)
01:000977C8 ?_object_facts_initializer@areaTooltip@@SGXQAV1@@@Z 
01:00097A78 trackingTooltip?_initObject@@@QAGXQAV1@H@Z 
01:00097A9C ?@create_object@trackingTooltip@@SGQAV1@@XZ 
01:00097AB8 trackingTooltip?_InternalFinalizer@@@QAGXQAV1@@Z 
01:00097D60 controlTooltip?_initObject@@@QAGXQAV1@H@Z 
01:00097D84 ?@create_object@controlTooltip@@SGQAV1@@XZ 
01:00097DA0 controlTooltip?_InternalFinalizer@@@QAGXQAV1@@Z 
01:00098098 areaTooltip?_initObject@@@QAGXQAV1@H@Z 
01:000980CC ?@create_object@areaTooltip@@SGQAV1@@XZ 
01:000980E8 areaTooltip?_InternalFinalizer@@@QAGXQAV1@@Z 
--- From 'Obj\statusbar.91A8DF89.obj'
01:00098100 ?anonymous$o0$1$newapplicationwindow/0np$statusBar@1@SAXPAUanonymous$o0$1$newapplicationwindow/0np$statusBarc_struct@1@QAVwindow@@@@Z 
01:00098138 ?anonymous$o0$2$newapplicationwindow/0np$statusBar@1@SAXPAUanonymous$o0$2$newapplicationwindow/0np$statusBarc_struct@1@QAVwindow@@@@Z 
01:0009816C ?newApplicationWindow@statusBar@@SAXQAV1@@@Z  (Idle)
01:000982A4 ?setDialogSize@statusBar@@SAXQAV1@@QAVapplicationWindow@@@QAVdialog@@@@Z 
01:00098320 ?_newApplicationWindow@statusBar@@SAXPAPAV1@@@Z 
01:0009A310 statusBar?_initObject@@@QAGXQAV1@H@Z 
01:0009A340 ?@create_object@statusBar@@SGQAV1@@XZ 
01:0009A35C statusBar?_InternalFinalizer@@@QAGXQAV1@@Z 
--- From 'Obj\tooltipsupport.97F99340.obj'
01:0009A370 ?tooltipHwnd@tooltipSupport@@SGPBUhwnd@@QAV1@@@Z 
01:0009A3EC ?_createTipWindow@tooltipSupport@@SAXQAV1@@AAUhwnd@@@Z 
01:0009A540 ?subclassWndProcStatic@tooltipSupport@@SGPBUlResult@@PBUhwnd@@IPBUwParam@@PBUlParam@@@Z 
01:0009A5E8 ?subclassWndProc@tooltipSupport@@SGPBUlResult@@QAV1@@PBUhwnd@@IPBUwParam@@PBUlParam@@@Z 
01:0009AB58 ?style@tooltipSupport@@SGXQAV1@@PAUstyle_struct@toolTip@@@Z 
01:0009ACA8 ?_getIconCode@tooltipSupport@@SAXPAUicon_struct@toolTip@@AAUwParam@@@Z 
01:0009AD8C ?multiLine@tooltipSupport@@SGXQAV1@@PAUboolean_struct@_builtIn@@@Z 
01:0009ADD4 ?maxWidth@tooltipSupport@@SGXQAV1@@PAUoptional_struct@core@@H@Z 
01:0009AE28 ?initialTime@tooltipSupport@@SGXQAV1@@H@Z 
01:0009AE7C ?initialTime@tooltipSupport@@SGHQAV1@@@Z 
01:0009AED4 ?reshowTime@tooltipSupport@@SGXQAV1@@H@Z 
01:0009AF28 ?reshowTime@tooltipSupport@@SGHQAV1@@@Z 
01:0009AF80 ?popTime@tooltipSupport@@SGXQAV1@@H@Z 
01:0009AFD4 ?popTime@tooltipSupport@@SGHQAV1@@@Z 
01:0009B02C ?_renderControlTip@tooltipSupport@@SAXQAV1@@QAVcontrol@@@PAPB_W@Z 
01:0009B0E4 ?_renderTipText@tooltipSupport@@SAXPAUtipText_struct@toolTip@@PAPB_W@Z 
01:0009B154 ?addControl@tooltipSupport@@SAXQAV1@@QAVcontrol@@@@Z 
01:0009B168 ?addControl@tooltipSupport@@SAXQAV1@@QAVcontrol@@@PAUtipText_struct@toolTip@@@Z 
01:0009B190 ?anonymous$o0$1$addcontrol_inner/2np$tooltipSupport@1@SAXPAUanonymous$o0$1$addcontrol_inner/2np$tooltipSupportc_struct@1@QAVwindow@@@@Z 
01:0009B244 ?addControl_inner@tooltipSupport@@SAXQAV1@@QAVcontrol@@@PAUoptional_struct@core@@PAUtipText_struct@toolTip@@@Z 
01:0009B4D4 ?removeControl@tooltipSupport@@SAXQAV1@@QAVcontrol@@@@Z 
01:0009B670 ?anonymous$o0$1$updatecontroltip/2np$tooltipSupport@1@SAXPAUanonymous$o0$1$updatecontroltip/2np$tooltipSupportc_struct@1@@Z 
01:0009B708 ?updateControlTip@tooltipSupport@@SAXQAV1@@QAVcontrol@@@PAUboolean_struct@_builtIn@@@Z 
01:0009B9AC ?beginTrackingTooltip@tooltipSupport@@SAXQAV1@@PAUpnt_struct@vpiDomains@@PAUtipText_struct@toolTip@@@Z 
01:0009BA04 ?updateTrackingPosition@tooltipSupport@@SAXQAV1@@PAUpnt_struct@vpiDomains@@@Z 
01:0009BB74 ?endTrackingTooltip@tooltipSupport@@SAXQAV1@@@Z 
01:0009BC44 ?isTracking@tooltipSupport@@SAXQAV1@@@Z 
01:0009BC5C ?endAllTrackingTooltips@tooltipSupport@@SAXXZ 
01:0009BCD0 ?dispose@tooltipSupport@@SAXQAV1@@@Z 
01:0009BD14 ?new@tooltipSupport@@SAXQAV1@@@Z 
01:0009BD1C ?_new@tooltipSupport@@SAXPAPAV1@@@Z  (Idle)
01:0009BD40 ?_object_facts_initializer@tooltipSupport@@SGXQAV1@@@Z 
01:0009BDF0 tooltipSupport?_initObject@@@QAGXQAV1@H@Z 
01:0009BE1C ?@create_object@tooltipSupport@@SGQAV1@@XZ 
01:0009BE38 tooltipSupport?_InternalFinalizer@@@QAGXQAV1@@Z 
--- From 'Obj\redblacktree.61DB29D3.obj'
01:0009BE50 ?_anonymous$c0$1$empty/0$redBlackTree@1@SAXPAUanonymous$c0$1$empty/0$redBlackTreec_struct@1@PAXPAXPAPAUcompareResult_struct@_builtIn@@@Z 
01:0009BE68 ?_empty@redBlackTree@@SAXQAVrTypeLibrary@TypeLibraries@RunTime@VIP@@0PAPAUtree_struct@1@PAPAXPAPAX@Z  (Idle)
01:0009BEDC ?_anonymous$c0$1$emptyUnique/0$redBlackTree@1@SAXPAUanonymous$c0$1$emptyUnique/0$redBlackTreec_struct@1@PAXPAXPAPAUcompareResult_struct@_builtIn@@@Z 
--- From 'Obj\mapm_redblack.B30CE1C9.obj'
01:0009BEF4 ?_emptyUnique@redBlackTree@@SAXQAVrTypeLibrary@TypeLibraries@RunTime@VIP@@0PAPAUtree_struct@1@PAPAXPAPAX@Z 
--- From 'Obj\redblacktree.61DB29D3.obj'
01:0009BF68 ?_emptyCustom@redBlackTree@@SAXQAVrTypeLibrary@TypeLibraries@RunTime@VIP@@0XPAPAUtree_struct@1@PAPAXPAPAX@Z  (Idle)
--- From 'Obj\mapm_redblack.B30CE1C9.obj'
01:0009BFB4 ?_emptyCustomUnique@redBlackTree@@SAXQAVrTypeLibrary@TypeLibraries@RunTime@VIP@@0XPAPAUtree_struct@1@PAPAXPAPAX@Z 
01:0009C000 ?_emptySameKind@redBlackTree@@SAXQAVrTypeLibrary@TypeLibraries@RunTime@VIP@@0PAUtree_struct@1@PAXPAXPAPAU21@PAPAXPAPAX@Z 
--- From 'Obj\redblacktree.61DB29D3.obj'
01:0009C038 ?isEmpty@redBlackTree@@SAXQAVrTypeLibrary@TypeLibraries@RunTime@VIP@@0PAUtree_struct@1@PAXPAX@Z  (Idle)
--- From 'Obj\mapm_redblack.B30CE1C9.obj'
01:0009C058 ?_insert@redBlackTree@@SAXQAVrTypeLibrary@TypeLibraries@RunTime@VIP@@0PAUtree_struct@1@PAXPAXPAXPAXPAPAU21@PAPAXPAPAX@Z 
--- From 'Obj\redblacktree.61DB29D3.obj'
01:0009C0C0 ?_delete@redBlackTree@@SAXQAVrTypeLibrary@TypeLibraries@RunTime@VIP@@0PAUtree_struct@1@PAXPAXPAXPAXPAPAU21@PAPAXPAPAX@Z  (Idle)
--- From 'Obj\mapm_redblack.B30CE1C9.obj'
01:0009C128 ?_tryDeleteOne@redBlackTree@@SAXQAVrTypeLibrary@TypeLibraries@RunTime@VIP@@0PAUtree_struct@1@PAXPAXPAXPAPAXPAPAU21@PAPAXPAPAX@Z 
--- From 'Obj\redblacktree.61DB29D3.obj'
01:0009C190 ?_tryDeleteFirst@redBlackTree@@SAXQAVrTypeLibrary@TypeLibraries@RunTime@VIP@@0PAUtree_struct@1@PAXPAXPAPAX3PAPAU21@PAPAXPAPAX@Z  (Idle)
01:0009C1DC ?_lookUp_nd@redBlackTree@@SAXQAVrTypeLibrary@TypeLibraries@RunTime@VIP@@0PAUtree_struct@1@PAXPAXPAXPAPAX@Z  (Idle)
--- From 'Obj\mapm_redblack.B30CE1C9.obj'
01:0009C218 ?_tryLookUp@redBlackTree@@SAXQAVrTypeLibrary@TypeLibraries@RunTime@VIP@@0PAUtree_struct@1@PAXPAXPAXPAPAX@Z 
01:0009C240 ?_getAll_nd@redBlackTree@@SAXQAVrTypeLibrary@TypeLibraries@RunTime@VIP@@0PAUtree_struct@1@PAXPAXPAPAUtuple_struct@core@@PAPAXPAPAX@Z 
01:0009C294 ?_upFrom_nd@redBlackTree@@SAXQAVrTypeLibrary@TypeLibraries@RunTime@VIP@@0PAUtree_struct@1@PAXPAXPAXPAPAUtuple_struct@core@@PAPAXPAPAX@Z 
01:0009C2D0 ?_downFrom_nd@redBlackTree@@SAXQAVrTypeLibrary@TypeLibraries@RunTime@VIP@@0PAUtree_struct@1@PAXPAXPAXPAPAUtuple_struct@core@@PAPAXPAPAX@Z 
--- From 'Obj\redblacktree.61DB29D3.obj'
01:0009C30C ?_comp@redBlackTree@@SAXQAVrTypeLibrary@TypeLibraries@RunTime@VIP@@PAUtreeProperty_struct@1@PAXPAXPAXPAPAUcompareResult_struct@_builtIn@@@Z  (Idle)
01:0009C33C ?tryGetNode@redBlackTree@@SAXQAVrTypeLibrary@TypeLibraries@RunTime@VIP@@0PAUtreeRep_struct@1@PAXPAXPAPAU21@PAPAXPAPAXPAPAX43@Z  (Idle)
01:0009C3BC ?_find_nd_rep@redBlackTree@@SAXQAVrTypeLibrary@TypeLibraries@RunTime@VIP@@0PAUtreeProperty_struct@1@PAXPAXPAUtreeRep_struct@1@PAXPAXPAPAX@Z 
01:0009C440 ?_find_nd_rep1@redBlackTree@@SAXQAVrTypeLibrary@TypeLibraries@RunTime@VIP@@0PAUtreeProperty_struct@1@PAXPAUcompareResult_struct@_builtIn@@PAXPAUtreeRep_struct@1@PAXPAXPAX5PAPAX@Z 
01:0009C524 ?get_nd_rep@redBlackTree@@SAXQAVrTypeLibrary@TypeLibraries@RunTime@VIP@@0PAUtreeRep_struct@1@PAXPAXPAPAX3@Z 
01:0009C5D4 ?_upFrom_nd_rep@redBlackTree@@SAXQAVrTypeLibrary@TypeLibraries@RunTime@VIP@@0PAUtreeProperty_struct@1@PAXPAXPAUtreeRep_struct@1@PAXPAXPAPAUtuple_struct@core@@PAPAXPAPAX@Z 
01:0009C668 ?_upFrom_nd_rep1@redBlackTree@@SAXQAVrTypeLibrary@TypeLibraries@RunTime@VIP@@0PAUtreeProperty_struct@1@PAXPAUcompareResult_struct@_builtIn@@PAXPAUtreeRep_struct@1@PAXPAXPAXPAX5PAPAUtuple_struct@core@@PAPAXPAPAX@Z 
01:0009C738 ?_downFrom_nd_rep@redBlackTree@@SAXQAVrTypeLibrary@TypeLibraries@RunTime@VIP@@0PAUtreeProperty_struct@1@PAXPAXPAUtreeRep_struct@1@PAXPAXPAPAUtuple_struct@core@@PAPAXPAPAX@Z 
01:0009C7CC ?_downFrom_nd_rep1@redBlackTree@@SAXQAVrTypeLibrary@TypeLibraries@RunTime@VIP@@0PAUtreeProperty_struct@1@PAXPAUcompareResult_struct@_builtIn@@PAXPAUtreeRep_struct@1@PAXPAXPAXPAX5PAPAUtuple_struct@core@@PAPAXPAPAX@Z 
01:0009C89C ?_insert_rep@redBlackTree@@SAXQAVrTypeLibrary@TypeLibraries@RunTime@VIP@@0PAUtreeProperty_struct@1@PAXPAXPAXPAUtreeRep_struct@1@PAXPAXPAPAU41@PAPAXPAPAX@Z 
01:0009C8D8 ?_ins@redBlackTree@@SAXQAVrTypeLibrary@TypeLibraries@RunTime@VIP@@0PAUtreeProperty_struct@1@PAXPAXPAXPAUtreeRep_struct@1@PAXPAXPAPAU41@PAPAXPAPAX@Z 
01:0009CA64 ?_ins_black@redBlackTree@@SAXQAVrTypeLibrary@TypeLibraries@RunTime@VIP@@0PAUtreeProperty_struct@1@PAXPAUcompareResult_struct@_builtIn@@PAXPAXPAUtreeRep_struct@1@PAXPAXPAXPAX6PAPAU61@PAPAXPAPAX@Z 
01:0009CBA0 ?_ins_red@redBlackTree@@SAXQAVrTypeLibrary@TypeLibraries@RunTime@VIP@@0PAUtreeProperty_struct@1@PAXPAUcompareResult_struct@_builtIn@@PAXPAXPAUtreeRep_struct@1@PAXPAXPAXPAX6PAPAU61@PAPAXPAPAX@Z 
01:0009CCEC ?_balance@redBlackTree@@SAXQAVrTypeLibrary@TypeLibraries@RunTime@VIP@@0PAUtreeRep_struct@1@PAXPAXPAXPAX2PAPAU21@PAPAXPAPAX@Z 
01:0009D640 ?_makeblack@redBlackTree@@SAXQAVrTypeLibrary@TypeLibraries@RunTime@VIP@@0PAUtreeRep_struct@1@PAXPAXPAPAU21@PAPAXPAPAX@Z 
01:0009D6C0 ?_delete_rep@redBlackTree@@SAXQAVrTypeLibrary@TypeLibraries@RunTime@VIP@@0PAUtreeProperty_struct@1@PAXPAXPAXPAUtreeRep_struct@1@PAXPAXPAPAU41@PAPAXPAPAX@Z 
01:0009D714 ?del@redBlackTree@@SAXQAVrTypeLibrary@TypeLibraries@RunTime@VIP@@0PAUtreeProperty_struct@1@PAXPAXPAXPAUtreeRep_struct@1@PAXPAXPAPAU41@PAPAXPAPAXPAPAUboolean_struct@_builtIn@@@Z 
01:0009D7E8 ?del1@redBlackTree@@SAXQAVrTypeLibrary@TypeLibraries@RunTime@VIP@@0PAUtreeProperty_struct@1@PAXPAUcompareResult_struct@_builtIn@@PAXPAXPAUtreeRep_struct@1@PAXPAXPAXPAX6PAPAU61@PAPAXPAPAXPAPAUboolean_struct@5@@Z 
01:0009D93C ?delLeft@redBlackTree@@SAXQAVrTypeLibrary@TypeLibraries@RunTime@VIP@@0PAUtreeProperty_struct@1@PAXPAXPAXPAUtreeRep_struct@1@PAXPAXPAXPAX5PAPAU41@PAPAXPAPAXPAPAUboolean_struct@_builtIn@@@Z 
01:0009D9EC ?delRight@redBlackTree@@SAXQAVrTypeLibrary@TypeLibraries@RunTime@VIP@@0PAUtreeProperty_struct@1@PAXPAXPAXPAUtreeRep_struct@1@PAXPAXPAXPAX5PAPAU41@PAPAXPAPAXPAPAUboolean_struct@_builtIn@@@Z 
01:0009DAA8 ?_tryDeleteOne_rep@redBlackTree@@SAXQAVrTypeLibrary@TypeLibraries@RunTime@VIP@@0PAUtreeProperty_struct@1@PAXPAXPAUtreeRep_struct@1@PAXPAXPAPAXPAPAU41@PAPAXPAPAX@Z 
01:0009DAE4 ?_tryDel@redBlackTree@@SAXQAVrTypeLibrary@TypeLibraries@RunTime@VIP@@0PAUtreeProperty_struct@1@PAXPAXPAUtreeRep_struct@1@PAXPAXPAPAXPAPAU41@PAPAXPAPAX@Z 
01:0009DB84 ?_tryDel1@redBlackTree@@SAXQAVrTypeLibrary@TypeLibraries@RunTime@VIP@@0PAUtreeProperty_struct@1@PAXPAUcompareResult_struct@_builtIn@@PAXPAUtreeRep_struct@1@PAXPAXPAXPAX5PAPAXPAPAU61@PAPAXPAPAX@Z 
01:0009DC24 ?_tryDelLeft@redBlackTree@@SAXQAVrTypeLibrary@TypeLibraries@RunTime@VIP@@0PAUtreeProperty_struct@1@PAXPAXPAUtreeRep_struct@1@PAXPAXPAXPAX4PAPAXPAPAU41@PAPAXPAPAX@Z 
01:0009DCD8 ?_tryDelRight@redBlackTree@@SAXQAVrTypeLibrary@TypeLibraries@RunTime@VIP@@0PAUtreeProperty_struct@1@PAXPAXPAUtreeRep_struct@1@PAXPAXPAXPAX4PAPAXPAPAU41@PAPAXPAPAX@Z 
01:0009DD98 ?_balLeft@redBlackTree@@SAXQAVrTypeLibrary@TypeLibraries@RunTime@VIP@@0PAUtreeRep_struct@1@PAXPAXPAXPAX2PAPAU21@PAPAXPAPAX@Z 
01:0009E090 ?_balRight@redBlackTree@@SAXQAVrTypeLibrary@TypeLibraries@RunTime@VIP@@0PAUtreeRep_struct@1@PAXPAXPAXPAX2PAPAU21@PAPAXPAPAX@Z 
01:0009E394 ?_sub1@redBlackTree@@SAXQAVrTypeLibrary@TypeLibraries@RunTime@VIP@@0PAUtreeRep_struct@1@PAXPAXPAPAU21@PAPAXPAPAX@Z 
01:0009E424 ?_mkNode@redBlackTree@@SAXQAVrTypeLibrary@TypeLibraries@RunTime@VIP@@0PAUtreeRep_struct@1@PAXPAX2PAPAU21@PAPAXPAPAX@Z 
01:0009E738 ?_mkNodeRR_BC@redBlackTree@@SAXQAVrTypeLibrary@TypeLibraries@RunTime@VIP@@0PAUtreeRep_struct@1@PAXPAXPAXPAX2PAXPAX2PAPAU21@PAPAXPAPAX@Z 
01:0009E854 ?_mkNodeBB_BC@redBlackTree@@SAXQAVrTypeLibrary@TypeLibraries@RunTime@VIP@@0PAUtreeRep_struct@1@PAXPAXPAXPAX2PAXPAX2PAPAU21@PAPAXPAPAX@Z 
--- From 'Obj\mapm_redblack.B30CE1C9.obj'
01:0009E970 ?new@mapMSupport@collectionSupportM@@SAXQAV1@2@PAXPAXQAVrTypeLibrary@TypeLibraries@RunTime@VIP@@1QAVmapMSite@@2@PAXPAX@Z 
--- From 'Obj\mapmsupport.B5C5E982.obj'
01:0009E9C4 ?_get@mapMSupport@collectionSupportM@@SAXQAV1@@PAXPAXPAXPAPAX@Z 
01:0009EA3C ?_get_default@mapMSupport@collectionSupportM@@SAXQAV1@@PAXPAXPAXPAXPAPAX@Z 
01:0009EA80 ?_get_defaultLazy@mapMSupport@collectionSupportM@@SAXQAV1@@PAXPAXPAXXPAPAX@Z 
01:0009EAD8 ?_get_optional@mapMSupport@collectionSupportM@@SAXQAV1@@PAXPAXPAXPAPAUoptional_struct@core@@PAPAX@Z 
01:0009EB38 ?contains@mapMSupport@collectionSupportM@@SAXQAV1@@PAXPAXPAUtuple_struct@core@@PAXPAX@Z 
01:0009EB80 ?_getKey_nd@mapMSupport@collectionSupportM@@SAXQAV1@@PAXPAXPAPAX@Z 
01:0009EBB0 ?_getValue_nd@mapMSupport@collectionSupportM@@SAXQAV1@@PAXPAXPAPAX@Z 
01:0009EBE4 ?keyList@mapMSupport@collectionSupportM@@SGPAU?$__packedList_struct@PAX@@QAV1@@PAXPAX@Z 
01:0009EC48 ?valueList@mapMSupport@collectionSupportM@@SGPAU?$__packedList_struct@PAX@@QAV1@@PAXPAX@Z 
01:0009ECAC ?insert@mapMSupport@collectionSupportM@@SAXQAV1@@PAXPAXPAUtuple_struct@core@@PAXPAX@Z 
01:0009ECE8 ?set_optional@mapMSupport@collectionSupportM@@SAXQAV1@@PAXPAXPAXPAUoptional_struct@core@@PAX@Z 
01:0009ED30 ?remove@mapMSupport@collectionSupportM@@SAXQAV1@@PAXPAXPAUtuple_struct@core@@PAXPAX@Z 
01:0009EDDC ?removeKeyList@mapMSupport@collectionSupportM@@SAXQAV1@@PAXPAXPAU?$__packedList_struct@PAX@@@Z 
01:0009EE24 ?removeKeyCollection@mapMSupport@collectionSupportM@@SAXQAV1@@PAXPAXQAVcollection@@@PAX@Z 
01:0009EE6C ?_new@mapMSupport@collectionSupportM@@SAXQAVrTypeLibrary@TypeLibraries@RunTime@VIP@@0QAVmapMSite@@2@PAXPAXPAPAV1@@PAPAXPAPAX@Z  (Idle)
01:0009EEA8 ?_object_typelib_initializer@mapMSupport@collectionSupportM@@SGXQAV1@2@PAXPAXQAVrTypeLibrary@TypeLibraries@RunTime@VIP@@1@Z 
01:0009EEC4 ?_mk_tl_0_collectionSupportM\collectionMsupport{@Type}$imp$@mapMSupport@collectionSupportM@@SGQAVrTypeLibrary@TypeLibraries@RunTime@VIP@@QAV1@2@PAXPAX@Z 
01:0009EF08 ?_getAll_nd@mapMSupport@collectionSupportM@@SAXQAVcollectionSite@@collectionSupport@@PAXPAPAX@Z 
--- From 'Obj\mapm_redblack.B30CE1C9.obj'
01:0009EFF0 collectionSupportM\mapMSupport{@Key,@Data}?_initObject@@@QAGXQAV1@H@Z 
--- From 'Obj\mapmsupport.B5C5E982.obj'
01:0009F044 ?@create_object@mapMSupport@collectionSupportM@@SGQAV1@2@PAXPAXQAVrTypeLibrary@TypeLibraries@RunTime@VIP@@0@Z 
--- From 'Obj\mapm_redblack.B30CE1C9.obj'
01:0009F06C collectionSupportM\mapMSupport{@Key,@Data}?_InternalFinalizer@@@QAGXQAV1@@Z 
--- From 'Obj\setm_redblack.93FF0DB0.obj'
01:0009F080 ?new@collectionMsupport@collectionSupportM@@SAXQAV1@2@PAXQAVrTypeLibrary@TypeLibraries@RunTime@VIP@@QAVcollectionMsite@@2@PAX@Z 
--- From 'Obj\collectionmsupport.1078EA0D.obj'
01:0009F0B8 ?insertList@collectionMsupport@collectionSupportM@@SAXQAV1@2@PAXPAU?$__packedList_struct@PAX@@@Z 
01:0009F100 ?insertCollection@collectionMsupport@collectionSupportM@@SAXQAV1@2@PAXQAVcollection@@@PAX@Z 
01:0009F148 ?insertEnumerator@collectionMsupport@collectionSupportM@@SAXQAV1@2@PAXX@Z 
01:0009F198 ?removeList@collectionMsupport@collectionSupportM@@SAXQAV1@2@PAXPAU?$__packedList_struct@PAX@@@Z 
01:0009F1E0 ?removeCollection@collectionMsupport@collectionSupportM@@SAXQAV1@2@PAXQAVcollection@@@PAX@Z 
01:0009F228 ?_tryRemoveFirst@collectionMsupport@collectionSupportM@@SAXQAV1@2@PAXPAPAX@Z 
01:0009F25C ?_new@collectionMsupport@collectionSupportM@@SAXQAVrTypeLibrary@TypeLibraries@RunTime@VIP@@QAVcollectionMsite@@2@PAXPAPAV1@2@PAPAX@Z  (Idle)
01:0009F290 ?_object_typelib_initializer@collectionMsupport@collectionSupportM@@SGXQAV1@2@PAXQAVrTypeLibrary@TypeLibraries@RunTime@VIP@@@Z 
--- From 'Obj\setm_redblack.93FF0DB0.obj'
01:0009F300 collectionSupportM\collectionMsupport{@Type}?_initObject@@@QAGXQAV1@H@Z 
--- From 'Obj\collectionmsupport.1078EA0D.obj'
01:0009F340 ?@create_object@collectionMsupport@collectionSupportM@@SGQAV1@2@PAXQAVrTypeLibrary@TypeLibraries@RunTime@VIP@@@Z 
--- From 'Obj\setm_redblack.93FF0DB0.obj'
01:0009F364 collectionSupportM\collectionMsupport{@Type}?_InternalFinalizer@@@QAGXQAV1@@Z 
--- From 'Obj\collectionsupport.FBE6D943.obj'
01:0009F380 ?new@collectionSupport@1@SAXQAV1@1@PAXQAVrTypeLibrary@TypeLibraries@RunTime@VIP@@QAVcollectionSite@@1@PAX@Z 
01:0009F394 ?isEmpty@collectionSupport@1@SAXQAV1@1@PAX@Z 
01:0009F3DC ?_tryGetFirst@collectionSupport@1@SAXQAV1@1@PAXPAPAX@Z 
01:0009F404 ?asList@collectionSupport@1@SGPAU?$__packedList_struct@PAX@@QAV1@1@PAX@Z 
01:0009F470 ?_new@collectionSupport@1@SAXQAVrTypeLibrary@TypeLibraries@RunTime@VIP@@QAVcollectionSite@@1@PAXPAPAV1@1@PAPAX@Z  (Idle)
01:0009F4A4 ?_object_typelib_initializer@collectionSupport@1@SGXQAV1@1@PAXQAVrTypeLibrary@TypeLibraries@RunTime@VIP@@@Z 
01:0009F4C4 collectionSupport\collectionSupport{@Type}?_initObject@@@QAGXQAV1@H@Z 
01:0009F4E8 ?@create_object@collectionSupport@1@SGQAV1@1@PAXQAVrTypeLibrary@TypeLibraries@RunTime@VIP@@@Z 
01:0009F50C collectionSupport\collectionSupport{@Type}?_InternalFinalizer@@@QAGXQAV1@@Z 
--- From 'Obj\redblackset.D207E793.obj'
01:0009F520 ?_anonymous$c0$1$empty/0$redBlackSet@1@SAXPAUanonymous$c0$1$empty/0$redBlackSetc_struct@1@PAXPAXPAPAUcompareResult_struct@_builtIn@@@Z 
--- From 'Obj\setm_redblack.93FF0DB0.obj'
01:0009F538 ?_empty@redBlackSet@@SAXQAVrTypeLibrary@TypeLibraries@RunTime@VIP@@PAPAUset_struct@1@PAPAX@Z 
01:0009F58C ?_emptyCustom@redBlackSet@@SAXQAVrTypeLibrary@TypeLibraries@RunTime@VIP@@XPAPAUset_struct@1@PAPAX@Z 
01:0009F5B8 ?_emptySameKind@redBlackSet@@SAXQAVrTypeLibrary@TypeLibraries@RunTime@VIP@@PAUset_struct@1@PAXPAPAU21@PAPAX@Z 
--- From 'Obj\redblackset.D207E793.obj'
01:0009F5F0 ?isEmpty@redBlackSet@@SAXQAVrTypeLibrary@TypeLibraries@RunTime@VIP@@PAUset_struct@1@PAX@Z  (Idle)
--- From 'Obj\setm_redblack.93FF0DB0.obj'
01:0009F608 ?_insert@redBlackSet@@SAXQAVrTypeLibrary@TypeLibraries@RunTime@VIP@@PAUset_struct@1@PAXPAXPAPAU21@PAPAX@Z 
01:0009F668 ?_delete@redBlackSet@@SAXQAVrTypeLibrary@TypeLibraries@RunTime@VIP@@PAUset_struct@1@PAXPAXPAPAU21@PAPAX@Z 
--- From 'Obj\redblackset.D207E793.obj'
01:0009F6C8 ?_tryDeleteFirst@redBlackSet@@SAXQAVrTypeLibrary@TypeLibraries@RunTime@VIP@@PAUset_struct@1@PAXPAPAXPAPAU21@PAPAX@Z  (Idle)
--- From 'Obj\setm_redblack.93FF0DB0.obj'
01:0009F6F8 ?isMember@redBlackSet@@SAXQAVrTypeLibrary@TypeLibraries@RunTime@VIP@@PAXPAUset_struct@1@PAX@Z 
01:0009F72C ?_getAll_nd@redBlackSet@@SAXQAVrTypeLibrary@TypeLibraries@RunTime@VIP@@PAUset_struct@1@PAXPAPAX@Z 
--- From 'Obj\redblackset.D207E793.obj'
01:0009F744 ?_getAll_multi@redBlackSet@@SAXQAVrTypeLibrary@TypeLibraries@RunTime@VIP@@PAUset_struct@1@PAXPAPAX@Z  (Idle)
--- From 'Obj\setm_redblack.93FF0DB0.obj'
01:0009F75C ?_upFrom_nd@redBlackSet@@SAXQAVrTypeLibrary@TypeLibraries@RunTime@VIP@@PAUset_struct@1@PAXPAXPAPAX@Z 
--- From 'Obj\redblackset.D207E793.obj'
01:0009F798 ?_up_nd@redBlackSet@@SAXQAVrTypeLibrary@TypeLibraries@RunTime@VIP@@PAUset_struct@1@PAXPAPAX@Z  (Idle)
01:0009F7B0 ?_tryGetMin@redBlackSet@@SAXQAVrTypeLibrary@TypeLibraries@RunTime@VIP@@PAUset_struct@1@PAXPAPAX@Z  (Idle)
--- From 'Obj\setm_redblack.93FF0DB0.obj'
01:0009F7D4 ?_downFrom_nd@redBlackSet@@SAXQAVrTypeLibrary@TypeLibraries@RunTime@VIP@@PAUset_struct@1@PAXPAXPAPAX@Z 
--- From 'Obj\redblackset.D207E793.obj'
01:0009F810 ?_down_nd@redBlackSet@@SAXQAVrTypeLibrary@TypeLibraries@RunTime@VIP@@PAUset_struct@1@PAXPAPAX@Z  (Idle)
01:0009F828 ?_tryGetMax@redBlackSet@@SAXQAVrTypeLibrary@TypeLibraries@RunTime@VIP@@PAUset_struct@1@PAXPAPAX@Z  (Idle)
01:0009F84C ?find_nd_rep@redBlackSet@@SAXQAVrTypeLibrary@TypeLibraries@RunTime@VIP@@XPAXPAUsetRep_struct@1@PAX@Z 
01:0009F8BC ?find_nd_rep1@redBlackSet@@SAXQAVrTypeLibrary@TypeLibraries@RunTime@VIP@@XPAUcompareResult_struct@_builtIn@@PAXPAUsetRep_struct@1@PAX4@Z 
01:0009F900 ?_get_nd_rep@redBlackSet@@SAXQAVrTypeLibrary@TypeLibraries@RunTime@VIP@@PAUsetRep_struct@1@PAXPAPAX@Z 
01:0009F990 ?_get_multi_rep@redBlackSet@@SAXQAVrTypeLibrary@TypeLibraries@RunTime@VIP@@PAUsetRep_struct@1@PAXPAPAX@Z 
01:0009FA68 ?_upFrom_nd_rep@redBlackSet@@SAXQAVrTypeLibrary@TypeLibraries@RunTime@VIP@@XPAXPAUsetRep_struct@1@PAXPAPAX@Z 
01:0009FAEC ?_upFrom_nd_rep1@redBlackSet@@SAXQAVrTypeLibrary@TypeLibraries@RunTime@VIP@@XPAUcompareResult_struct@_builtIn@@PAXPAUsetRep_struct@1@PAXPAX4PAPAX@Z 
01:0009FBA0 ?_downFrom_nd_rep@redBlackSet@@SAXQAVrTypeLibrary@TypeLibraries@RunTime@VIP@@XPAXPAUsetRep_struct@1@PAXPAPAX@Z 
01:0009FC24 ?_downFrom_nd_rep1@redBlackSet@@SAXQAVrTypeLibrary@TypeLibraries@RunTime@VIP@@XPAUcompareResult_struct@_builtIn@@PAXPAUsetRep_struct@1@PAXPAX4PAPAX@Z 
01:0009FCD8 ?_down_nd_rep@redBlackSet@@SAXQAVrTypeLibrary@TypeLibraries@RunTime@VIP@@PAUsetRep_struct@1@PAXPAPAX@Z 
01:0009FD68 ?tryGetNode@redBlackSet@@SAXQAVrTypeLibrary@TypeLibraries@RunTime@VIP@@PAUsetRep_struct@1@PAXPAPAU21@PAPAXPAPAX2@Z 
01:0009FDD8 ?_insert_rep@redBlackSet@@SAXQAVrTypeLibrary@TypeLibraries@RunTime@VIP@@XPAXPAUsetRep_struct@1@PAXPAPAU21@PAPAX@Z 
01:0009FE30 ?_tryIns@redBlackSet@@SAXQAVrTypeLibrary@TypeLibraries@RunTime@VIP@@XPAXPAUsetRep_struct@1@PAXPAPAU21@PAPAX@Z 
01:0009FF80 ?_tryIns_black@redBlackSet@@SAXQAVrTypeLibrary@TypeLibraries@RunTime@VIP@@XPAUcompareResult_struct@_builtIn@@PAXPAUsetRep_struct@1@PAXPAX4PAPAU41@PAPAX@Z 
01:000A0014 ?_tryIns_red@redBlackSet@@SAXQAVrTypeLibrary@TypeLibraries@RunTime@VIP@@XPAUcompareResult_struct@_builtIn@@PAXPAUsetRep_struct@1@PAXPAX4PAPAU41@PAPAX@Z 
01:000A00B8 ?_balance@redBlackSet@@SAXQAVrTypeLibrary@TypeLibraries@RunTime@VIP@@PAUsetRep_struct@1@PAXPAX1PAPAU21@PAPAX@Z 
01:000A08EC ?_makeblack@redBlackSet@@SAXQAVrTypeLibrary@TypeLibraries@RunTime@VIP@@PAUsetRep_struct@1@PAXPAPAU21@PAPAX@Z 
01:000A0960 ?_delete_rep@redBlackSet@@SAXQAVrTypeLibrary@TypeLibraries@RunTime@VIP@@XPAXPAUsetRep_struct@1@PAXPAPAU21@PAPAX@Z 
01:000A09B0 ?del@redBlackSet@@SAXQAVrTypeLibrary@TypeLibraries@RunTime@VIP@@XPAXPAUsetRep_struct@1@PAXPAPAU21@PAPAXPAPAUboolean_struct@_builtIn@@@Z 
01:000A0A6C ?del1@redBlackSet@@SAXQAVrTypeLibrary@TypeLibraries@RunTime@VIP@@XPAUcompareResult_struct@_builtIn@@PAXPAUsetRep_struct@1@PAXPAX4PAPAU41@PAPAXPAPAUboolean_struct@3@@Z 
01:000A0B00 ?delLeft@redBlackSet@@SAXQAVrTypeLibrary@TypeLibraries@RunTime@VIP@@XPAXPAUsetRep_struct@1@PAXPAX3PAPAU21@PAPAXPAPAUboolean_struct@_builtIn@@@Z 
01:000A0BA0 ?delRight@redBlackSet@@SAXQAVrTypeLibrary@TypeLibraries@RunTime@VIP@@XPAXPAUsetRep_struct@1@PAXPAX3PAPAU21@PAPAXPAPAUboolean_struct@_builtIn@@@Z 
01:000A0C48 ?_balLeft@redBlackSet@@SAXQAVrTypeLibrary@TypeLibraries@RunTime@VIP@@PAUsetRep_struct@1@PAXPAX1PAPAU21@PAPAX@Z 
01:000A0EFC ?_balRight@redBlackSet@@SAXQAVrTypeLibrary@TypeLibraries@RunTime@VIP@@PAUsetRep_struct@1@PAXPAX1PAPAU21@PAPAX@Z 
01:000A11B4 ?_sub1@redBlackSet@@SAXQAVrTypeLibrary@TypeLibraries@RunTime@VIP@@PAUsetRep_struct@1@PAXPAPAU21@PAPAX@Z 
01:000A123C ?_mkNode@redBlackSet@@SAXQAVrTypeLibrary@TypeLibraries@RunTime@VIP@@PAUsetRep_struct@1@PAX1PAPAU21@PAPAX@Z 
01:000A14EC ?_mkNodeRR_BC@redBlackSet@@SAXQAVrTypeLibrary@TypeLibraries@RunTime@VIP@@PAUsetRep_struct@1@PAXPAX1PAX1PAPAU21@PAPAX@Z 
01:000A15E8 ?_mkNodeBB_BC@redBlackSet@@SAXQAVrTypeLibrary@TypeLibraries@RunTime@VIP@@PAUsetRep_struct@1@PAXPAX1PAX1PAPAU21@PAPAX@Z 
--- From 'Obj\errorpresentationdialog.16250CAB.obj'
01:000A16E0 ?setBatchMode@errorPresentationDialog@@SAXPB_W@Z  (Idle)
01:000A16F0 ?dumpIfBatchMode@errorPresentationDialog@@SAXPB_WPAUoptional_struct@core@@PAUtraceInfo_struct@exception@@@Z  (Idle)
01:000A17AC ?copyErrorReport@errorPresentationDialog@@SAXQAVwindow@@@PAUoptional_struct@core@@PAUtraceInfo_struct@exception@@PB_W2@Z 
01:000A180C ?nullExtraInfoWriter@errorPresentationDialog@@SAXQAVoutputStream@@@@Z 
01:000A1814 ?_formatTraceAndExtra@errorPresentationDialog@@SAXPB_WPAUoptional_struct@core@@PAUtraceInfo_struct@exception@@0PAPB_W@Z 
01:000A18E0 ?extraInfo@errorPresentationDialog@@SGPB_WQAV1@@@Z 
01:000A194C ?displayDefiniteUserError@errorPresentationDialog@@SAXPB_W@Z  (Idle)
01:000A197C ?displayDefiniteUserError@errorPresentationDialog@@SAXQAVwindow@@@PB_W@Z 
01:000A19C8 ?displayUserError@errorPresentationDialog@@SAXPB_WPAUtraceInfo_struct@exception@@@Z  (Idle)
01:000A1A04 ?displayUserError@errorPresentationDialog@@SAXQAVwindow@@@PB_WPAUtraceInfo_struct@exception@@@Z 
01:000A1A58 ?displayInternalError@errorPresentationDialog@@SAXPAUtraceInfo_struct@exception@@@Z  (Idle)
01:000A1A88 ?displayInternalError@errorPresentationDialog@@SAXQAVwindow@@@PAUtraceInfo_struct@exception@@@Z 
01:000A1ADC ?displayError@errorPresentationDialog@@SAXPAUtraceInfo_struct@exception@@@Z  (Idle)
01:000A1B0C ?displayError@errorPresentationDialog@@SAXQAVwindow@@@PAUtraceInfo_struct@exception@@@Z 
01:000A1B58 ?displayFeedback@errorPresentationDialog@@SAXXZ  (Idle)
01:000A1B7C ?displayFeedback@errorPresentationDialog@@SAXQAVwindow@@@@Z 
01:000A1BA4 ?_getPrettyUserMsg@errorPresentationDialog@@SAXPAU?$__packedList_struct@Udescriptor@exception@@@@PAPB_W@Z 
01:000A1C44 ?_getPrettyUserMsg_dt@errorPresentationDialog@@SAXPAUdescriptor_struct@exception@@PAPB_W@Z 
01:000A1C5C ?_getPrettyUserMsgFromNV_dt@errorPresentationDialog@@SAXPAU?$__packedList_struct@UnamedValue@@@@PAPB_W@Z 
01:000A1D18 ?_fillUsrMsgTags@errorPresentationDialog@@SAXPB_WPAU?$__packedList_struct@UnamedValue@@@@PAPB_W@Z 
01:000A1DF0 ?_substituteTag@errorPresentationDialog@@SAXPB_WPAU?$__packedList_struct@UnamedValue@@@@PAPB_W@Z 
01:000A1E3C ?newUserError@errorPresentationDialog@@SAXQAV1@@QAVwindow@@@PB_WPAUtraceInfo_struct@exception@@@Z  (Idle)
01:000A1E7C ?newInternalError@errorPresentationDialog@@SAXQAV1@@QAVwindow@@@PAUtraceInfo_struct@exception@@@Z  (Idle)
01:000A1F08 ?newFeedback@errorPresentationDialog@@SAXQAV1@@QAVwindow@@@@Z  (Idle)
01:000A1F70 ?anonymous$o0$1$commonnew/4np$errorPresentationDialog@1@SAXPAUanonymous$o0$1$commonnew/4np$errorPresentationDialogc_struct@1@@Z 
01:000A1FC8 ?commonNew@errorPresentationDialog@@SAXQAV1@@QAVwindow@@@PBUresid@vpiDomains@@PB_WPAUoptional_struct@core@@PAUtraceInfo_struct@exception@@@Z 
01:000A23A4 ?_onShowDetails@errorPresentationDialog@@SAXQAV1@@QAVbutton@@@PAPAUactionResponse_struct@3@@Z 
01:000A23BC ?_onHideDetails@errorPresentationDialog@@SAXQAV1@@QAVbutton@@@PAPAUactionResponse_struct@3@@Z 
01:000A23D4 ?showDetails@errorPresentationDialog@@SAXQAV1@@@Z 
01:000A2714 ?anonymous$o0$1$hidedetails/0np$errorPresentationDialog@1@SAXPAUanonymous$o0$1$hidedetails/0np$errorPresentationDialogc_struct@1@@Z 
01:000A2808 ?hideDetails@errorPresentationDialog@@SAXQAV1@@@Z 
01:000A28F0 ?makeRoomForDetails@errorPresentationDialog@@SAXQAV1@@H@Z 
01:000A2960 ?present@errorPresentationDialog@@SAXPBUtraceId@exception@@@Z 
01:000A2990 ?present@errorPresentationDialog@@SAXQAVwindow@@@PBUtraceId@@@Z 
01:000A2A64 ?anonymous$c0$1$presentasynchronously/1np$errorPresentationDialog@1@SAXPAUanonymous$c0$1$presentasynchronously/1np$errorPresentationDialogc_struct@1@@Z 
01:000A2A7C ?presentAsynchronously@errorPresentationDialog@@SAXPBUtraceId@exception@@@Z  (Idle)
01:000A2AD8 ?_onReportErrorClick@errorPresentationDialog@@SAXQAV1@@QAVbutton@@@PAPAUactionResponse_struct@3@@Z 
01:000A2AF0 ?reportError@errorPresentationDialog@@SAXQAV1@@@Z 
01:000A2BD0 ?_onDialogClose@errorPresentationDialog@@SAXQAV1@@QAVwindow@@@PAPAUcloseResponse_struct@frameDecoration@@@Z 
01:000A2BFC ?defaultExitProcessDelegate@errorPresentationDialog@@SAXXZ 
01:000A2C00 ?_onCloseAppClick@errorPresentationDialog@@SAXQAV1@@QAVbutton@@@PAPAUactionResponse_struct@3@@Z 
01:000A2CB4 ?onShow@errorPresentationDialog@@SAXQAV1@@QAVwindow@@@PBUlParam@@@Z 
01:000A2CE8 ?_onNative@errorPresentationDialog@@SAXQAV1@@QAVwindow@@@IPBUwParam@@PBUlParam@@PAPAUnativeResponse_struct@3@@Z 
01:000A2DE4 ?generatedInitialize@errorPresentationDialog@@SAXQAV1@@@Z 
01:000A3910 ?_newUserError@errorPresentationDialog@@SAXQAVwindow@@@PB_WPAUtraceInfo_struct@exception@@PAPAV1@@@Z 
01:000A3940 ?_newInternalError@errorPresentationDialog@@SAXQAVwindow@@@PAUtraceInfo_struct@exception@@PAPAV1@@@Z 
01:000A396C ?_newFeedback@errorPresentationDialog@@SAXQAVwindow@@@PAPAV1@@@Z 
01:000A3994 ?title@errorPresentationDialog@@SGXPB_W@Z  (Idle)
01:000A39A0 ?title@errorPresentationDialog@@SGPB_WXZ  (Idle)
01:000A39A8 ?internalErrorMessage@errorPresentationDialog@@SGXPB_W@Z  (Idle)
01:000A39B4 ?internalErrorMessage@errorPresentationDialog@@SGPB_WXZ  (Idle)
01:000A39BC ?commentTextPromt@errorPresentationDialog@@SGXPB_W@Z  (Idle)
01:000A39C8 ?commentTextPromt@errorPresentationDialog@@SGPB_WXZ  (Idle)
01:000A39D0 ?feedbackMessage@errorPresentationDialog@@SGXPB_W@Z  (Idle)
01:000A39DC ?feedbackMessage@errorPresentationDialog@@SGPB_WXZ  (Idle)
01:000A39E4 ?callBackBtnText@errorPresentationDialog@@SGXPB_W@Z  (Idle)
01:000A39F0 ?callBackBtnText@errorPresentationDialog@@SGPB_WXZ  (Idle)
01:000A39F8 ?dontCallBackBtnText@errorPresentationDialog@@SGXPB_W@Z  (Idle)
01:000A3A04 ?dontCallBackBtnText@errorPresentationDialog@@SGPB_WXZ  (Idle)
01:000A3A0C ?showDetailsBtnText@errorPresentationDialog@@SGXPB_W@Z  (Idle)
01:000A3A18 ?showDetailsBtnText@errorPresentationDialog@@SGPB_WXZ  (Idle)
01:000A3A20 ?hideDetailsBtnText@errorPresentationDialog@@SGXPB_W@Z  (Idle)
01:000A3A2C ?hideDetailsBtnText@errorPresentationDialog@@SGPB_WXZ  (Idle)
01:000A3A34 ?closeApplicationBtnText@errorPresentationDialog@@SGXPB_W@Z  (Idle)
01:000A3A40 ?closeApplicationBtnText@errorPresentationDialog@@SGPB_WXZ  (Idle)
01:000A3A48 ?allwaysReportError@errorPresentationDialog@@SGXPAUboolean_struct@_builtIn@@@Z  (Idle)
01:000A3A54 ?allwaysReportError@errorPresentationDialog@@SGPAUboolean_struct@_builtIn@@XZ  (Idle)
01:000A3A5C ?reportErrorDelegate@errorPresentationDialog@@SGXX@Z  (Idle)
01:000A3A68 ?reportErrorDelegate@errorPresentationDialog@@SGXXZ  (Idle)
01:000A3A70 ?exitProcessDelegate@errorPresentationDialog@@SGXX@Z  (Idle)
01:000A3A7C ?exitProcessDelegate@errorPresentationDialog@@SGXXZ  (Idle)
01:000A3A84 ?extraInfoWriter@errorPresentationDialog@@SGXX@Z  (Idle)
01:000A3A90 ?extraInfoWriter@errorPresentationDialog@@SGXXZ  (Idle)
01:000A4D80 errorPresentationDialog?_initObject@@@QAGXQAV1@H@Z 
01:000A4DB8 ?@create_object@errorPresentationDialog@@SGQAV1@@XZ 
01:000A4DD4 errorPresentationDialog?_InternalFinalizer@@@QAGXQAV1@@Z 
--- From 'Obj\messagecontrol.383256BA.obj'
01:000A4DF0 ?new_attachStdio@messageForm@@SAXQAV1@@QAVwindow@@@@Z  (Idle)
01:000A4E34 ?new@messageForm@@SAXQAV1@@QAVwindow@@@@Z 
01:000A4F4C ?_display@messageForm@@SAXQAVwindow@@@PAPAV1@@@Z 
01:000A4F74 ?_display_noStdioAttach@messageForm@@SAXQAVwindow@@@PAPAV1@@@Z  (Idle)
01:000A4F9C ?resizeListener@messageForm@@SAXQAV1@@QAVwindow@@@@Z 
01:000A5024 ?onParentResize@messageForm@@SAXQAV1@@QAVwindow@@@@Z 
01:000A5054 ?doOnParentResize@messageForm@@SAXQAV1@@@Z 
01:000A5190 ?resizeMessageForm@messageForm@@SAXQAV1@@PAUtuple_struct@core@@HH@Z 
01:000A5218 ?_calculateY@messageForm@@SAXPAUverticalSize_struct@1@HPAH@Z 
01:000A52F4 ?anonymous$o0$1$setverticalsize/1np$messageForm@1@SAXPAUanonymous$o0$1$setverticalsize/1np$messageFormc_struct@1@@Z 
01:000A530C ?setVerticalSize@messageForm@@SAXQAV1@@PAUverticalSize_struct@1@@Z 
01:000A534C ?_getVerticalSize@messageForm@@SAXQAV1@@PAPAUverticalSize_struct@1@@Z 
01:000A5360 ?onDestroy@messageForm@@SAXQAV1@@QAVwindow@@@@Z 
01:000A5418 ?_getOutputStream@messageForm@@SAXQAV1@@PAPAVoutputStream@@@@Z 
01:000A5448 ?_getMessageControl@messageForm@@SAXQAV1@@PAPAVmessageControl@@@@Z 
01:000A546C ?sciLexer@messageForm@@SGQAV0@@QAV1@@@Z 
01:000A54A0 ?_new@messageForm@@SAXQAVwindow@@@PAPAV1@@@Z 
01:000A54C8 ?_new_attachStdio@messageForm@@SAXQAVwindow@@@PAPAV1@@@Z 
01:000A54F0 ?_object_facts_initializer@messageForm@@SGXQAV1@@@Z 
01:000A5508 ?new@messageControlOutputStreamSupport@@SAXQAV1@@QAVwindow@@@QAVoutputStream@@@@Z  (Idle)
01:000A5520 ?write@messageControlOutputStreamSupport@@SAXQAVoutputStream@@@@Z 
01:000A5540 ?writeQuoted@messageControlOutputStreamSupport@@SAXQAVoutputStream@@@@Z 
01:000A55A0 ?writeBytes@messageControlOutputStreamSupport@@SAXQAVoutputStream@@@PAXPBUbyteCount@@@Z 
01:000A5604 ?writef@messageControlOutputStreamSupport@@SAXQAVoutputStream@@@PB_W@Z 
01:000A5628 ?nl@messageControlOutputStreamSupport@@SAXQAVoutputStream@@@@Z 
01:000A5640 ?anonymous$o0$1$save/1np$messageControlOutputStreamSupport@1@SAXPAUanonymous$o0$1$save/1np$messageControlOutputStreamSupportc_struct@1@@Z 
01:000A5670 ?save@messageControlOutputStreamSupport@@SAXQAVoutputStream@@@PBUfactDB@@@Z 
01:000A56C8 ?anonymous$o0$1$postwrite/1np$messageControlOutputStreamSupport@1@SAXPAUanonymous$o0$1$postwrite/1np$messageControlOutputStreamSupportc_struct@1@@Z 
01:000A570C ?postWrite@messageControlOutputStreamSupport@@SAXQAV1@@PB_W@Z 
01:000A5764 ?anonymous$o0$1$flush/0np$messageControlOutputStreamSupport@1@SAXPAUanonymous$o0$1$flush/0np$messageControlOutputStreamSupportc_struct@1@@Z 
01:000A5784 ?flush@messageControlOutputStreamSupport@@SAXQAVoutputStream@@@@Z 
01:000A57DC ?_new@messageControlOutputStreamSupport@@SAXQAVwindow@@@QAVoutputStream@@@PAPAV3@@@Z  (Idle)
01:000A5808 ?getPosition@messageControlOutputStreamSupport@@SGPBUfileSize@fileSystem_api@@QAVstream@@@@Z 
01:000A5834 ?setPosition@messageControlOutputStreamSupport@@SGXQAVstream@@@PBUfileSize@fileSystem_api@@@Z 
01:000A585C ?getCRLFconversion@messageControlOutputStreamSupport@@SGPAUboolean_struct@_builtIn@@QAVstream@@@@Z 
01:000A5880 ?setCRLFconversion@messageControlOutputStreamSupport@@SGXQAVstream@@@PAUboolean_struct@_builtIn@@@Z 
01:000A58A4 ?close@messageControlOutputStreamSupport@@SGXQAVstream@@@@Z 
01:000A58C4 ?setMode@messageControlOutputStreamSupport@@SGXQAVstream@@@PAUmode_struct@2@@Z 
01:000A58E8 ?getMode@messageControlOutputStreamSupport@@SGPAUmode_struct@stream@@QAV3@@@Z 
01:000A590C ?allowNullPointers@messageControlOutputStreamSupport@@SGXQAVstream@@@PAUboolean_struct@_builtIn@@@Z 
01:000A5930 ?allowNullPointers@messageControlOutputStreamSupport@@SGPAUboolean_struct@_builtIn@@QAVstream@@@@Z 
01:000A5954 ?new@messageControl@@SAXQAV1@@QAVcontainerWindow@@@@Z  (Idle)
01:000A5970 ?new@messageControl@@SAXQAV1@@@Z 
01:000A5B10 ?init@messageControl@@SAXQAV1@@@Z 
01:000A5BC0 ?setReadonly@messageControl@@SAXQAV1@@PAUboolean_struct@_builtIn@@@Z 
01:000A5BD4 ?_getOutputStream@messageControl@@SAXQAV1@@PAPAVoutputStream@@@@Z 
01:000A5BF8 ?setLines@messageControl@@SAXQAV1@@PBUpositive@@@Z 
01:000A5C0C ?getBuffer@messageControl@@SGXQAVbufferSupport@@@PAPAXAAUbyteCount@@@Z 
01:000A5C64 ?getBufferLocked@messageControl@@SGXQAVbufferSupport@@@PAPAXAAUbyteCount@@@Z 
01:000A5C80 ?bufferFullCallBack@messageControl@@SAXQAV1@@PBUbyteCount@@@Z 
01:000A5D90 ?writeZero@messageControl@@SAXPAXPBUbyteCount@@@Z 
01:000A5DCC ?trimLineCount@messageControl@@SAXQAV1@@@Z 
01:000A5E78 ?_onControlNative@messageControl@@SAXQAV1@@QAVwindow@@@IPBUwParam@@PBUlParam@@PAPAUnativeResponse_struct@3@@Z 
01:000A60B8 ?_onContextMenu@messageControl@@SAXQAV1@@QAVwindow@@@PAUcontextMenuInput_struct@3@PAPAUcontextMenuResponse_struct@3@@Z 
01:000A6280 ?onMenu@messageControl@@SAXQAV1@@QAVwindow@@@PBUmenuTag@@@Z 
01:000A62E0 ?clearAll@messageControl@@SAXQAV1@@@Z 
01:000A6318 ?sciLexer@messageControl@@SGQAV0@@QAV1@@@Z 
01:000A6330 ?_new@messageControl@@SAXQAVcontainerWindow@@@PAPAV1@@@Z 
01:000A6358 ?_new@messageControl@@SAXPAPAV1@@@Z  (Idle)
01:000A6380 ?_object_facts_initializer@messageControl@@SGXQAV1@@@Z 
01:000A63DC ?allowedClear@messageControl@@SGXQAV1@@PAUboolean_struct@_builtIn@@@Z 
01:000A63EC ?allowedClear@messageControl@@SGPAUboolean_struct@_builtIn@@QAV1@@@Z 
01:000A63F8 ?outputStream@messageControl@@SGXQAV1@@QAV0@@@Z 
01:000A6408 ?outputStream@messageControl@@SGQAV0@@QAV1@@@Z 
01:000A6424 ?allowNullPointersBufferSupport@messageControl@@SGPAUboolean_struct@_builtIn@@QAVbufferSupport@@@@Z 
01:000A86F0 messageForm?_initObject@@@QAGXQAV1@H@Z 
01:000A8734 ?@create_object@messageForm@@SGQAV1@@XZ 
01:000A8750 messageForm?_InternalFinalizer@@@QAGXQAV1@@Z 
01:000A8768 messageControlOutputStreamSupport?_initObject@@@QAGXQAV1@H@Z 
01:000A877C ?@create_object@messageControlOutputStreamSupport@@SGQAV1@@XZ 
01:000A8798 messageControlOutputStreamSupport?_InternalFinalizer@@@QAGXQAV1@@Z 
01:000AFE6C messageControl?_initObject@@@QAGXQAV1@H@Z 
01:000AFEA4 ?@create_object@messageControl@@SGQAV1@@XZ 
01:000AFEC0 messageControl?_InternalFinalizer@@@QAGXQAV1@@Z 
--- From 'Obj\scilexer.AFB548FB.obj'
01:000AFED0 ?new@sciLexer@@SAXQAV1@@@Z 
01:000AFF20 ?new@sciLexer@@SAXQAV1@@QAVcontainerWindow@@@@Z  (Idle)
01:000AFF38 ?show@sciLexer@@SAXQAVwindow@@@@Z 
01:000B0324 ?setFont@sciLexer@@SAXQAVwindow@@@PBUfont@vpiDomains@@@Z 
01:000B0510 ?usePopup@sciLexer@@SGXQAVsciLexerBase@@@PAUboolean_struct@_builtIn@@@Z 
01:000B0568 ?_onContextMenu@sciLexer@@SAXQAV1@@QAVwindow@@@PAUcontextMenuInput_struct@3@PAPAUcontextMenuResponse_struct@3@@Z 
01:000B0810 ?tryOnContextMenuItem@sciLexer@@SAXQAV1@@PBUmenuTag@@@Z  (Idle)
01:000B0878 ?anonymous$o0$1$onnative/4nf$sciLexer@1@SAXPAUanonymous$o0$1$onnative/4nf$sciLexerc_struct@1@@Z 
01:000B08C0 ?_onNative@sciLexer@@SAXQAV1@@QAVwindow@@@IPBUwParam@@PBUlParam@@PAPAUnativeResponse_struct@3@@Z 
01:000B0C68 ?_getKeyModifier@sciLexer@@SAXAAUkeyModifier@vpiDomains@@@Z 
01:000B0CDC ?_getKeyModifier2@sciLexer@@SAXHPBUkeyModifier@vpiDomains@@AAU23@@Z 
01:000B0D40 ?_tryGetKeydownAction@sciLexer@@SAXQAV1@@PBUkeyModifier@vpiDomains@@HPAX@Z 
01:000B0EC4 ?tab_vip@sciLexer@@SAXQAVsciLexerBase@@@@Z 
01:000B0ED8 ?backTab_vip@sciLexer@@SAXQAVsciLexerBase@@@@Z 
01:000B0EEC ?changeIndent@sciLexer@@SAXQAV1@@PAUboolean_struct@_builtIn@@@Z 
01:000B1134 ?changeIndentLine@sciLexer@@SAXQAV1@@PBUlineNumber@@H@Z 
01:000B11EC ?indentStep@sciLexer@@SGHQAVsciLexerBase@@@@Z 
01:000B1224 ?_getInVisitOrder_nd@sciLexer@@SAXPAPAV1@@@Z 
01:000B1270 ?_tryGetEditor@sciLexer@@SAXPAPAV1@@@Z 
01:000B129C ?onCharLF@sciLexer@@SAXQAV1@@@Z  (Idle)
01:000B133C ?onCharAdded@sciLexer@@SAXQAV1@@QAVsciLexerBase@@@H@Z 
01:000B1358 ?extraLineSeparation@sciLexer@@SGHQAVsciLexerBase@@@@Z 
01:000B1388 ?extraLineSeparation@sciLexer@@SGXQAVsciLexerBase@@@H@Z 
01:000B13BC ?highlightSelectedWords@sciLexer@@SGHQAVsciLexerBase@@@@Z 
01:000B13D4 ?highlightSelectedWords@sciLexer@@SGXQAVsciLexerBase@@@H@Z 
01:000B14A8 ?onUpdateUI_highlightSelectedWords@sciLexer@@SAXQAV1@@QAVsciLexerBase@@@I@Z 
01:000B1578 ?_isWordSelected@sciLexer@@SAXQAV1@@PAPB_W@Z 
01:000B1614 ?highlightSelectedWords@sciLexer@@SAXQAV1@@PBUsci_style@@PB_W@Z 
01:000B1664 ?highlightSelectedWords2@sciLexer@@SAXQAV1@@PBUsci_style@@PB_WHH@Z 
01:000B1780 ?setDefaultLexerStyle@sciLexer@@SAXQAVsciLexerBase@@@@Z 
01:000B17AC ?lexerDefault_visualProlog@sciLexer@@SAXQAVsciLexerBase@@@@Z 
01:000B17D8 ?lexerDefault_vipGrammar@sciLexer@@SAXQAVsciLexerBase@@@@Z 
01:000B1804 ?lexerDefault_cpp@sciLexer@@SAXQAVsciLexerBase@@@@Z 
01:000B1830 ?lexerDefault_html@sciLexer@@SAXQAVsciLexerBase@@@@Z 
01:000B185C ?lexerDefault_xml@sciLexer@@SAXQAVsciLexerBase@@@@Z 
01:000B1888 ?setDefaultLexerStyle_postAction@sciLexer@@SAXQAV1@@@Z 
01:000B1970 ?lexerDefault_visualProlog_postAction@sciLexer@@SAXQAV1@@@Z 
01:000B19DC ?lexerDefault_vipGrammar_postAction@sciLexer@@SAXQAV1@@@Z 
01:000B1A48 ?lexerDefault_visualProlog_style@sciLexer@@SAXQAV1@@@Z 
01:000B1C44 ?lexerDefault_cpp_postAction@sciLexer@@SAXQAV1@@@Z 
01:000B1E2C ?styleSetFore_cpp@sciLexer@@SAXQAV1@@PBUsci_style@@H@Z 
01:000B1E78 ?lexerDefault_html_postAction@sciLexer@@SAXQAV1@@@Z 
01:000B2F60 ?lexerDefault_xml_postAction@sciLexer@@SAXQAV1@@@Z 
01:000B3038 ?xmlHtmlDefault@sciLexer@@SAXQAV1@@H@Z 
01:000B32D4 ?lexerDefault_extension@sciLexer@@SAXQAVsciLexerBase@@@PB_W@Z 
01:000B3348 ?extension_lexer@sciLexer@@SAXQAV1@@PAXPAPAU?$__packedList_struct@Ustring@@@@@Z 
01:000B349C ?textUtf8@sciLexer@@SGPADQAVsciLexerBase@@@@Z 
01:000B3500 ?textUtf8@sciLexer@@SGXQAVsciLexerBase@@@PAD@Z 
01:000B3540 ?text@sciLexer@@SGPB_WQAVsciLexerBase@@@@Z 
01:000B3570 ?text@sciLexer@@SGXQAVsciLexerBase@@@PB_W@Z 
01:000B35A0 ?setSavepoint@sciLexer@@SAXQAVsciLexerBase@@@@Z 
01:000B35CC ?_getLine@sciLexer@@SAXQAVsciLexerBase@@@PBUlineNumber@@PAPB_W@Z 
01:000B3690 ?replaceSel@sciLexer@@SAXQAVsciLexerBase@@@PB_W@Z 
01:000B36DC ?readOnly@sciLexer@@SGPAUboolean_struct@_builtIn@@QAVsciLexerBase@@@@Z 
01:000B3734 ?anonymous$o0$1$readonly/1np$sciLexer@1@SAXPAUanonymous$o0$1$readonly/1np$sciLexerc_struct@1@@Z 
01:000B378C ?readOnly@sciLexer@@SGXQAVsciLexerBase@@@PAUboolean_struct@_builtIn@@@Z 
01:000B37DC ?lastPos@sciLexer@@SGPBUbyteCount@@QAVsciLexerBase@@@@Z 
01:000B3830 ?_getTextRange@sciLexer@@SAXQAVsciLexerBase@@@HHPAPB_W@Z 
01:000B3908 ?allocate@sciLexer@@SAXQAVsciLexerBase@@@PBUbyteCount@@@Z 
01:000B3934 ?appendText@sciLexer@@SAXQAVsciLexerBase@@@PB_W@Z 
01:000B3994 ?insertText@sciLexer@@SAXQAVsciLexerBase@@@PB_W@Z 
01:000B39B0 ?insertText@sciLexer@@SAXQAVsciLexerBase@@@HPB_W@Z 
01:000B39FC ?addText@sciLexer@@SAXQAVsciLexerBase@@@PB_W@Z 
01:000B3A5C ?clearAll@sciLexer@@SAXQAVsciLexerBase@@@@Z 
01:000B3A88 ?deleteRange@sciLexer@@SAXQAVsciLexerBase@@@HH@Z 
01:000B3AB4 ?clearDocumentStyle@sciLexer@@SAXQAVsciLexerBase@@@@Z 
01:000B3AE0 ?_tryGetChar8At@sciLexer@@SAXQAVsciLexerBase@@@HAAUchar8@@@Z 
01:000B3B28 ?_tryGetCharAt@sciLexer@@SAXQAVsciLexerBase@@@HPA_W@Z 
01:000B3C54 ?_tryGetStyleAt@sciLexer@@SAXQAVsciLexerBase@@@HAAUsci_style@@@Z 
01:000B3C9C ?styleBits@sciLexer@@SGXQAVsciLexerBase@@@PBUpositive@@@Z 
01:000B3CDC ?styleBits@sciLexer@@SGPBUpositive@@QAVsciLexerBase@@@@Z 
01:000B3D30 ?_tryFindText@sciLexer@@SAXQAVsciLexerBase@@@HPAUsci_characterRange_struct@sciLexer_native@@PB_WPAPAU34@@Z 
01:000B3DE0 ?searchAnchor@sciLexer@@SAXQAVsciLexerBase@@@@Z 
01:000B3E0C ?_trySearchNext@sciLexer@@SAXQAVsciLexerBase@@@HPB_WPAH@Z 
01:000B3E6C ?_trySearchPrev@sciLexer@@SAXQAVsciLexerBase@@@HPB_WPAH@Z 
01:000B3ECC ?targetStart@sciLexer@@SGXQAVsciLexerBase@@@H@Z 
01:000B3F0C ?targetStart@sciLexer@@SGHQAVsciLexerBase@@@@Z 
01:000B3F50 ?targetEnd@sciLexer@@SGXQAVsciLexerBase@@@H@Z 
01:000B3F90 ?targetEnd@sciLexer@@SGHQAVsciLexerBase@@@@Z 
01:000B3FD4 ?targetFromSelection@sciLexer@@SAXQAVsciLexerBase@@@@Z 
01:000B4000 ?searchFlags@sciLexer@@SGXQAVsciLexerBase@@@H@Z 
01:000B4040 ?searchFlags@sciLexer@@SGHQAVsciLexerBase@@@@Z 
01:000B4084 ?_trySearchInTarget@sciLexer@@SAXQAVsciLexerBase@@@PB_WPAH@Z 
01:000B40F0 ?replaceTarget@sciLexer@@SAXQAVsciLexerBase@@@PB_W@Z 
01:000B4110 ?_replaceTarget@sciLexer@@SAXQAVsciLexerBase@@@PB_WPAH@Z 
01:000B416C ?replaceTargetRE@sciLexer@@SAXQAVsciLexerBase@@@PB_W@Z 
01:000B418C ?_replaceTargetRE@sciLexer@@SAXQAVsciLexerBase@@@PB_WPAH@Z 
01:000B41E8 ?_getTag@sciLexer@@SAXQAVsciLexerBase@@@HPAPB_W@Z 
01:000B4298 ?removeTrailingSpaces@sciLexer@@SAXQAVsciLexerBase@@@@Z 
01:000B42F8 ?removeTrailingSpaces2@sciLexer@@SAXQAV1@@@Z 
01:000B436C ?overType@sciLexer@@SGXQAVsciLexerBase@@@PAUboolean_struct@_builtIn@@@Z 
01:000B43C0 ?overType@sciLexer@@SGPAUboolean_struct@_builtIn@@QAVsciLexerBase@@@@Z 
01:000B4418 ?cut@sciLexer@@SAXQAVsciLexerBase@@@@Z 
01:000B4484 ?copy@sciLexer@@SAXQAVsciLexerBase@@@@Z 
01:000B4514 ?_getHTML@sciLexer@@SAXQAV1@@HHPAPB_W@Z 
01:000B4628 ?writeHTML@sciLexer@@SAXQAV1@@QAVoutputStream@@@PBUsci_style@@HH@Z 
01:000B491C ?_mustEncode@sciLexer@@SAX_WPAPB_W@Z 
01:000B49D0 ?paste@sciLexer@@SAXQAVsciLexerBase@@@@Z 
01:000B49FC ?clear@sciLexer@@SAXQAVsciLexerBase@@@@Z 
01:000B4A28 ?canPaste@sciLexer@@SGPAUboolean_struct@_builtIn@@QAVsciLexerBase@@@@Z 
01:000B4A80 ?canCopy@sciLexer@@SGPAUboolean_struct@_builtIn@@QAVsciLexerBase@@@@Z 
01:000B4AC4 ?canCut@sciLexer@@SGPAUboolean_struct@_builtIn@@QAVsciLexerBase@@@@Z 
01:000B4B30 ?copyAllowLine@sciLexer@@SAXQAVsciLexerBase@@@@Z 
01:000B4B5C ?copyRange@sciLexer@@SAXQAVsciLexerBase@@@HH@Z 
01:000B4B88 ?copyText@sciLexer@@SAXQAVsciLexerBase@@@PB_W@Z 
01:000B4BE8 ?pasteConvertEndings@sciLexer@@SGPAUboolean_struct@_builtIn@@QAVsciLexerBase@@@@Z 
01:000B4C40 ?pasteConvertEndings@sciLexer@@SGXQAVsciLexerBase@@@PAUboolean_struct@_builtIn@@@Z 
01:000B4C94 ?status@sciLexer@@SGHQAVsciLexerBase@@@@Z 
01:000B4CD8 ?status@sciLexer@@SGXQAVsciLexerBase@@@H@Z 
01:000B4D18 ?undo@sciLexer@@SAXQAVsciLexerBase@@@@Z 
01:000B4D44 ?redo@sciLexer@@SAXQAVsciLexerBase@@@@Z 
01:000B4D70 ?canUndo@sciLexer@@SGPAUboolean_struct@_builtIn@@QAVsciLexerBase@@@@Z 
01:000B4DC8 ?canRedo@sciLexer@@SGPAUboolean_struct@_builtIn@@QAVsciLexerBase@@@@Z 
01:000B4E20 ?emptyUndoBuffer@sciLexer@@SAXQAVsciLexerBase@@@@Z 
01:000B4E4C ?undoCollection@sciLexer@@SGPAUboolean_struct@_builtIn@@QAVsciLexerBase@@@@Z 
01:000B4EA4 ?undoCollection@sciLexer@@SGXQAVsciLexerBase@@@PAUboolean_struct@_builtIn@@@Z 
01:000B4F10 ?beginUndoAction@sciLexer@@SAXQAVsciLexerBase@@@@Z 
01:000B4F3C ?endUndoAction@sciLexer@@SAXQAVsciLexerBase@@@@Z 
01:000B4F68 ?addUndoAction@sciLexer@@SAXQAVsciLexerBase@@@HH@Z 
01:000B4F94 ?lineCount@sciLexer@@SGPBUlineNumber@@QAVsciLexerBase@@@@Z 
01:000B4FD8 ?firstVisibleLine@sciLexer@@SGXQAVsciLexerBase@@@PBUlineNumber@@@Z 
01:000B502C ?firstVisibleLine@sciLexer@@SGPBUlineNumber@@QAVsciLexerBase@@@@Z 
01:000B5084 ?linesOnScreen@sciLexer@@SGHQAVsciLexerBase@@@@Z 
01:000B50C8 ?isModified@sciLexer@@SAXQAVsciLexerBase@@@@Z 
01:000B5110 ?setSel@sciLexer@@SAXQAVsciLexerBase@@@HH@Z 
01:000B513C ?gotoPos@sciLexer@@SAXQAVsciLexerBase@@@H@Z 
01:000B5168 ?gotoLine@sciLexer@@SAXQAVsciLexerBase@@@PBUlineNumber@@@Z 
01:000B51B4 ?currentPos@sciLexer@@SGXQAVsciLexerBase@@@H@Z 
01:000B51F4 ?currentPos@sciLexer@@SGHQAVsciLexerBase@@@@Z 
01:000B5238 ?anchor@sciLexer@@SGXQAVsciLexerBase@@@H@Z 
01:000B5278 ?anchor@sciLexer@@SGHQAVsciLexerBase@@@@Z 
01:000B52BC ?selectionStart@sciLexer@@SGXQAVsciLexerBase@@@H@Z 
01:000B52FC ?selectionStart@sciLexer@@SGHQAVsciLexerBase@@@@Z 
01:000B5340 ?selectionEnd@sciLexer@@SGXQAVsciLexerBase@@@H@Z 
01:000B5380 ?selectionEnd@sciLexer@@SGHQAVsciLexerBase@@@@Z 
01:000B53C4 ?setEmptySelection@sciLexer@@SAXQAVsciLexerBase@@@H@Z 
01:000B53F0 ?selectAll@sciLexer@@SAXQAVsciLexerBase@@@@Z 
01:000B541C ?_lineFromPosition@sciLexer@@SAXQAVsciLexerBase@@@HAAUlineNumber@@@Z 
01:000B546C ?_positionFromLine@sciLexer@@SAXQAVsciLexerBase@@@PBUlineNumber@@PAH@Z 
01:000B54B8 ?_getLineEndPosition@sciLexer@@SAXQAVsciLexerBase@@@PBUlineNumber@@PAH@Z 
01:000B5504 ?_lineLength@sciLexer@@SAXQAVsciLexerBase@@@PBUlineNumber@@PAH@Z 
01:000B5550 ?selText@sciLexer@@SGPB_WQAVsciLexerBase@@@@Z 
01:000B5594 ?selTextMultiple@sciLexer@@SGPB_WQAVsciLexerBase@@@@Z 
01:000B563C ?curLine@sciLexer@@SGPB_WQAVsciLexerBase@@@@Z 
01:000B56EC ?selectionIsRectangle@sciLexer@@SAXQAVsciLexerBase@@@@Z 
01:000B5734 ?selectionMode@sciLexer@@SGXQAVsciLexerBase@@@H@Z 
01:000B5774 ?selectionMode@sciLexer@@SGHQAVsciLexerBase@@@@Z 
01:000B57B8 ?_tryGetLineSelStartPosition@sciLexer@@SAXQAVsciLexerBase@@@PBUlineNumber@@PAH@Z 
01:000B5818 ?_tryGetLineSelEndPosition@sciLexer@@SAXQAVsciLexerBase@@@PBUlineNumber@@PAH@Z 
01:000B5878 ?moveCaretInsideView@sciLexer@@SAXQAVsciLexerBase@@@@Z 
01:000B58A4 ?_wordEndPosition@sciLexer@@SAXQAVsciLexerBase@@@HPAUboolean_struct@_builtIn@@PAH@Z 
01:000B58F0 ?_wordStartPosition@sciLexer@@SAXQAVsciLexerBase@@@HPAUboolean_struct@_builtIn@@PAH@Z 
01:000B593C ?_tryPositionBefore@sciLexer@@SAXQAVsciLexerBase@@@HPAH@Z 
01:000B5974 ?_tryPositionAfter@sciLexer@@SAXQAVsciLexerBase@@@HPAH@Z 
01:000B59C0 ?_countCharacters@sciLexer@@SAXQAVsciLexerBase@@@HHAAUcharCount@@@Z 
01:000B59EC ?_textWidth@sciLexer@@SAXQAVsciLexerBase@@@PBUsci_style@@PB_WPAH@Z 
01:000B5A38 ?_textHeight@sciLexer@@SAXQAVsciLexerBase@@@PBUlineNumber@@PAH@Z 
01:000B5A84 ?_getColumn@sciLexer@@SAXQAVsciLexerBase@@@HAAUlinePosition@@@Z 
01:000B5AD4 ?_findColumn@sciLexer@@SAXQAVsciLexerBase@@@PBUlineNumber@@PBUlinePosition@@PAH@Z 
01:000B5B38 ?_positionFromPoint@sciLexer@@SAXQAVsciLexerBase@@@HHPAH@Z 
01:000B5B64 ?_tryPositionFromPointClose@sciLexer@@SAXQAVsciLexerBase@@@HHPAH@Z 
01:000B5BB0 ?_charPositionFromPoint@sciLexer@@SAXQAVsciLexerBase@@@HHPAH@Z 
01:000B5BDC ?_tryCharPositionFromPointClose@sciLexer@@SAXQAVsciLexerBase@@@HHPAH@Z 
01:000B5C28 ?_pointXFromPosition@sciLexer@@SAXQAVsciLexerBase@@@HPAH@Z 
01:000B5C54 ?_pointYFromPosition@sciLexer@@SAXQAVsciLexerBase@@@HPAH@Z 
01:000B5C80 ?hideSelection@sciLexer@@SAXQAVsciLexerBase@@@PAUboolean_struct@_builtIn@@@Z 
01:000B5CCC ?chooseCaretX@sciLexer@@SAXQAVsciLexerBase@@@@Z 
01:000B5CF8 ?moveSelectedLinesUp@sciLexer@@SAXQAVsciLexerBase@@@@Z 
01:000B5D24 ?moveSelectedLinesDown@sciLexer@@SAXQAVsciLexerBase@@@@Z 
01:000B5D50 ?multipleSelection@sciLexer@@SGXQAVsciLexerBase@@@PAUboolean_struct@_builtIn@@@Z 
01:000B5DD0 ?multipleSelection@sciLexer@@SGPAUboolean_struct@_builtIn@@QAVsciLexerBase@@@@Z 
01:000B5E28 ?additionalSelectionTyping@sciLexer@@SGXQAVsciLexerBase@@@PAUboolean_struct@_builtIn@@@Z 
01:000B5E7C ?additionalSelectionTyping@sciLexer@@SGPAUboolean_struct@_builtIn@@QAVsciLexerBase@@@@Z 
01:000B5ED4 ?multiPaste@sciLexer@@SGXQAVsciLexerBase@@@H@Z 
01:000B5F14 ?multiPaste@sciLexer@@SGHQAVsciLexerBase@@@@Z 
01:000B5F58 ?virtualSpaceOptions@sciLexer@@SGXQAVsciLexerBase@@@H@Z 
01:000B5F98 ?virtualSpaceOptions@sciLexer@@SGHQAVsciLexerBase@@@@Z 
01:000B5FDC ?selections@sciLexer@@SGHQAVsciLexerBase@@@@Z 
01:000B6020 ?clearSelections@sciLexer@@SAXQAVsciLexerBase@@@@Z 
01:000B604C ?setSelection@sciLexer@@SAXQAVsciLexerBase@@@HH@Z 
01:000B6078 ?addSelection@sciLexer@@SAXQAVsciLexerBase@@@HH@Z 
01:000B60A4 ?mainSelection@sciLexer@@SGXQAVsciLexerBase@@@H@Z 
01:000B60E4 ?mainSelection@sciLexer@@SGHQAVsciLexerBase@@@@Z 
01:000B6128 ?setSelectionNCaret@sciLexer@@SAXQAVsciLexerBase@@@HH@Z 
01:000B6154 ?_getSelectionNCaret@sciLexer@@SAXQAVsciLexerBase@@@HPAH@Z 
01:000B6180 ?setSelectionNCaretVirtualSpace@sciLexer@@SAXQAVsciLexerBase@@@HH@Z 
01:000B61AC ?_getSelectionNCaretVirtualSpace@sciLexer@@SAXQAVsciLexerBase@@@HPAH@Z 
01:000B61D8 ?setSelectionNAnchor@sciLexer@@SAXQAVsciLexerBase@@@HH@Z 
01:000B6204 ?_getSelectionNAnchor@sciLexer@@SAXQAVsciLexerBase@@@HPAH@Z 
01:000B6230 ?setSelectionNAnchorVirtualSpace@sciLexer@@SAXQAVsciLexerBase@@@HH@Z 
01:000B625C ?_getSelectionNAnchorVirtualSpace@sciLexer@@SAXQAVsciLexerBase@@@HPAH@Z 
01:000B6288 ?setSelectionNStart@sciLexer@@SAXQAVsciLexerBase@@@HH@Z 
01:000B62B4 ?_getSelectionNStart@sciLexer@@SAXQAVsciLexerBase@@@HPAH@Z 
01:000B62E0 ?setSelectionNEnd@sciLexer@@SAXQAVsciLexerBase@@@HH@Z 
01:000B630C ?_getSelectionNEnd@sciLexer@@SAXQAVsciLexerBase@@@HPAH@Z 
01:000B6338 ?rectangularSelectionCaret@sciLexer@@SGXQAVsciLexerBase@@@H@Z 
01:000B6378 ?rectangularSelectionCaret@sciLexer@@SGHQAVsciLexerBase@@@@Z 
01:000B63BC ?rectangularSelectionCaretVirtualSpace@sciLexer@@SGXQAVsciLexerBase@@@H@Z 
01:000B63FC ?rectangularSelectionCaretVirtualSpace@sciLexer@@SGHQAVsciLexerBase@@@@Z 
01:000B6440 ?rectangularSelectionAnchor@sciLexer@@SGXQAVsciLexerBase@@@H@Z 
01:000B6480 ?rectangularSelectionAnchor@sciLexer@@SGHQAVsciLexerBase@@@@Z 
01:000B64C4 ?rectangularSelectionAnchorVirtualSpace@sciLexer@@SGXQAVsciLexerBase@@@H@Z 
01:000B6504 ?rectangularSelectionAnchorVirtualSpace@sciLexer@@SGHQAVsciLexerBase@@@@Z 
01:000B6548 ?additionalSelAlpha@sciLexer@@SGXQAVsciLexerBase@@@H@Z 
01:000B6588 ?additionalSelAlpha@sciLexer@@SGHQAVsciLexerBase@@@@Z 
01:000B65CC ?setAdditionalSelFore@sciLexer@@SAXQAVsciLexerBase@@@H@Z 
01:000B65F8 ?setAdditionalSelBack@sciLexer@@SAXQAVsciLexerBase@@@H@Z 
01:000B6624 ?additionalCaretFore@sciLexer@@SGXQAVsciLexerBase@@@H@Z 
01:000B6664 ?additionalCaretFore@sciLexer@@SGHQAVsciLexerBase@@@@Z 
01:000B66A8 ?additionalCaretsBlink@sciLexer@@SGXQAVsciLexerBase@@@PAUboolean_struct@_builtIn@@@Z 
01:000B66FC ?additionalCaretsBlink@sciLexer@@SGPAUboolean_struct@_builtIn@@QAVsciLexerBase@@@@Z 
01:000B6754 ?additionalCaretsVisible@sciLexer@@SGXQAVsciLexerBase@@@PAUboolean_struct@_builtIn@@@Z 
01:000B67A8 ?additionalCaretsVisible@sciLexer@@SGPAUboolean_struct@_builtIn@@QAVsciLexerBase@@@@Z 
01:000B6800 ?swapMainAnchorCaret@sciLexer@@SAXQAVsciLexerBase@@@@Z 
01:000B682C ?rotateSelection@sciLexer@@SAXQAVsciLexerBase@@@@Z 
01:000B6858 ?lineScroll@sciLexer@@SAXQAVsciLexerBase@@@PBUlinePosition@@PBUlineNumber@@@Z 
01:000B68BC ?scrollCaret@sciLexer@@SAXQAVsciLexerBase@@@@Z 
01:000B68E8 ?setXCaretPolicy@sciLexer@@SAXQAVsciLexerBase@@@HH@Z 
01:000B6914 ?setYCaretPolicy@sciLexer@@SAXQAVsciLexerBase@@@HH@Z 
01:000B6940 ?setVisiblePolicy@sciLexer@@SAXQAVsciLexerBase@@@HH@Z 
01:000B696C ?hScrollbar@sciLexer@@SGXQAVsciLexerBase@@@PAUboolean_struct@_builtIn@@@Z 
01:000B69C0 ?hScrollbar@sciLexer@@SGPAUboolean_struct@_builtIn@@QAVsciLexerBase@@@@Z 
01:000B6A18 ?vScrollbar@sciLexer@@SGXQAVsciLexerBase@@@PAUboolean_struct@_builtIn@@@Z 
01:000B6A6C ?vScrollbar@sciLexer@@SGPAUboolean_struct@_builtIn@@QAVsciLexerBase@@@@Z 
01:000B6AC4 ?xOffset@sciLexer@@SGXQAVsciLexerBase@@@H@Z 
01:000B6B04 ?xOffset@sciLexer@@SGHQAVsciLexerBase@@@@Z 
01:000B6B48 ?scrollWidth@sciLexer@@SGXQAVsciLexerBase@@@H@Z 
01:000B6B88 ?scrollWidth@sciLexer@@SGHQAVsciLexerBase@@@@Z 
01:000B6BCC ?scrollWidthTracking@sciLexer@@SGXQAVsciLexerBase@@@PAUboolean_struct@_builtIn@@@Z 
01:000B6C20 ?scrollWidthTracking@sciLexer@@SGPAUboolean_struct@_builtIn@@QAVsciLexerBase@@@@Z 
01:000B6C78 ?endatLastLine@sciLexer@@SGXQAVsciLexerBase@@@PAUboolean_struct@_builtIn@@@Z 
01:000B6CCC ?endatLastLine@sciLexer@@SGPAUboolean_struct@_builtIn@@QAVsciLexerBase@@@@Z 
01:000B6D24 ?viewWs@sciLexer@@SGXQAVsciLexerBase@@@H@Z 
01:000B6D64 ?viewWs@sciLexer@@SGHQAVsciLexerBase@@@@Z 
01:000B6DA8 ?setWhiteSpaceFore@sciLexer@@SAXQAVsciLexerBase@@@PAUboolean_struct@_builtIn@@H@Z 
01:000B6DF4 ?setWhiteSpaceBack@sciLexer@@SAXQAVsciLexerBase@@@PAUboolean_struct@_builtIn@@H@Z 
01:000B6E40 ?whiteSpaceSize@sciLexer@@SGXQAVsciLexerBase@@@H@Z 
01:000B6E80 ?whiteSpaceSize@sciLexer@@SGHQAVsciLexerBase@@@@Z 
01:000B6EC4 ?extraAscent@sciLexer@@SGXQAVsciLexerBase@@@H@Z 
01:000B6F04 ?extraAscent@sciLexer@@SGHQAVsciLexerBase@@@@Z 
01:000B6F48 ?extraDescent@sciLexer@@SGXQAVsciLexerBase@@@H@Z 
01:000B6F88 ?extraDescent@sciLexer@@SGHQAVsciLexerBase@@@@Z 
01:000B6FCC ?cursor@sciLexer@@SGXQAVsciLexerBase@@@H@Z 
01:000B700C ?cursor@sciLexer@@SGHQAVsciLexerBase@@@@Z 
01:000B7050 ?mousedownCaptures@sciLexer@@SGXQAVsciLexerBase@@@PAUboolean_struct@_builtIn@@@Z 
01:000B70A4 ?mousedownCaptures@sciLexer@@SGPAUboolean_struct@_builtIn@@QAVsciLexerBase@@@@Z 
01:000B70FC ?eolMode@sciLexer@@SGXQAVsciLexerBase@@@H@Z 
01:000B713C ?eolMode@sciLexer@@SGHQAVsciLexerBase@@@@Z 
01:000B7180 ?convertEols@sciLexer@@SAXQAVsciLexerBase@@@H@Z 
01:000B71AC ?viewEol@sciLexer@@SGXQAVsciLexerBase@@@PAUboolean_struct@_builtIn@@@Z 
01:000B7200 ?viewEol@sciLexer@@SGPAUboolean_struct@_builtIn@@QAVsciLexerBase@@@@Z 
01:000B7258 ?endStyled@sciLexer@@SGHQAVsciLexerBase@@@@Z 
01:000B729C ?startStyling@sciLexer@@SAXQAVsciLexerBase@@@HH@Z 
01:000B72C8 ?setStyling@sciLexer@@SAXQAVsciLexerBase@@@HPBUsci_style@@@Z 
01:000B72F4 ?setStylingeX@sciLexer@@SAXQAVsciLexerBase@@@HPB_W@Z 
01:000B7340 ?setLineState@sciLexer@@SAXQAVsciLexerBase@@@PBUlineNumber@@H@Z 
01:000B738C ?_getLineState@sciLexer@@SAXQAVsciLexerBase@@@PBUlineNumber@@PAH@Z 
01:000B73D8 ?maxLineState@sciLexer@@SGPBUlineNumber@@QAVsciLexerBase@@@@Z 
01:000B7430 ?styleResetDefault@sciLexer@@SAXQAVsciLexerBase@@@@Z 
01:000B745C ?styleClearAll@sciLexer@@SAXQAVsciLexerBase@@@@Z 
01:000B7488 ?styleSetFont@sciLexer@@SAXQAVsciLexerBase@@@PBUsci_style@@PB_W@Z 
01:000B74D4 ?_styleGetFont@sciLexer@@SAXQAVsciLexerBase@@@PBUsci_style@@PAPB_W@Z 
01:000B7530 ?styleSetSize@sciLexer@@SAXQAVsciLexerBase@@@PBUsci_style@@H@Z 
01:000B755C ?_styleGetSize@sciLexer@@SAXQAVsciLexerBase@@@PBUsci_style@@PAH@Z 
01:000B7588 ?styleSetSizeFractional@sciLexer@@SAXQAVsciLexerBase@@@PBUsci_style@@H@Z 
01:000B75B4 ?_styleGetSizeFractional@sciLexer@@SAXQAVsciLexerBase@@@PBUsci_style@@PAH@Z 
01:000B75E0 ?styleSetBold@sciLexer@@SAXQAVsciLexerBase@@@PBUsci_style@@PAUboolean_struct@_builtIn@@@Z 
01:000B762C ?_styleGetBold@sciLexer@@SAXQAVsciLexerBase@@@PBUsci_style@@PAPAUboolean_struct@_builtIn@@@Z 
01:000B767C ?styleSetWeight@sciLexer@@SAXQAVsciLexerBase@@@PBUsci_style@@H@Z 
01:000B76A8 ?_styleGetWeight@sciLexer@@SAXQAVsciLexerBase@@@PBUsci_style@@PAH@Z 
01:000B76D4 ?styleSetItalic@sciLexer@@SAXQAVsciLexerBase@@@PBUsci_style@@PAUboolean_struct@_builtIn@@@Z 
01:000B7720 ?_styleGetItalic@sciLexer@@SAXQAVsciLexerBase@@@PBUsci_style@@PAPAUboolean_struct@_builtIn@@@Z 
01:000B7770 ?styleSetUnderline@sciLexer@@SAXQAVsciLexerBase@@@PBUsci_style@@PAUboolean_struct@_builtIn@@@Z 
01:000B77BC ?_styleGetUnderline@sciLexer@@SAXQAVsciLexerBase@@@PBUsci_style@@PAPAUboolean_struct@_builtIn@@@Z 
01:000B780C ?styleSetFore@sciLexer@@SAXQAVsciLexerBase@@@PBUsci_style@@H@Z 
01:000B7838 ?_styleGetFore@sciLexer@@SAXQAVsciLexerBase@@@PBUsci_style@@PAH@Z 
01:000B7864 ?styleSetBack@sciLexer@@SAXQAVsciLexerBase@@@PBUsci_style@@H@Z 
01:000B7890 ?_styleGetBack@sciLexer@@SAXQAVsciLexerBase@@@PBUsci_style@@PAH@Z 
01:000B78BC ?styleSetEolFilled@sciLexer@@SAXQAVsciLexerBase@@@PBUsci_style@@PAUboolean_struct@_builtIn@@@Z 
01:000B7908 ?_styleGetEolFilled@sciLexer@@SAXQAVsciLexerBase@@@PBUsci_style@@PAPAUboolean_struct@_builtIn@@@Z 
01:000B7958 ?styleSetCase@sciLexer@@SAXQAVsciLexerBase@@@PBUsci_style@@H@Z 
01:000B7984 ?_styleGetCase@sciLexer@@SAXQAVsciLexerBase@@@PBUsci_style@@PAH@Z 
01:000B79B0 ?styleSetVisible@sciLexer@@SAXQAVsciLexerBase@@@PBUsci_style@@PAUboolean_struct@_builtIn@@@Z 
01:000B79FC ?_styleGetVisible@sciLexer@@SAXQAVsciLexerBase@@@PBUsci_style@@PAPAUboolean_struct@_builtIn@@@Z 
01:000B7A4C ?styleSetChangeable@sciLexer@@SAXQAVsciLexerBase@@@PBUsci_style@@PAUboolean_struct@_builtIn@@@Z 
01:000B7A98 ?_styleGetChangeable@sciLexer@@SAXQAVsciLexerBase@@@PBUsci_style@@PAPAUboolean_struct@_builtIn@@@Z 
01:000B7AE8 ?styleSetHotSpot@sciLexer@@SAXQAVsciLexerBase@@@PBUsci_style@@PAUboolean_struct@_builtIn@@@Z 
01:000B7B34 ?_styleGetHotSpot@sciLexer@@SAXQAVsciLexerBase@@@PBUsci_style@@PAPAUboolean_struct@_builtIn@@@Z 
01:000B7B84 ?setSelFore@sciLexer@@SAXQAVsciLexerBase@@@PAUboolean_struct@_builtIn@@H@Z 
01:000B7BD0 ?setSelBack@sciLexer@@SAXQAVsciLexerBase@@@PAUboolean_struct@_builtIn@@H@Z 
01:000B7C1C ?selAlpha@sciLexer@@SGXQAVsciLexerBase@@@H@Z 
01:000B7C5C ?selAlpha@sciLexer@@SGHQAVsciLexerBase@@@@Z 
01:000B7CA0 ?selEolFilled@sciLexer@@SGXQAVsciLexerBase@@@PAUboolean_struct@_builtIn@@@Z 
01:000B7CF4 ?selEolFilled@sciLexer@@SGPAUboolean_struct@_builtIn@@QAVsciLexerBase@@@@Z 
01:000B7D4C ?caretFore@sciLexer@@SGXQAVsciLexerBase@@@H@Z 
01:000B7D8C ?caretFore@sciLexer@@SGHQAVsciLexerBase@@@@Z 
01:000B7DD0 ?caretLineVisible@sciLexer@@SGXQAVsciLexerBase@@@PAUboolean_struct@_builtIn@@@Z 
01:000B7E24 ?caretLineVisible@sciLexer@@SGPAUboolean_struct@_builtIn@@QAVsciLexerBase@@@@Z 
01:000B7E7C ?caretLineBack@sciLexer@@SGXQAVsciLexerBase@@@H@Z 
01:000B7EBC ?caretLineBack@sciLexer@@SGHQAVsciLexerBase@@@@Z 
01:000B7F00 ?caretLineBackAlpha@sciLexer@@SGXQAVsciLexerBase@@@H@Z 
01:000B7F40 ?caretLineBackAlpha@sciLexer@@SGHQAVsciLexerBase@@@@Z 
01:000B7F84 ?caretPeriod@sciLexer@@SGXQAVsciLexerBase@@@H@Z 
01:000B7FC4 ?caretPeriod@sciLexer@@SGHQAVsciLexerBase@@@@Z 
01:000B8008 ?caretStyle@sciLexer@@SGXQAVsciLexerBase@@@H@Z 
01:000B8048 ?caretStyle@sciLexer@@SGHQAVsciLexerBase@@@@Z 
01:000B808C ?caretWidth@sciLexer@@SGXQAVsciLexerBase@@@H@Z 
01:000B80CC ?caretWidth@sciLexer@@SGHQAVsciLexerBase@@@@Z 
01:000B8110 ?setHotSpotActiveFore@sciLexer@@SAXQAVsciLexerBase@@@PAUboolean_struct@_builtIn@@H@Z 
01:000B815C ?_getHotSpotActiveFore@sciLexer@@SAXQAVsciLexerBase@@@PAH@Z 
01:000B8188 ?setHotSpotActiveBack@sciLexer@@SAXQAVsciLexerBase@@@PAUboolean_struct@_builtIn@@H@Z 
01:000B81D4 ?_getHotSpotActiveBack@sciLexer@@SAXQAVsciLexerBase@@@PAH@Z 
01:000B8200 ?hotSpotActiveUnderline@sciLexer@@SGXQAVsciLexerBase@@@PAUboolean_struct@_builtIn@@@Z 
01:000B8254 ?hotSpotActiveUnderline@sciLexer@@SGPAUboolean_struct@_builtIn@@QAVsciLexerBase@@@@Z 
01:000B82AC ?hotSpotSingleLine@sciLexer@@SGXQAVsciLexerBase@@@PAUboolean_struct@_builtIn@@@Z 
01:000B8300 ?hotSpotSingleLine@sciLexer@@SGPAUboolean_struct@_builtIn@@QAVsciLexerBase@@@@Z 
01:000B8358 ?controlCharSymbol@sciLexer@@SGXQAVsciLexerBase@@@H@Z 
01:000B8398 ?controlCharSymbol@sciLexer@@SGHQAVsciLexerBase@@@@Z 
01:000B83DC ?caretSticky@sciLexer@@SGXQAVsciLexerBase@@@H@Z 
01:000B841C ?caretSticky@sciLexer@@SGHQAVsciLexerBase@@@@Z 
01:000B8460 ?toggleCaretSticky@sciLexer@@SAXQAVsciLexerBase@@@@Z 
01:000B848C ?setMarginTypeN@sciLexer@@SAXQAVsciLexerBase@@@HH@Z 
01:000B84B8 ?_getMarginTypeN@sciLexer@@SAXQAVsciLexerBase@@@HPAH@Z 
01:000B84E4 ?setMarginWidthN@sciLexer@@SAXQAVsciLexerBase@@@HH@Z 
01:000B8510 ?_getMarginWidthN@sciLexer@@SAXQAVsciLexerBase@@@HPAH@Z 
01:000B853C ?setMarginMaskN@sciLexer@@SAXQAVsciLexerBase@@@HI@Z 
01:000B8568 ?_getMarginMaskN@sciLexer@@SAXQAVsciLexerBase@@@HPAI@Z 
01:000B8594 ?setMarginSensitiveN@sciLexer@@SAXQAVsciLexerBase@@@HPAUboolean_struct@_builtIn@@@Z 
01:000B85E0 ?_getMarginSensitiveN@sciLexer@@SAXQAVsciLexerBase@@@HPAH@Z 
01:000B860C ?setMarginCursorN@sciLexer@@SAXQAVsciLexerBase@@@HH@Z 
01:000B8638 ?_getMarginCursorN@sciLexer@@SAXQAVsciLexerBase@@@HPAH@Z 
01:000B8664 ?marginLeft@sciLexer@@SGXQAVsciLexerBase@@@H@Z 
01:000B86A4 ?marginLeft@sciLexer@@SGHQAVsciLexerBase@@@@Z 
01:000B86E8 ?marginRight@sciLexer@@SGXQAVsciLexerBase@@@H@Z 
01:000B8728 ?marginRight@sciLexer@@SGHQAVsciLexerBase@@@@Z 
01:000B876C ?setFoldmarginColor@sciLexer@@SAXQAVsciLexerBase@@@PAUboolean_struct@_builtIn@@H@Z 
01:000B87B8 ?setFoldmarginhiColor@sciLexer@@SAXQAVsciLexerBase@@@PAUboolean_struct@_builtIn@@H@Z 
01:000B8804 ?marginSetText@sciLexer@@SAXQAVsciLexerBase@@@PBUlineNumber@@PB_W@Z 
01:000B8868 ?_marginGetText@sciLexer@@SAXQAVsciLexerBase@@@PBUlineNumber@@PAPB_W@Z 
01:000B88D8 ?marginSetStyle@sciLexer@@SAXQAVsciLexerBase@@@PBUlineNumber@@H@Z 
01:000B8924 ?_marginGetStyle@sciLexer@@SAXQAVsciLexerBase@@@PBUlineNumber@@PAH@Z 
01:000B8970 ?marginSetStyles@sciLexer@@SAXQAVsciLexerBase@@@PBUlineNumber@@PB_W@Z 
01:000B89D4 ?_marginGetStyles@sciLexer@@SAXQAVsciLexerBase@@@PBUlineNumber@@PAPB_W@Z 
01:000B8A44 ?marginTextClearAll@sciLexer@@SAXQAVsciLexerBase@@@@Z 
01:000B8A70 ?marginSetStyleOffset@sciLexer@@SAXQAVsciLexerBase@@@H@Z 
01:000B8A9C ?_marginGetStyleOffset@sciLexer@@SAXQAVsciLexerBase@@@PAH@Z 
01:000B8AC8 ?annotationSetText@sciLexer@@SAXQAVsciLexerBase@@@PBUlineNumber@@PB_W@Z 
01:000B8B2C ?_annotationGetText@sciLexer@@SAXQAVsciLexerBase@@@PBUlineNumber@@PAPB_W@Z 
01:000B8B9C ?annotationSetStyle@sciLexer@@SAXQAVsciLexerBase@@@PBUlineNumber@@H@Z 
01:000B8BE8 ?_annotationGetStyle@sciLexer@@SAXQAVsciLexerBase@@@PBUlineNumber@@PAH@Z 
01:000B8C34 ?annotationSetStyles@sciLexer@@SAXQAVsciLexerBase@@@PBUlineNumber@@PB_W@Z 
01:000B8C98 ?_annotationGetStyles@sciLexer@@SAXQAVsciLexerBase@@@PBUlineNumber@@PAPB_W@Z 
01:000B8D08 ?_annotationGetLines@sciLexer@@SAXQAVsciLexerBase@@@PBUlineNumber@@PAH@Z 
01:000B8D54 ?annotationClearAll@sciLexer@@SAXQAVsciLexerBase@@@@Z 
01:000B8D80 ?annotationVisible@sciLexer@@SGXQAVsciLexerBase@@@H@Z 
01:000B8DC0 ?annotationVisible@sciLexer@@SGHQAVsciLexerBase@@@@Z 
01:000B8E04 ?annotationStyleOffset@sciLexer@@SGXQAVsciLexerBase@@@H@Z 
01:000B8E44 ?annotationStyleOffset@sciLexer@@SGHQAVsciLexerBase@@@@Z 
01:000B8E88 ?bufferedDraw@sciLexer@@SGXQAVsciLexerBase@@@PAUboolean_struct@_builtIn@@@Z 
01:000B8EDC ?bufferedDraw@sciLexer@@SGPAUboolean_struct@_builtIn@@QAVsciLexerBase@@@@Z 
01:000B8F34 ?twoPhaseDraw@sciLexer@@SGXQAVsciLexerBase@@@PAUboolean_struct@_builtIn@@@Z 
01:000B8F88 ?twoPhaseDraw@sciLexer@@SGPAUboolean_struct@_builtIn@@QAVsciLexerBase@@@@Z 
01:000B8FE0 ?technology@sciLexer@@SGXQAVsciLexerBase@@@H@Z 
01:000B9020 ?technology@sciLexer@@SGHQAVsciLexerBase@@@@Z 
01:000B9064 ?fontQuality@sciLexer@@SGXQAVsciLexerBase@@@H@Z 
01:000B90A4 ?fontQuality@sciLexer@@SGHQAVsciLexerBase@@@@Z 
01:000B90E8 ?codePage@sciLexer@@SGXQAVsciLexerBase@@@PBU0@@Z 
01:000B9128 ?codePage@sciLexer@@SGPBU0@QAVsciLexerBase@@@@Z 
01:000B916C ?keysUnicode@sciLexer@@SGXQAVsciLexerBase@@@PAUboolean_struct@_builtIn@@@Z 
01:000B91C0 ?keysUnicode@sciLexer@@SGPAUboolean_struct@_builtIn@@QAVsciLexerBase@@@@Z 
01:000B9218 ?setWordChars@sciLexer@@SAXQAVsciLexerBase@@@PB_W@Z 
01:000B9264 ?setWhiteSpaceChars@sciLexer@@SAXQAVsciLexerBase@@@PB_W@Z 
01:000B92B0 ?setCharsDefault@sciLexer@@SAXQAVsciLexerBase@@@@Z 
01:000B92DC ?grabFocus@sciLexer@@SAXQAVsciLexerBase@@@@Z 
01:000B9308 ?focus@sciLexer@@SGXQAVsciLexerBase@@@PAUboolean_struct@_builtIn@@@Z 
01:000B935C ?focus@sciLexer@@SGPAUboolean_struct@_builtIn@@QAVsciLexerBase@@@@Z 
01:000B93B4 ?braceHighLight@sciLexer@@SAXQAVsciLexerBase@@@HH@Z 
01:000B93E0 ?braceBadLight@sciLexer@@SAXQAVsciLexerBase@@@H@Z 
01:000B940C ?braceHighlightIndicator@sciLexer@@SAXQAVsciLexerBase@@@PAUboolean_struct@_builtIn@@H@Z 
01:000B9458 ?braceBadlightIndicator@sciLexer@@SAXQAVsciLexerBase@@@PAUboolean_struct@_builtIn@@H@Z 
01:000B94A4 ?_tryBraceMatch@sciLexer@@SAXQAVsciLexerBase@@@HHPAH@Z 
01:000B94F0 ?tabWidth@sciLexer@@SGXQAVsciLexerBase@@@PBUcharCount@@@Z 
01:000B9530 ?tabWidth@sciLexer@@SGPBUcharCount@@QAVsciLexerBase@@@@Z 
01:000B9574 ?useTabs@sciLexer@@SGXQAVsciLexerBase@@@PAUboolean_struct@_builtIn@@@Z 
01:000B95C8 ?useTabs@sciLexer@@SGPAUboolean_struct@_builtIn@@QAVsciLexerBase@@@@Z 
01:000B9620 ?indent@sciLexer@@SGXQAVsciLexerBase@@@H@Z 
01:000B9660 ?indent@sciLexer@@SGHQAVsciLexerBase@@@@Z 
01:000B96A4 ?tabIndents@sciLexer@@SGXQAVsciLexerBase@@@PAUboolean_struct@_builtIn@@@Z 
01:000B96F8 ?tabIndents@sciLexer@@SGPAUboolean_struct@_builtIn@@QAVsciLexerBase@@@@Z 
01:000B9750 ?backSpaceUnIndents@sciLexer@@SGXQAVsciLexerBase@@@PAUboolean_struct@_builtIn@@@Z 
01:000B97A4 ?backSpaceUnIndents@sciLexer@@SGPAUboolean_struct@_builtIn@@QAVsciLexerBase@@@@Z 
01:000B97FC ?setLineIndentation@sciLexer@@SAXQAVsciLexerBase@@@PBUlineNumber@@PBUlinePosition@@@Z 
01:000B9848 ?_getLineIndentation@sciLexer@@SAXQAVsciLexerBase@@@PBUlineNumber@@AAUlinePosition@@@Z 
01:000B9894 ?_getLineIndentPosition@sciLexer@@SAXQAVsciLexerBase@@@PBUlineNumber@@PAH@Z 
01:000B98E0 ?indentationGuides@sciLexer@@SGXQAVsciLexerBase@@@H@Z 
01:000B9920 ?indentationGuides@sciLexer@@SGHQAVsciLexerBase@@@@Z 
01:000B9964 ?highLightGuide@sciLexer@@SGXQAVsciLexerBase@@@H@Z 
01:000B99A4 ?highLightGuide@sciLexer@@SGHQAVsciLexerBase@@@@Z 
01:000B99E8 ?markerDefine@sciLexer@@SAXQAVsciLexerBase@@@HH@Z 
01:000B9A14 ?markerDefinePixmap@sciLexer@@SAXQAVsciLexerBase@@@HPAD@Z 
01:000B9A40 ?markerDefineRgbaImage@sciLexer@@SAXQAVsciLexerBase@@@HHHPAD@Z 
01:000B9AD0 ?_markerSymbolDefined@sciLexer@@SAXQAVsciLexerBase@@@HPAH@Z 
01:000B9AFC ?markerSetFore@sciLexer@@SAXQAVsciLexerBase@@@HH@Z 
01:000B9B28 ?markerSetBack@sciLexer@@SAXQAVsciLexerBase@@@HH@Z 
01:000B9B54 ?markerSetBackSelected@sciLexer@@SAXQAVsciLexerBase@@@HH@Z 
01:000B9B80 ?markerEnableHighlight@sciLexer@@SAXQAVsciLexerBase@@@PAUboolean_struct@_builtIn@@@Z 
01:000B9BCC ?markerSetAlpha@sciLexer@@SAXQAVsciLexerBase@@@HH@Z 
01:000B9BF8 ?_tryMarkerAdd@sciLexer@@SAXQAVsciLexerBase@@@PBUlineNumber@@HPAH@Z 
01:000B9C5C ?markerAddset@sciLexer@@SAXQAVsciLexerBase@@@PBUlineNumber@@H@Z 
01:000B9CA8 ?markerDelete@sciLexer@@SAXQAVsciLexerBase@@@PBUlineNumber@@H@Z 
01:000B9CF4 ?markerDeleteAll@sciLexer@@SAXQAVsciLexerBase@@@H@Z 
01:000B9D20 ?_markerGet@sciLexer@@SAXQAVsciLexerBase@@@PBUlineNumber@@PAH@Z 
01:000B9D6C ?_tryMarkerNext@sciLexer@@SAXQAVsciLexerBase@@@HHAAUlineNumber@@@Z 
01:000B9DC8 ?_tryMarkerPrevious@sciLexer@@SAXQAVsciLexerBase@@@HHAAUlineNumber@@@Z 
01:000B9E24 ?_tryMarkerLineFromHandle@sciLexer@@SAXQAVsciLexerBase@@@HAAUlineNumber@@@Z 
01:000B9E7C ?markerDeleteHandle@sciLexer@@SAXQAVsciLexerBase@@@H@Z 
01:000B9EA8 ?indicSetStyle@sciLexer@@SAXQAVsciLexerBase@@@HH@Z 
01:000B9ED4 ?_indicGetStyle@sciLexer@@SAXQAVsciLexerBase@@@HPAH@Z 
01:000B9F00 ?indicSetFore@sciLexer@@SAXQAVsciLexerBase@@@HH@Z 
01:000B9F2C ?_indicGetFore@sciLexer@@SAXQAVsciLexerBase@@@HPAH@Z 
01:000B9F58 ?indicSetAlpha@sciLexer@@SAXQAVsciLexerBase@@@HH@Z 
01:000B9F84 ?_indicGetAlpha@sciLexer@@SAXQAVsciLexerBase@@@HPAH@Z 
01:000B9FB0 ?indicSetOutlineAlpha@sciLexer@@SAXQAVsciLexerBase@@@HH@Z 
01:000B9FDC ?_indicGetOutlineAlpha@sciLexer@@SAXQAVsciLexerBase@@@HPAH@Z 
01:000BA008 ?indicSetUnder@sciLexer@@SAXQAVsciLexerBase@@@HPAUboolean_struct@_builtIn@@@Z 
01:000BA054 ?indicGetUnder@sciLexer@@SAXQAVsciLexerBase@@@H@Z 
01:000BA080 ?indicatorCurrent@sciLexer@@SGXQAVsciLexerBase@@@H@Z 
01:000BA0C0 ?indicatorCurrent@sciLexer@@SGHQAVsciLexerBase@@@@Z 
01:000BA104 ?indicatorValue@sciLexer@@SGXQAVsciLexerBase@@@H@Z 
01:000BA144 ?indicatorValue@sciLexer@@SGHQAVsciLexerBase@@@@Z 
01:000BA188 ?indicatorfillRange@sciLexer@@SAXQAVsciLexerBase@@@HH@Z 
01:000BA1B4 ?indicatorClearRange@sciLexer@@SAXQAVsciLexerBase@@@HH@Z 
01:000BA1E0 ?_indicatorAllOnFor@sciLexer@@SAXQAVsciLexerBase@@@HPAI@Z 
01:000BA20C ?indicatorValueAt@sciLexer@@SAXQAVsciLexerBase@@@HH@Z 
01:000BA238 ?_indicatorStart@sciLexer@@SAXQAVsciLexerBase@@@HHPAH@Z 
01:000BA264 ?_indicatorEnd@sciLexer@@SAXQAVsciLexerBase@@@HHPAH@Z 
01:000BA290 ?autoCShow@sciLexer@@SAXQAVsciLexerBase@@@HPB_W@Z 
01:000BA2DC ?autoCCancel@sciLexer@@SAXQAVsciLexerBase@@@@Z 
01:000BA308 ?_autoCActive@sciLexer@@SAXQAVsciLexerBase@@@PAPAUboolean_struct@_builtIn@@@Z 
01:000BA34C ?autoCPosStart@sciLexer@@SGHQAVsciLexerBase@@@@Z 
01:000BA390 ?autoCComplete@sciLexer@@SAXQAVsciLexerBase@@@@Z 
01:000BA3BC ?autoCStops@sciLexer@@SAXQAVsciLexerBase@@@PB_W@Z 
01:000BA408 ?autoCSeparator@sciLexer@@SGXQAVsciLexerBase@@@_W@Z 
01:000BA460 ?autoCSeparator@sciLexer@@SG_WQAVsciLexerBase@@@@Z 
01:000BA4B8 ?autoCSelect@sciLexer@@SAXQAVsciLexerBase@@@PB_W@Z 
01:000BA504 ?autoCCurrent@sciLexer@@SGHQAVsciLexerBase@@@@Z 
01:000BA548 ?autoCCurrentText@sciLexer@@SGPB_WQAVsciLexerBase@@@@Z 
01:000BA5F0 ?autoCCancelatStart@sciLexer@@SGXQAVsciLexerBase@@@PAUboolean_struct@_builtIn@@@Z 
01:000BA644 ?autoCCancelatStart@sciLexer@@SGPAUboolean_struct@_builtIn@@QAVsciLexerBase@@@@Z 
01:000BA69C ?autoCFillups@sciLexer@@SGXQAVsciLexerBase@@@PB_W@Z 
01:000BA6F0 ?autoCChooseSingle@sciLexer@@SGXQAVsciLexerBase@@@PAUboolean_struct@_builtIn@@@Z 
01:000BA744 ?autoCChooseSingle@sciLexer@@SGPAUboolean_struct@_builtIn@@QAVsciLexerBase@@@@Z 
01:000BA79C ?autoCIgnoreCase@sciLexer@@SGXQAVsciLexerBase@@@PAUboolean_struct@_builtIn@@@Z 
01:000BA7F0 ?autoCIgnoreCase@sciLexer@@SGPAUboolean_struct@_builtIn@@QAVsciLexerBase@@@@Z 
01:000BA848 ?autoCCaseInsensitiveBehaviour@sciLexer@@SGXQAVsciLexerBase@@@H@Z 
01:000BA888 ?autoCCaseInsensitiveBehaviour@sciLexer@@SGHQAVsciLexerBase@@@@Z 
01:000BA8CC ?autoCAutoHide@sciLexer@@SGXQAVsciLexerBase@@@PAUboolean_struct@_builtIn@@@Z 
01:000BA920 ?autoCAutoHide@sciLexer@@SGPAUboolean_struct@_builtIn@@QAVsciLexerBase@@@@Z 
01:000BA978 ?autoCDropRestOfWord@sciLexer@@SGXQAVsciLexerBase@@@PAUboolean_struct@_builtIn@@@Z 
01:000BA9CC ?autoCDropRestOfWord@sciLexer@@SGPAUboolean_struct@_builtIn@@QAVsciLexerBase@@@@Z 
01:000BAA24 ?registerImage@sciLexer@@SAXQAVsciLexerBase@@@HPAD@Z 
01:000BAA50 ?registerRgbaImage@sciLexer@@SAXQAVsciLexerBase@@@HHHPAD@Z 
01:000BAAE0 ?clearRegisteredImages@sciLexer@@SAXQAVsciLexerBase@@@@Z 
01:000BAB0C ?autoCTypeSeparator@sciLexer@@SGXQAVsciLexerBase@@@_W@Z 
01:000BAB64 ?autoCTypeSeparator@sciLexer@@SG_WQAVsciLexerBase@@@@Z 
01:000BABBC ?autoCMaxHeight@sciLexer@@SGXQAVsciLexerBase@@@H@Z 
01:000BABFC ?autoCMaxHeight@sciLexer@@SGHQAVsciLexerBase@@@@Z 
01:000BAC40 ?autoCMaxWidth@sciLexer@@SGXQAVsciLexerBase@@@H@Z 
01:000BAC80 ?autoCMaxWidth@sciLexer@@SGHQAVsciLexerBase@@@@Z 
01:000BACC4 ?userListShow@sciLexer@@SAXQAVsciLexerBase@@@HPB_W@Z 
01:000BAD10 ?calltipShow@sciLexer@@SAXQAVsciLexerBase@@@HPB_W@Z 
01:000BAD5C ?calltipCancel@sciLexer@@SAXQAVsciLexerBase@@@@Z 
01:000BAD88 ?calltipActive@sciLexer@@SAXQAVsciLexerBase@@@@Z 
01:000BADB4 ?calltipPosStart@sciLexer@@SAXQAVsciLexerBase@@@@Z 
01:000BADE0 ?calltipSetHlt@sciLexer@@SAXQAVsciLexerBase@@@HH@Z 
01:000BAE0C ?calltipsetBack@sciLexer@@SAXQAVsciLexerBase@@@H@Z 
01:000BAE38 ?calltipsetFore@sciLexer@@SAXQAVsciLexerBase@@@H@Z 
01:000BAE64 ?calltipForeHlt@sciLexer@@SGXQAVsciLexerBase@@@H@Z 
01:000BAEA4 ?calltipUseStyle@sciLexer@@SAXQAVsciLexerBase@@@H@Z 
01:000BAED0 ?calltipSetPosition@sciLexer@@SAXQAVsciLexerBase@@@PAUboolean_struct@_builtIn@@@Z 
01:000BAF1C ?lineDown@sciLexer@@SAXQAVsciLexerBase@@@@Z 
01:000BAF48 ?lineDownExtend@sciLexer@@SAXQAVsciLexerBase@@@@Z 
01:000BAF74 ?lineDownRectExtend@sciLexer@@SAXQAVsciLexerBase@@@@Z 
01:000BAFA0 ?lineScrollDown@sciLexer@@SAXQAVsciLexerBase@@@@Z 
01:000BAFCC ?lineUp@sciLexer@@SAXQAVsciLexerBase@@@@Z 
01:000BAFF8 ?lineUpExtend@sciLexer@@SAXQAVsciLexerBase@@@@Z 
01:000BB024 ?lineUpRectExtend@sciLexer@@SAXQAVsciLexerBase@@@@Z 
01:000BB050 ?lineScrollUp@sciLexer@@SAXQAVsciLexerBase@@@@Z 
01:000BB07C ?paraDown@sciLexer@@SAXQAVsciLexerBase@@@@Z 
01:000BB0A8 ?paraDownExtend@sciLexer@@SAXQAVsciLexerBase@@@@Z 
01:000BB0D4 ?paraUp@sciLexer@@SAXQAVsciLexerBase@@@@Z 
01:000BB100 ?paraUpExtend@sciLexer@@SAXQAVsciLexerBase@@@@Z 
01:000BB12C ?charLeft@sciLexer@@SAXQAVsciLexerBase@@@@Z 
01:000BB158 ?charLeftExtend@sciLexer@@SAXQAVsciLexerBase@@@@Z 
01:000BB184 ?charLeftRectExtend@sciLexer@@SAXQAVsciLexerBase@@@@Z 
01:000BB1B0 ?charRight@sciLexer@@SAXQAVsciLexerBase@@@@Z 
01:000BB1DC ?charRightExtend@sciLexer@@SAXQAVsciLexerBase@@@@Z 
01:000BB208 ?charRightRectExtend@sciLexer@@SAXQAVsciLexerBase@@@@Z 
01:000BB234 ?wordLeft@sciLexer@@SAXQAVsciLexerBase@@@@Z 
01:000BB260 ?wordLeftExtend@sciLexer@@SAXQAVsciLexerBase@@@@Z 
01:000BB28C ?wordRight@sciLexer@@SAXQAVsciLexerBase@@@@Z 
01:000BB2B8 ?wordRightExtend@sciLexer@@SAXQAVsciLexerBase@@@@Z 
01:000BB2E4 ?wordLeftEnd@sciLexer@@SAXQAVsciLexerBase@@@@Z 
01:000BB310 ?wordLeftEndExtend@sciLexer@@SAXQAVsciLexerBase@@@@Z 
01:000BB33C ?wordRightEnd@sciLexer@@SAXQAVsciLexerBase@@@@Z 
01:000BB368 ?wordRightEndExtend@sciLexer@@SAXQAVsciLexerBase@@@@Z 
01:000BB394 ?wordPartLeft@sciLexer@@SAXQAVsciLexerBase@@@@Z 
01:000BB3C0 ?wordPartLeftExtend@sciLexer@@SAXQAVsciLexerBase@@@@Z 
01:000BB3EC ?wordPartRight@sciLexer@@SAXQAVsciLexerBase@@@@Z 
01:000BB418 ?wordPartRightExtend@sciLexer@@SAXQAVsciLexerBase@@@@Z 
01:000BB444 ?home@sciLexer@@SAXQAVsciLexerBase@@@@Z 
01:000BB470 ?homeExtend@sciLexer@@SAXQAVsciLexerBase@@@@Z 
01:000BB49C ?homeRectExtend@sciLexer@@SAXQAVsciLexerBase@@@@Z 
01:000BB4C8 ?homeDisplay@sciLexer@@SAXQAVsciLexerBase@@@@Z 
01:000BB4F4 ?homeDisplayExtend@sciLexer@@SAXQAVsciLexerBase@@@@Z 
01:000BB520 ?homeWrap@sciLexer@@SAXQAVsciLexerBase@@@@Z 
01:000BB54C ?homeWrapExtend@sciLexer@@SAXQAVsciLexerBase@@@@Z 
01:000BB578 ?vcHome@sciLexer@@SAXQAVsciLexerBase@@@@Z 
01:000BB5A4 ?vcHomeExtend@sciLexer@@SAXQAVsciLexerBase@@@@Z 
01:000BB5D0 ?vcHomeRectExtend@sciLexer@@SAXQAVsciLexerBase@@@@Z 
01:000BB5FC ?vcHomeWrap@sciLexer@@SAXQAVsciLexerBase@@@@Z 
01:000BB628 ?vcHomeWrapExtend@sciLexer@@SAXQAVsciLexerBase@@@@Z 
01:000BB654 ?lineEnd@sciLexer@@SAXQAVsciLexerBase@@@@Z 
01:000BB680 ?lineEndExtend@sciLexer@@SAXQAVsciLexerBase@@@@Z 
01:000BB6AC ?lineEndRectExtend@sciLexer@@SAXQAVsciLexerBase@@@@Z 
01:000BB6D8 ?lineEndDisplay@sciLexer@@SAXQAVsciLexerBase@@@@Z 
01:000BB704 ?lineEndDisplayExtend@sciLexer@@SAXQAVsciLexerBase@@@@Z 
01:000BB730 ?lineEndWrap@sciLexer@@SAXQAVsciLexerBase@@@@Z 
01:000BB75C ?lineEndWrapExtend@sciLexer@@SAXQAVsciLexerBase@@@@Z 
01:000BB788 ?documentStart@sciLexer@@SAXQAVsciLexerBase@@@@Z 
01:000BB7B4 ?documentStartExtend@sciLexer@@SAXQAVsciLexerBase@@@@Z 
01:000BB7E0 ?documentEnd@sciLexer@@SAXQAVsciLexerBase@@@@Z 
01:000BB80C ?documentEndExtend@sciLexer@@SAXQAVsciLexerBase@@@@Z 
01:000BB838 ?pageUp@sciLexer@@SAXQAVsciLexerBase@@@@Z 
01:000BB864 ?pageUpExtend@sciLexer@@SAXQAVsciLexerBase@@@@Z 
01:000BB890 ?pageUpRectExtend@sciLexer@@SAXQAVsciLexerBase@@@@Z 
01:000BB8BC ?pageDown@sciLexer@@SAXQAVsciLexerBase@@@@Z 
01:000BB8E8 ?pageDownExtend@sciLexer@@SAXQAVsciLexerBase@@@@Z 
01:000BB914 ?pageDownRectExtend@sciLexer@@SAXQAVsciLexerBase@@@@Z 
01:000BB940 ?stutteredPageUp@sciLexer@@SAXQAVsciLexerBase@@@@Z 
01:000BB96C ?stutteredPageUpExtend@sciLexer@@SAXQAVsciLexerBase@@@@Z 
01:000BB998 ?stutteredPageDown@sciLexer@@SAXQAVsciLexerBase@@@@Z 
01:000BB9C4 ?stutteredPageDownExtend@sciLexer@@SAXQAVsciLexerBase@@@@Z 
01:000BB9F0 ?deleteBack@sciLexer@@SAXQAVsciLexerBase@@@@Z 
01:000BBA1C ?deleteBackNotLine@sciLexer@@SAXQAVsciLexerBase@@@@Z 
01:000BBA48 ?delWordLeft@sciLexer@@SAXQAVsciLexerBase@@@@Z 
01:000BBA74 ?delWordRight@sciLexer@@SAXQAVsciLexerBase@@@@Z 
01:000BBAA0 ?delWordRightEnd@sciLexer@@SAXQAVsciLexerBase@@@@Z 
01:000BBACC ?delLineLeft@sciLexer@@SAXQAVsciLexerBase@@@@Z 
01:000BBAF8 ?delLineRight@sciLexer@@SAXQAVsciLexerBase@@@@Z 
01:000BBB24 ?lineDelete@sciLexer@@SAXQAVsciLexerBase@@@@Z 
01:000BBB50 ?lineCut@sciLexer@@SAXQAVsciLexerBase@@@@Z 
01:000BBB7C ?lineCopy@sciLexer@@SAXQAVsciLexerBase@@@@Z 
01:000BBBA8 ?lineTranspose@sciLexer@@SAXQAVsciLexerBase@@@@Z 
01:000BBBD4 ?lineDuplicate@sciLexer@@SAXQAVsciLexerBase@@@@Z 
01:000BBC00 ?lowerCase@sciLexer@@SAXQAVsciLexerBase@@@@Z 
01:000BBC2C ?upperCase@sciLexer@@SAXQAVsciLexerBase@@@@Z 
01:000BBC58 ?cancel@sciLexer@@SAXQAVsciLexerBase@@@@Z 
01:000BBC84 ?editToggleOvertype@sciLexer@@SAXQAVsciLexerBase@@@@Z 
01:000BBCB0 ?newline@sciLexer@@SAXQAVsciLexerBase@@@@Z 
01:000BBCDC ?formfeed@sciLexer@@SAXQAVsciLexerBase@@@@Z 
01:000BBD08 ?tab@sciLexer@@SAXQAVsciLexerBase@@@@Z 
01:000BBD34 ?backTab@sciLexer@@SAXQAVsciLexerBase@@@@Z 
01:000BBD60 ?selectionDuplicate@sciLexer@@SAXQAVsciLexerBase@@@@Z 
01:000BBD8C ?verticalCentreCaret@sciLexer@@SAXQAVsciLexerBase@@@@Z 
01:000BBDB8 ?assignCmdKey@sciLexer@@SAXQAVsciLexerBase@@@HH@Z 
01:000BBDE4 ?clearCmdKey@sciLexer@@SAXQAVsciLexerBase@@@H@Z 
01:000BBE10 ?clearAllCmdKeys@sciLexer@@SAXQAVsciLexerBase@@@@Z 
01:000BBE3C ?startRecord@sciLexer@@SAXQAVsciLexerBase@@@@Z 
01:000BBE68 ?stopRecord@sciLexer@@SAXQAVsciLexerBase@@@@Z 
01:000BBE94 ?formatRange@sciLexer@@SAXQAVsciLexerBase@@@PAUboolean_struct@_builtIn@@PAUsci_rangeToFormat_struct@sciLexer_native@@@Z 
01:000BBEE0 ?printMagnification@sciLexer@@SGXQAVsciLexerBase@@@H@Z 
01:000BBF20 ?printMagnification@sciLexer@@SGHQAVsciLexerBase@@@@Z 
01:000BBF64 ?printColorMode@sciLexer@@SGXQAVsciLexerBase@@@H@Z 
01:000BBFA4 ?printColorMode@sciLexer@@SGHQAVsciLexerBase@@@@Z 
01:000BBFE8 ?printWrapMode@sciLexer@@SGXQAVsciLexerBase@@@H@Z 
01:000BC028 ?printWrapMode@sciLexer@@SGHQAVsciLexerBase@@@@Z 
01:000BC06C ?_getCharacterPointer@sciLexer@@SAXQAVsciLexerBase@@@PAPAX@Z 
01:000BC098 ?_getRangePointer@sciLexer@@SAXQAVsciLexerBase@@@HHPAPAX@Z 
01:000BC0C4 ?_getGapPosition@sciLexer@@SAXQAVsciLexerBase@@@PAPAX@Z 
01:000BC0F0 ?docPointer@sciLexer@@SGPBUdocument@@QAVsciLexerBase@@@@Z 
01:000BC134 ?docPointer@sciLexer@@SGXQAVsciLexerBase@@@PBUdocument@@@Z 
01:000BC174 ?createDocument@sciLexer@@SAXQAVsciLexerBase@@@@Z 
01:000BC1A0 ?addrefDocument@sciLexer@@SAXQAVsciLexerBase@@@PBUdocument@@@Z 
01:000BC1CC ?releaseDocument@sciLexer@@SAXQAVsciLexerBase@@@PBUdocument@@@Z 
01:000BC1F8 ?visibleFromDocLine@sciLexer@@SAXQAVsciLexerBase@@@H@Z 
01:000BC224 ?docLineFromVisible@sciLexer@@SAXQAVsciLexerBase@@@H@Z 
01:000BC250 ?showLines@sciLexer@@SAXQAVsciLexerBase@@@PBUlineNumber@@1@Z 
01:000BC2B4 ?hideLines@sciLexer@@SAXQAVsciLexerBase@@@PBUlineNumber@@1@Z 
01:000BC318 ?isLineVisible@sciLexer@@SAXQAVsciLexerBase@@@PBUlineNumber@@@Z 
01:000BC378 ?isAllLinesVisible@sciLexer@@SGPAUboolean_struct@_builtIn@@QAVsciLexerBase@@@@Z 
01:000BC3D0 ?setFoldLevel@sciLexer@@SAXQAVsciLexerBase@@@PBUlineNumber@@H@Z 
01:000BC41C ?_getFoldLevel@sciLexer@@SAXQAVsciLexerBase@@@PBUlineNumber@@PAH@Z 
01:000BC468 ?foldFlags@sciLexer@@SGXQAVsciLexerBase@@@H@Z 
01:000BC4A8 ?_getLastChild@sciLexer@@SAXQAVsciLexerBase@@@HHAAUlineNumber@@@Z 
01:000BC4F8 ?_getFoldParent@sciLexer@@SAXQAVsciLexerBase@@@HAAUlineNumber@@@Z 
01:000BC548 ?toggleFold@sciLexer@@SAXQAVsciLexerBase@@@PBUlineNumber@@@Z 
01:000BC594 ?setFoldExpanded@sciLexer@@SAXQAVsciLexerBase@@@PBUlineNumber@@PAUboolean_struct@_builtIn@@@Z 
01:000BC5F8 ?_getFoldExpanded@sciLexer@@SAXQAVsciLexerBase@@@PBUlineNumber@@PAPAUboolean_struct@_builtIn@@@Z 
01:000BC65C ?contractedFoldNext@sciLexer@@SAXQAVsciLexerBase@@@PBUlineNumber@@@Z 
01:000BC6A8 ?ensureVisible@sciLexer@@SAXQAVsciLexerBase@@@PBUlineNumber@@@Z 
01:000BC6F4 ?ensureVisibleEnforcePolicy@sciLexer@@SAXQAVsciLexerBase@@@PBUlineNumber@@@Z 
01:000BC740 ?wrapMode@sciLexer@@SGXQAVsciLexerBase@@@H@Z 
01:000BC780 ?wrapMode@sciLexer@@SGHQAVsciLexerBase@@@@Z 
01:000BC7C4 ?wrapvisualFlags@sciLexer@@SGXQAVsciLexerBase@@@H@Z 
01:000BC804 ?wrapvisualFlags@sciLexer@@SGHQAVsciLexerBase@@@@Z 
01:000BC848 ?wrapvisualFlagsLocation@sciLexer@@SGXQAVsciLexerBase@@@H@Z 
01:000BC888 ?wrapvisualFlagsLocation@sciLexer@@SGHQAVsciLexerBase@@@@Z 
01:000BC8CC ?wrapIndentMode@sciLexer@@SGXQAVsciLexerBase@@@H@Z 
01:000BC90C ?wrapIndentMode@sciLexer@@SGHQAVsciLexerBase@@@@Z 
01:000BC950 ?wrapStartIndent@sciLexer@@SGXQAVsciLexerBase@@@H@Z 
01:000BC990 ?wrapStartIndent@sciLexer@@SGHQAVsciLexerBase@@@@Z 
01:000BC9D4 ?layoutcache@sciLexer@@SGXQAVsciLexerBase@@@H@Z 
01:000BCA14 ?layoutcache@sciLexer@@SGHQAVsciLexerBase@@@@Z 
01:000BCA58 ?positionCache@sciLexer@@SGXQAVsciLexerBase@@@H@Z 
01:000BCA98 ?positionCache@sciLexer@@SGHQAVsciLexerBase@@@@Z 
01:000BCADC ?linesSplit@sciLexer@@SAXQAVsciLexerBase@@@H@Z 
01:000BCB08 ?linesJoin@sciLexer@@SAXQAVsciLexerBase@@@@Z 
01:000BCB34 ?wrapCount@sciLexer@@SAXQAVsciLexerBase@@@H@Z 
01:000BCB60 ?zoomIn@sciLexer@@SAXQAVsciLexerBase@@@@Z 
01:000BCB8C ?zoomOut@sciLexer@@SAXQAVsciLexerBase@@@@Z 
01:000BCBB8 ?zoom@sciLexer@@SGXQAVsciLexerBase@@@H@Z 
01:000BCBF8 ?zoom@sciLexer@@SGHQAVsciLexerBase@@@@Z 
01:000BCC3C ?edgeMode@sciLexer@@SGXQAVsciLexerBase@@@H@Z 
01:000BCC7C ?edgeMode@sciLexer@@SGHQAVsciLexerBase@@@@Z 
01:000BCCC0 ?edgeColumn@sciLexer@@SGXQAVsciLexerBase@@@H@Z 
01:000BCD00 ?edgeColumn@sciLexer@@SGHQAVsciLexerBase@@@@Z 
01:000BCD44 ?edgeColor@sciLexer@@SGXQAVsciLexerBase@@@H@Z 
01:000BCD84 ?edgeColor@sciLexer@@SGHQAVsciLexerBase@@@@Z 
01:000BCDC8 ?lexer@sciLexer@@SGXQAVsciLexerBase@@@H@Z 
01:000BCE08 ?lexer@sciLexer@@SGHQAVsciLexerBase@@@@Z 
01:000BCE4C ?lexerLanguage@sciLexer@@SGXQAVsciLexerBase@@@PB_W@Z 
01:000BCEA0 ?lexerLanguage@sciLexer@@SGPB_WQAVsciLexerBase@@@@Z 
01:000BCF04 ?loadLexerLibrary@sciLexer@@SAXQAVsciLexerBase@@@PB_W@Z 
01:000BCF50 ?colorise@sciLexer@@SAXQAVsciLexerBase@@@HH@Z 
01:000BCF7C ?changeLexerState@sciLexer@@SAXQAVsciLexerBase@@@HH@Z 
01:000BCFA8 ?propertyNames@sciLexer@@SGPB_WQAVsciLexerBase@@@@Z 
01:000BD050 ?propertyType@sciLexer@@SAXQAVsciLexerBase@@@PB_W@Z 
01:000BD09C ?_describeProperty@sciLexer@@SAXQAVsciLexerBase@@@PB_WPAPB_W@Z 
01:000BD150 ?setProperty@sciLexer@@SAXQAVsciLexerBase@@@PB_W1@Z 
01:000BD1B4 ?_tryGetProperty@sciLexer@@SAXQAVsciLexerBase@@@PB_WPAPB_W@Z 
01:000BD274 ?_tryGetPropertyExpanded@sciLexer@@SAXQAVsciLexerBase@@@PB_WPAPB_W@Z 
01:000BD334 ?_getPropertyInt@sciLexer@@SAXQAVsciLexerBase@@@PB_WHPAH@Z 
01:000BD380 ?setKeywords@sciLexer@@SAXQAVsciLexerBase@@@HPB_W@Z 
01:000BD3CC ?describeKeywordSets@sciLexer@@SAXQAVsciLexerBase@@@PB_W@Z 
01:000BD418 ?styleBitsNeeded@sciLexer@@SGHQAVsciLexerBase@@@@Z 
01:000BD45C ?_dispatchWmNotify@sciLexer@@SAXQAVcontrol@@@IPAUnmhdr_struct@gui_native@@PAPAUnativeResponse_struct@window@@@Z 
01:000BD4C8 ?_tryGetNotificationHandler@sciLexer@@SAXQAV1@@IPAX@Z 
01:000BDA68 ?_notification_position@sciLexer@@SAXPAUscNotification_struct@sciLexer_native@@PAH@Z  (Idle)
01:000BDA7C ?_notification_ch@sciLexer@@SAXPAUscNotification_struct@sciLexer_native@@PAH@Z  (Idle)
01:000BDA90 ?_notification_line@sciLexer@@SAXPAUscNotification_struct@sciLexer_native@@AAUlineNumber@@@Z  (Idle)
01:000BDAA8 ?scnStyleNeeded@sciLexer@@SAXQAV1@@PAUscNotification_struct@sciLexer_native@@@Z 
01:000BDB20 ?scnCharAdded@sciLexer@@SAXQAV1@@PAUscNotification_struct@sciLexer_native@@@Z 
01:000BDB5C ?scnSavepointReached@sciLexer@@SAXQAV1@@PAUscNotification_struct@sciLexer_native@@@Z 
01:000BDB80 ?scnSavepointLeft@sciLexer@@SAXQAV1@@PAUscNotification_struct@sciLexer_native@@@Z 
01:000BDBA4 ?scnModifyAttemptRO@sciLexer@@SAXQAV1@@PAUscNotification_struct@sciLexer_native@@@Z 
01:000BDBC0 ?scnDoubleClick@sciLexer@@SAXQAV1@@PAUscNotification_struct@sciLexer_native@@@Z 
01:000BDC18 ?scnUpdateUI@sciLexer@@SAXQAV1@@PAUscNotification_struct@sciLexer_native@@@Z 
01:000BDCC0 ?scnModified@sciLexer@@SAXQAV1@@PAUscNotification_struct@sciLexer_native@@@Z 
01:000BDD90 ?_getModifyAction_nd@sciLexer@@SAXIPAUscNotification_struct@sciLexer_native@@PAPAUmodifyAction_struct@sciLexerBase@@@Z 
01:000BE388 ?_getModifyPerformed@sciLexer@@SAXIPAPAUmodifyPerformed_struct@sciLexerBase@@@Z 
01:000BE42C ?modEventMask@sciLexer@@SGXQAVsciLexerBase@@@H@Z 
01:000BE46C ?modEventMask@sciLexer@@SGHQAVsciLexerBase@@@@Z 
01:000BE4B0 ?scenSetFocus@sciLexer@@SAXQAV1@@PAUscNotification_struct@sciLexer_native@@@Z 
01:000BE4CC ?scenKillFocus@sciLexer@@SAXQAV1@@PAUscNotification_struct@sciLexer_native@@@Z 
01:000BE4E8 ?scnMacroRecord@sciLexer@@SAXQAV1@@PAUscNotification_struct@sciLexer_native@@@Z 
01:000BE530 ?scnMarginClick@sciLexer@@SAXQAV1@@PAUscNotification_struct@sciLexer_native@@@Z 
01:000BE578 ?scnNeedShown@sciLexer@@SAXQAV1@@PAUscNotification_struct@sciLexer_native@@@Z 
01:000BE5B4 ?scnPainted@sciLexer@@SAXQAV1@@PAUscNotification_struct@sciLexer_native@@@Z 
01:000BE5D0 ?scnUserListSelection@sciLexer@@SAXQAV1@@PAUscNotification_struct@sciLexer_native@@@Z 
01:000BE60C ?scnDwellStart@sciLexer@@SAXQAV1@@PAUscNotification_struct@sciLexer_native@@@Z 
01:000BE628 ?scnDwellEnd@sciLexer@@SAXQAV1@@PAUscNotification_struct@sciLexer_native@@@Z 
01:000BE644 ?scnDwellStartEnd@sciLexer@@SAXQAV1@@PAUdwellAction_struct@sciLexerBase@@PAUscNotification_struct@sciLexer_native@@@Z 
01:000BE69C ?mouseDwellTime@sciLexer@@SGXQAVsciLexerBase@@@H@Z 
01:000BE6DC ?mouseDwellTime@sciLexer@@SGHQAVsciLexerBase@@@@Z 
01:000BE720 ?scnZoom@sciLexer@@SAXQAV1@@PAUscNotification_struct@sciLexer_native@@@Z 
01:000BE73C ?scnHotspotClick@sciLexer@@SAXQAV1@@PAUscNotification_struct@sciLexer_native@@@Z 
01:000BE788 ?scnHotspotDoubleClick@sciLexer@@SAXQAV1@@PAUscNotification_struct@sciLexer_native@@@Z 
01:000BE7D8 ?scnHotspotReleaseClick@sciLexer@@SAXQAV1@@PAUscNotification_struct@sciLexer_native@@@Z 
01:000BE820 ?scnIndicatorClick@sciLexer@@SAXQAV1@@PAUscNotification_struct@sciLexer_native@@@Z 
01:000BE86C ?scnIndicatorRelease@sciLexer@@SAXQAV1@@PAUscNotification_struct@sciLexer_native@@@Z 
01:000BE8B4 ?scnCallTipClick@sciLexer@@SAXQAV1@@PAUscNotification_struct@sciLexer_native@@@Z 
01:000BE8DC ?scnAutoCSelection@sciLexer@@SAXQAV1@@PAUscNotification_struct@sciLexer_native@@@Z 
01:000BE920 ?scnAutoCCancelled@sciLexer@@SAXQAV1@@PAUscNotification_struct@sciLexer_native@@@Z 
01:000BE944 ?scnAutoCCharDeleted@sciLexer@@SAXQAV1@@PAUscNotification_struct@sciLexer_native@@@Z 
01:000BE968 ?_fromUtf8Char@sciLexer@@SAXPBUchar8@@PA_W@Z 
01:000BE984 ?_toUtf8Char@sciLexer@@SAX_WAAUchar8@@@Z 
01:000BE9A0 ?_displayFindAndReplace_modal@sciLexer@@SAXQAVsciLexerBase@@@PAPAVdialog@@@@Z 
01:000BE9D4 ?_displayIncrementalFind_modal@sciLexer@@SAXQAVsciLexerBase@@@PAPAVincrementalFindDialog@@sciLexerSupport@@@Z 
01:000BE9EC ?_displayFindAndReplace_modeless@sciLexer@@SAXQAV1@@PAPAVdialog@@@@Z  (Idle)
01:000BEA08 ?_displayFindAndReplace_modeless@sciLexer@@SAXQAV1@@PAUboolean_struct@_builtIn@@PAPAVdialog@@@@Z 
01:000BEA3C ?findPrevious@sciLexer@@SAXXZ  (Idle)
01:000BEA44 ?findNext@sciLexer@@SAXXZ  (Idle)
01:000BEA4C ?_tryGetFindAndReplace_modeless@sciLexer@@SAXPAPAVdialog@@@@Z  (Idle)
01:000BEA80 ?_displayGotoLine_modal@sciLexer@@SAXQAVsciLexerBase@@@PAPAUboolean_struct@_builtIn@@@Z 
01:000BEB54 ?_toLineNumber@sciLexer@@SAXHAAUlineNumber@@@Z 
01:000BEB80 ?_fromLineNumber@sciLexer@@SAXPBUlineNumber@@PAH@Z 
01:000BEBA8 ?_toLinePosition@sciLexer@@SAXHAAUlinePosition@@@Z 
01:000BEBD4 ?_fromLinePosition@sciLexer@@SAXPBUlinePosition@@PAH@Z 
01:000BEBFC ?_getText@sciLexer@@SAXQAVwindow@@@PAPB_W@Z 
01:000BEC14 ?_new@sciLexer@@SAXPAPAV1@@@Z  (Idle)
01:000BEC3C ?_new@sciLexer@@SAXQAVcontainerWindow@@@PAPAV1@@@Z  (Idle)
01:000BEC64 ?_object_facts_initializer@sciLexer@@SGXQAV1@@@Z 
01:000BF17C ?maintainIndentation@sciLexer@@SGXQAVsciLexerBase@@@PAUboolean_struct@_builtIn@@@Z 
01:000BF18C ?maintainIndentation@sciLexer@@SGPAUboolean_struct@_builtIn@@QAVsciLexerBase@@@@Z 
01:000BF198 ?fileExtension_visualProlog@sciLexer@@SGXPAU?$__packedList_struct@Ustring@@@@@Z  (Idle)
01:000BF1A4 ?fileExtension_visualProlog@sciLexer@@SGPAU?$__packedList_struct@Ustring@@@@XZ  (Idle)
01:000BF1AC ?fileExtension_vipGrammar@sciLexer@@SGXPAU?$__packedList_struct@Ustring@@@@@Z  (Idle)
01:000BF1B8 ?fileExtension_vipGrammar@sciLexer@@SGPAU?$__packedList_struct@Ustring@@@@XZ  (Idle)
01:000BF1C0 ?fileExtension_xml@sciLexer@@SGXPAU?$__packedList_struct@Ustring@@@@@Z  (Idle)
01:000BF1CC ?fileExtension_xml@sciLexer@@SGPAU?$__packedList_struct@Ustring@@@@XZ  (Idle)
01:000BF1D4 ?fileExtension_cpp@sciLexer@@SGXPAU?$__packedList_struct@Ustring@@@@@Z  (Idle)
01:000BF1E0 ?fileExtension_cpp@sciLexer@@SGPAU?$__packedList_struct@Ustring@@@@XZ  (Idle)
01:000BF1E8 ?fileExtension_html@sciLexer@@SGXPAU?$__packedList_struct@Ustring@@@@@Z  (Idle)
01:000BF1F4 ?fileExtension_html@sciLexer@@SGPAU?$__packedList_struct@Ustring@@@@XZ  (Idle)
01:000BF1FC ?allowReadOnlyCut@sciLexer@@SGXQAVsciLexerBase@@@PAUboolean_struct@_builtIn@@@Z 
01:000BF20C ?allowReadOnlyCut@sciLexer@@SGPAUboolean_struct@_builtIn@@QAVsciLexerBase@@@@Z 
01:000BF218 ?styleNeededEvent@sciLexer@@SGXQAVsciLexerBase@@@QAVevent2@@@QAV2@@HH@Z 
01:000BF228 ?styleNeededEvent@sciLexer@@SGQAVevent2@@@QAVsciLexerBase@@@HHQAV3@@@Z 
01:000BF234 ?charAddedEvent@sciLexer@@SGXQAVsciLexerBase@@@QAVevent1@@@QAV2@@H@Z 
01:000BF244 ?charAddedEvent@sciLexer@@SGQAVevent1@@@QAVsciLexerBase@@@HQAV3@@@Z 
01:000BF250 ?savepointEvent@sciLexer@@SGXQAVsciLexerBase@@@QAVevent1@@@QAV2@@PAUsavepointAction_struct@2@@Z 
01:000BF260 ?savepointEvent@sciLexer@@SGQAVevent1@@@QAVsciLexerBase@@@PAUsavepointAction_struct@3@QAV3@@@Z 
01:000BF26C ?modifyAttemptROEvent@sciLexer@@SGXQAVsciLexerBase@@@QAVevent0@@@QAV2@@@Z 
01:000BF27C ?modifyAttemptROEvent@sciLexer@@SGQAVevent0@@@QAVsciLexerBase@@@QAV3@@@Z 
01:000BF288 ?doubleClickEvent@sciLexer@@SGXQAVsciLexerBase@@@QAVevent2@@@QAV2@@HPBUlineNumber@@@Z 
01:000BF298 ?doubleClickEvent@sciLexer@@SGQAVevent2@@@QAVsciLexerBase@@@HPBUlineNumber@@QAV3@@@Z 
01:000BF2A4 ?updateUIEvent@sciLexer@@SGQAVevent1@@@QAVsciLexerBase@@@IQAV3@@@Z 
01:000BF2B0 ?modifiedEvent@sciLexer@@SGQAVevent5@@@QAVsciLexerBase@@@PAUmodifyAction_struct@3@PAUmodifyPerformed_struct@3@PAUboolean_struct@_builtIn@@PAU89@PAU89@QAV3@@@Z 
01:000BF2BC ?setFocusEvent@sciLexer@@SGQAVevent0@@@QAVsciLexerBase@@@QAV3@@@Z 
01:000BF2C8 ?killFocusEvent@sciLexer@@SGQAVevent0@@@QAVsciLexerBase@@@QAV3@@@Z 
01:000BF2D4 ?macroRecordEvent@sciLexer@@SGQAVevent3@@@QAVsciLexerBase@@@IPBUwParam@gui_native@@PBUlParam@5@QAV3@@@Z 
01:000BF2E0 ?marginClickEvent@sciLexer@@SGQAVevent3@@@QAVsciLexerBase@@@HHHQAV3@@@Z 
01:000BF2EC ?needShownEvent@sciLexer@@SGQAVevent2@@@QAVsciLexerBase@@@HHQAV3@@@Z 
01:000BF2F8 ?paintedEvent@sciLexer@@SGQAVevent0@@@QAVsciLexerBase@@@QAV3@@@Z 
01:000BF304 ?userListSelectionEvent@sciLexer@@SGQAVevent2@@@QAVsciLexerBase@@@PADPBUwParam@gui_native@@QAV3@@@Z 
01:000BF310 ?dwellEvent@sciLexer@@SGQAVevent4@@@QAVsciLexerBase@@@PAUdwellAction_struct@3@HHHQAV3@@@Z 
01:000BF31C ?zoomEvent@sciLexer@@SGQAVevent0@@@QAVsciLexerBase@@@QAV3@@@Z 
01:000BF328 ?hotspotActionEvent@sciLexer@@SGQAVevent1@@@QAVsciLexerBase@@@PAUhotspotAction_struct@3@QAV3@@@Z 
01:000BF334 ?indicatorActionEvent@sciLexer@@SGQAVevent1@@@QAVsciLexerBase@@@PAUindicatorAction_struct@3@QAV3@@@Z 
01:000BF340 ?callTipClickEvent@sciLexer@@SGQAVevent1@@@QAVsciLexerBase@@@HQAV3@@@Z 
01:000BF34C ?autoCEvent@sciLexer@@SGQAVevent1@@@QAVsciLexerBase@@@PAUautoCAction_struct@3@QAV3@@@Z 
01:000C2A2C sciLexer?_initObject@@@QAGXQAV1@H@Z 
01:000C2A64 ?@create_object@sciLexer@@SGQAV1@@XZ 
01:000C2A80 sciLexer?_InternalFinalizer@@@QAGXQAV1@@Z 
--- From 'Obj\controlsupport.CD1DE148.obj'
01:000C2A90 ?new@userControlSupport@@SAXQAV1@@@Z 
01:000C2B7C ?new@userControlSupport@@SAXQAV1@@QAVcontainerWindow@@@@Z 
01:000C2B98 ?_onControlNative@userControlSupport@@SAXQAV1@@QAVwindow@@@IPBUwParam@@PBUlParam@@PAPAUnativeResponse_struct@3@@Z 
01:000C2E50 ?redirectEditEvents@userControlSupport@@SAXQAV1@@QAVcontrol@@@@Z 
01:000C2E78 ?redirectTextEvents@userControlSupport@@SAXQAV1@@QAVcontrol@@@@Z 
01:000C2EA0 ?_anonymous$o0$1$getdlgcode/0nf$userControlSupport@1@SAXPAUkeyHook_struct@1@IPAI@Z 
01:000C2ED0 ?_getDlgCode@userControlSupport@@SAXQAV1@@PAI@Z 
01:000C2F18 ?_mapKeyHook@userControlSupport@@SAXPAUkeyHook_struct@1@PAI@Z 
01:000C2F60 ?show@userControlSupport@@SAXQAVwindow@@@@Z 
01:000C3164 ?onBackgroundGetFocus@userControlSupport@@SAXQAV1@@QAVwindow@@@@Z 
01:000C3184 ?_getDrawWindow@userControlSupport@@SAXQAV1@@PAPAVwindow@@@@Z 
01:000C31A8 ?setContainer@userControlSupport@@SAXQAVcontrol@@@QAVcontainerWindow@@@@Z 
01:000C3240 ?addToParentContainer@userControlSupport@@SAXQAV1@@QAVcontainerWindow@@@@Z 
01:000C3280 ?_tryGetControl@userControlSupport@@SAXQAVcontainerWindow@@@PAPAVcontrol@@@@Z 
01:000C32A4 ?_validate@userControlSupport@@SAXQAVcontrol@@@PAPAUvalidateResult_struct@2@@Z 
01:000C3314 ?_onControlEraseBackground@userControlSupport@@SAXQAV1@@QAVwindow@@@QAVwindowGDI@@@PAPAUeraseBackgroundResponse_struct@3@@Z 
01:000C331C ?setHorizontalScroll@userControlSupport@@SAXQAVcontrol@@@@Z 
01:000C3330 ?setHorizontalScroll@userControlSupport@@SAXQAVcontrol@@@PAUboolean_struct@_builtIn@@@Z 
01:000C3390 ?_getHorizontalScroll@userControlSupport@@SAXQAVcontrol@@@PAPAUboolean_struct@_builtIn@@@Z 
01:000C33A4 ?setVerticalScroll@userControlSupport@@SAXQAVcontrol@@@@Z 
01:000C33B8 ?setVerticalScroll@userControlSupport@@SAXQAVcontrol@@@PAUboolean_struct@_builtIn@@@Z 
01:000C3418 ?_getVerticalScroll@userControlSupport@@SAXQAVcontrol@@@PAPAUboolean_struct@_builtIn@@@Z 
01:000C342C ?setTransparent@userControlSupport@@SAXQAVcontrol@@@@Z 
01:000C3440 ?setTransparent@userControlSupport@@SAXQAVcontrol@@@PAUboolean_struct@_builtIn@@@Z 
01:000C34A0 ?_getTransparent@userControlSupport@@SAXQAVcontrol@@@PAPAUboolean_struct@_builtIn@@@Z 
01:000C34B4 ?setBorder@userControlSupport@@SAXQAVcontrol@@@@Z 
01:000C34C8 ?setBorder@userControlSupport@@SAXQAVcontrol@@@PAUboolean_struct@_builtIn@@@Z 
01:000C3528 ?_getBorder@userControlSupport@@SAXQAVcontrol@@@PAPAUboolean_struct@_builtIn@@@Z 
01:000C353C ?_new@userControlSupport@@SAXQAVcontainerWindow@@@PAPAV1@@@Z  (Idle)
01:000C3564 ?_new@userControlSupport@@SAXPAPAV1@@@Z  (Idle)
01:000C358C ?_object_facts_initializer@userControlSupport@@SGXQAV1@@@Z 
01:000C35C0 ?keyboardHook@userControlSupport@@SGXQAV1@@PAU?$__packedList_struct@UkeyHook@@@@@Z 
01:000C35D0 ?keyboardHook@userControlSupport@@SGPAU?$__packedList_struct@UkeyHook@@@@QAV1@@@Z 
01:000C35DC ?new@nullControlSupport@@SAXQAV1@@QAVcontainerWindow@@@@Z  (Idle)
01:000C35F8 ?new@nullControlSupport@@SAXQAV1@@@Z 
01:000C3620 ?_new@nullControlSupport@@SAXQAVcontainerWindow@@@PAPAV1@@@Z 
01:000C3648 ?_new@nullControlSupport@@SAXPAPAV1@@@Z  (Idle)
01:000C366C ?new@listControlSupport@@SAXQAV1@@QAVcontrolSite@@@QAVcontrol@@@PB_W@Z 
01:000C3708 ?localInitialize@listControlSupport@@SAXQAV1@@@Z 
01:000C372C ?initSelectAt@listControlSupport@@SAXQAV1@@@Z 
01:000C37EC ?anonymous$o0$1$setmaxdropdownrows/1np$listControlSupport@1@SAXPAUanonymous$o0$1$setmaxdropdownrows/1np$listControlSupportc_struct@1@@Z 
01:000C3910 ?setMaxDropDownRows@listControlSupport@@SAXQAVlistControl@@@I@Z 
01:000C3950 ?_getMaxDropDownRows@listControlSupport@@SAXQAVlistControl@@@PAI@Z 
01:000C3964 ?_getDroppedState@listControlSupport@@SAXQAVlistControl@@@PAPAUboolean_struct@_builtIn@@@Z 
01:000C39A4 ?addRow@listControlSupport@@SAXQAVlistControl@@@PAU?$__packedList_struct@Ustring@@@@@Z 
01:000C39CC ?addRowAt@listControlSupport@@SAXQAVlistControl@@@PBUpositiveOptional@@PAU?$__packedList_struct@Ustring@@@@@Z 
01:000C39F4 ?addRowList@listControlSupport@@SAXQAVlistControl@@@PAU?$__packedList_struct@PAU?$__packedList_struct@Ustring@@@@@@@Z 
01:000C3A1C ?addRowListAt@listControlSupport@@SAXQAVlistControl@@@PBUpositiveOptional@@PAU?$__packedList_struct@PAU?$__packedList_struct@Ustring@@@@@@@Z 
01:000C3A44 ?add@listControlSupport@@SAXQAVlistControl@@@PB_W@Z 
01:000C3A68 ?addAt@listControlSupport@@SAXQAVlistControl@@@PBUpositiveOptional@@PB_W@Z 
01:000C3A8C ?addList@listControlSupport@@SAXQAVlistControl@@@PAU?$__packedList_struct@Ustring@@@@@Z 
01:000C3B60 ?addListAt@listControlSupport@@SAXQAVlistControl@@@PBUpositiveOptional@@PAU?$__packedList_struct@Ustring@@@@@Z 
01:000C3C5C ?clearAll@listControlSupport@@SAXQAVlistControl@@@@Z 
01:000C3D3C ?delete@listControlSupport@@SAXQAVlistControl@@@PBUpositive@@@Z 
01:000C3E24 ?_getAllRows@listControlSupport@@SAXQAVlistControl@@@PAPAU?$__packedList_struct@PAPAU?$__packedList_struct@Ustring@@@@@@@Z 
01:000C3E4C ?_getAll@listControlSupport@@SAXQAVlistControl@@@PAPAU?$__packedList_struct@Ustring@@@@@Z 
01:000C3F28 ?_getCount@listControlSupport@@SAXQAVlistControl@@@PAH@Z 
01:000C3FE4 ?_getRowAt@listControlSupport@@SAXQAVlistControl@@@PBUpositive@@PAPAU?$__packedList_struct@Ustring@@@@@Z 
01:000C4014 ?_getAt@listControlSupport@@SAXQAVlistControl@@@PBUpositive@@PAPB_W@Z 
01:000C411C ?getAllSelectedRows@listControlSupport@@SAXQAVlistControl@@@PAPAU?$__packedList_struct@PAPAU?$__packedList_struct@Ustring@@@@@@PAPAU?$__packedList_struct@Upositive@@@@@Z 
01:000C4144 ?getAllSelected@listControlSupport@@SAXQAVlistControl@@@PAPAU?$__packedList_struct@Ustring@@@@PAPAU?$__packedList_struct@Upositive@@@@@Z 
01:000C41CC ?_getSelectedItems@listControlSupport@@SAXQAVlistControl@@@PAPAU?$__packedList_struct@Ustring@@@@@Z 
01:000C4250 ?_getSelectedIndices@listControlSupport@@SAXQAVlistControl@@@PAPAU?$__packedList_struct@Upositive@@@@@Z 
01:000C4404 ?_getSelectedIndices_listbox@listControlSupport@@SAXQAV1@@PAPAU?$__packedList_struct@Upositive@@@@@Z 
01:000C44B0 ?_tryGetSelectedIndex@listControlSupport@@SAXQAVlistControl@@@AAUpositive@@@Z 
01:000C4540 ?isSelectedIndex@listControlSupport@@SAXQAVlistControl@@@PBUpositive@@@Z 
01:000C45BC ?selectAt@listControlSupport@@SAXQAVlistControl@@@PBUpositive@@PAUboolean_struct@_builtIn@@@Z 
01:000C4810 ?suspend@listControlSupport@@SAXQAVlistControl@@@@Z 
01:000C4824 ?resume@listControlSupport@@SAXQAVlistControl@@@@Z 
01:000C4838 ?setRedraw@listControlSupport@@SAXQAV1@@PBUwParam@gui_native@@@Z 
01:000C4890 ?_insertListAt@listControlSupport@@SAXHPAU?$__packedList_struct@Ustring@@@@1PAPAU?$__packedList_struct@U2@@@@Z 
01:000C496C ?_deleteListItem@listControlSupport@@SAXHPAU?$__packedList_struct@Ustring@@@@PAPAU?$__packedList_struct@U2@@@@Z 
01:000C49E0 ?addSelectionChangedListener@listControlSupport@@SAXQAVlistControl@@@X@Z 
01:000C4A08 ?removeSelectionChangedListener@listControlSupport@@SAXQAVlistControl@@@X@Z 
01:000C4AD0 ?addDelayedSelectionChangedListener@listControlSupport@@SAXQAVlistControl@@@PBUpositive@@X@Z 
01:000C4B10 ?removeDelayedSelectionChangedListener@listControlSupport@@SAXQAVlistControl@@@X@Z 
01:000C4BDC ?dispatchSelectionChanged@listControlSupport@@SAXQAV1@@PAU?$__packedList_struct@Upositive@@@@1@Z 
01:000C4EAC ?onListControlTimer@listControlSupport@@SAXQAV1@@QAVwindow@@@PBUtimerHandle@@@Z 
01:000C4F9C ?addCloseUpListener@listControlSupport@@SAXQAVlistControl@@@X@Z 
01:000C4FC4 ?removeCloseUpListener@listControlSupport@@SAXQAVlistControl@@@X@Z 
01:000C508C ?dispatchCloseUp@listControlSupport@@SAXQAV1@@@Z  (Idle)
01:000C5118 ?addDropDownListener@listControlSupport@@SAXQAVlistControl@@@X@Z 
01:000C5140 ?removeDropDownListener@listControlSupport@@SAXQAVlistControl@@@X@Z 
01:000C5208 ?dispatchDropDown@listControlSupport@@SAXQAV1@@@Z  (Idle)
01:000C5294 ?dispatchEvent@listControlSupport@@SAXQAVcontrol@@@PAUcontrolInfo_struct@vpiDomains@@@Z 
01:000C5310 ?setVScroll@listControlSupport@@SAXQAVlistControl@@@@Z 
01:000C5324 ?setVScroll@listControlSupport@@SAXQAVlistControl@@@PAUboolean_struct@_builtIn@@@Z 
01:000C5350 ?_getVScroll@listControlSupport@@SAXQAVlistControl@@@PAPAUboolean_struct@_builtIn@@@Z 
01:000C536C ?setStaticScrollbar@listControlSupport@@SAXQAVlistControl@@@@Z 
01:000C5380 ?setStaticScrollbar@listControlSupport@@SAXQAVlistControl@@@PAUboolean_struct@_builtIn@@@Z 
01:000C53B4 ?_getStaticScrollbar@listControlSupport@@SAXQAVlistControl@@@PAPAUboolean_struct@_builtIn@@@Z 
01:000C53DC ?setAllowPartialRows@listControlSupport@@SAXQAVlistControl@@@@Z 
01:000C53F0 ?setAllowPartialRows@listControlSupport@@SAXQAVlistControl@@@PAUboolean_struct@_builtIn@@@Z 
01:000C5424 ?_getAllowPartialRows@listControlSupport@@SAXQAVlistControl@@@PAPAUboolean_struct@_builtIn@@@Z 
01:000C544C ?setSort@listControlSupport@@SAXQAVlistControl@@@@Z 
01:000C5460 ?setSort@listControlSupport@@SAXQAVlistControl@@@PAUboolean_struct@_builtIn@@@Z 
01:000C5494 ?_getSort@listControlSupport@@SAXQAVlistControl@@@PAPAUboolean_struct@_builtIn@@@Z 
01:000C54BC ?_split_tab_list@listControlSupport@@SAXPAU?$__packedList_struct@Ustring@@@@PAPAU?$__packedList_struct@PAPAU?$__packedList_struct@U2@@@@@@Z 
01:000C54FC ?_split_tab@listControlSupport@@SAXPB_WPAPAU?$__packedList_struct@Ustring@@@@@Z 
01:000C551C ?_concat_tab_list@listControlSupport@@SAXPAU?$__packedList_struct@PAU?$__packedList_struct@Ustring@@@@@@PAPAU?$__packedList_struct@U2@@@@Z 
01:000C555C ?_concat_tab@listControlSupport@@SAXPAU?$__packedList_struct@Ustring@@@@PAPB_W@Z 
01:000C557C ?style_disablenoscroll@listControlSupport@@SGIQAV1@@@Z 
01:000C55B4 ?style_nointegralheight@listControlSupport@@SGIQAV1@@@Z 
01:000C55EC ?style_sort@listControlSupport@@SGIQAV1@@@Z 
01:000C5620 ?msg_addstring@listControlSupport@@SGIQAV1@@@Z 
01:000C5658 ?msg_insertstring@listControlSupport@@SGIQAV1@@@Z 
01:000C5690 ?msg_resetcontent@listControlSupport@@SGIQAV1@@@Z 
01:000C56C8 ?msg_deletestring@listControlSupport@@SGIQAV1@@@Z 
01:000C5700 ?msg_getcount@listControlSupport@@SGIQAV1@@@Z 
01:000C5738 ?msg_gettextlen@listControlSupport@@SGIQAV1@@@Z 
01:000C5770 ?msg_gettext@listControlSupport@@SGIQAV1@@@Z 
01:000C57A8 ?_ifListBox@listControlSupport@@SAXQAV1@@QAVrTypeLibrary@TypeLibraries@RunTime@VIP@@PAXPAXPAPAX@Z 
01:000C57FC ?isListbox@listControlSupport@@SAXQAV1@@@Z 
01:000C582C ?_new@listControlSupport@@SAXQAVcontrolSite@@@QAVcontrol@@@PB_WPAPAV1@@@Z  (Idle)
01:000C585C ?_object_facts_initializer@listControlSupport@@SGXQAV1@@@Z 
01:000C5880 ?new@drawControlSupport@@SAXQAV1@@@Z  (Idle)
01:000C594C ?new@drawControlSupport@@SAXQAV1@@QAVcontainerWindow@@@@Z  (Idle)
01:000C5968 ?show@drawControlSupport@@SAXQAVwindow@@@@Z 
01:000C5A4C ?setContainer@drawControlSupport@@SAXQAVcontrol@@@QAVcontainerWindow@@@@Z 
01:000C5AE8 ?addToParentContainer@drawControlSupport@@SAXQAV1@@QAVcontainerWindow@@@@Z 
01:000C5B28 ?redirectEditEvents@drawControlSupport@@SAXQAV1@@QAVcontrol@@@@Z 
01:000C5B50 ?redirectTextEvents@drawControlSupport@@SAXQAV1@@QAVcontrol@@@@Z 
01:000C5B78 ?_onControlEraseBackground@drawControlSupport@@SAXQAV1@@QAVwindow@@@QAVwindowGDI@@@PAPAUeraseBackgroundResponse_struct@3@@Z 
01:000C5B80 ?_anonymous$o0$1$getdlgcode/0nf$drawControlSupport@1@SAXPAUkeyHook_struct@1@IPAI@Z 
01:000C5BB0 ?_getDlgCode@drawControlSupport@@SAXQAV1@@PAI@Z  (Idle)
01:000C5BF8 ?_mapKeyHook@drawControlSupport@@SAXPAUkeyHook_struct@1@PAI@Z 
01:000C5C40 ?_onControlNative@drawControlSupport@@SAXQAV1@@QAVwindow@@@IPBUwParam@@PBUlParam@@PAPAUnativeResponse_struct@3@@Z 
01:000C5DF0 ?setHorizontalScroll@drawControlSupport@@SAXQAVcontrol@@@@Z 
01:000C5E04 ?setHorizontalScroll@drawControlSupport@@SAXQAVcontrol@@@PAUboolean_struct@_builtIn@@@Z 
01:000C5E64 ?_getHorizontalScroll@drawControlSupport@@SAXQAVcontrol@@@PAPAUboolean_struct@_builtIn@@@Z 
01:000C5E78 ?setVerticalScroll@drawControlSupport@@SAXQAVcontrol@@@@Z 
01:000C5E8C ?setVerticalScroll@drawControlSupport@@SAXQAVcontrol@@@PAUboolean_struct@_builtIn@@@Z 
01:000C5EEC ?_getVerticalScroll@drawControlSupport@@SAXQAVcontrol@@@PAPAUboolean_struct@_builtIn@@@Z 
01:000C5F00 ?setTransparent@drawControlSupport@@SAXQAVcontrol@@@@Z 
01:000C5F14 ?setTransparent@drawControlSupport@@SAXQAVcontrol@@@PAUboolean_struct@_builtIn@@@Z 
01:000C5F74 ?_getTransparent@drawControlSupport@@SAXQAVcontrol@@@PAPAUboolean_struct@_builtIn@@@Z 
01:000C5F88 ?setBorder@drawControlSupport@@SAXQAVcontrol@@@@Z 
01:000C5F9C ?setBorder@drawControlSupport@@SAXQAVcontrol@@@PAUboolean_struct@_builtIn@@@Z 
01:000C5FFC ?_getBorder@drawControlSupport@@SAXQAVcontrol@@@PAPAUboolean_struct@_builtIn@@@Z 
01:000C6010 ?_new@drawControlSupport@@SAXQAVcontainerWindow@@@PAPAV1@@@Z  (Idle)
01:000C6038 ?_new@drawControlSupport@@SAXPAPAV1@@@Z  (Idle)
01:000C6060 ?_object_facts_initializer@drawControlSupport@@SGXQAV1@@@Z 
01:000C608C ?keyboardHook@drawControlSupport@@SGXQAV1@@PAU?$__packedList_struct@UkeyHook@@@@@Z 
01:000C609C ?keyboardHook@drawControlSupport@@SGPAU?$__packedList_struct@UkeyHook@@@@QAV1@@@Z 
01:000C60A8 ?new@controlSupport@@SAXQAV1@@QAVcontrolSite@@@QAVcontrol@@@@Z 
01:000C6174 ?newId@controlSupport@@SAXQAV1@@QAVcontrolSite@@@QAVcontrol@@@H@Z  (Idle)
01:000C619C ?dispatchEvent@controlSupport@@SAXQAV1@@PAUcontrolInfo_struct@vpiDomains@@@Z 
01:000C61A4 ?_dispatchNotification@controlSupport@@SAXQAV1@@PBUunsigned16@@PAPAUnativeResponse_struct@window@@@Z 
01:000C61B8 ?_dispatchWmNotify@controlSupport@@SAXQAV1@@IPAUnmhdr_struct@gui_native@@PAPAUnativeResponse_struct@window@@@Z 
01:000C61CC ?_getContainer@controlSupport@@SAXQAV1@@PAPAVcontainerWindow@@@@Z 
01:000C6210 ?_tryGetContainer@controlSupport@@SAXQAV1@@PAPAVcontainerWindow@@@@Z 
01:000C6234 ?setContainer@controlSupport@@SAXQAV1@@QAVcontainerWindow@@@@Z 
01:000C6344 ?resetContainer@controlSupport@@SAXQAV1@@@Z 
01:000C64C8 ?_getCtrlId@controlSupport@@SAXQAV1@@PAH@Z 
01:000C64DC ?setCtrlId@controlSupport@@SAXQAV1@@H@Z 
01:000C6524 ?setRect@controlSupport@@SAXQAV1@@PAUrct_struct@vpiDomains@@@Z 
01:000C6598 ?_getRect@controlSupport@@SAXQAV1@@PAPAUrct_struct@vpiDomains@@@Z 
01:000C65AC ?setPosition@controlSupport@@SAXQAV1@@PAUpnt_struct@vpiDomains@@@Z 
01:000C662C ?setPosition@controlSupport@@SAXQAV1@@HH@Z 
01:000C6658 ?_getPosition@controlSupport@@SAXQAV1@@PAPAUpnt_struct@vpiDomains@@@Z 
01:000C66A4 ?getPosition@controlSupport@@SAXQAV1@@PAHPAH@Z 
01:000C66D0 ?setSize@controlSupport@@SAXQAV1@@HH@Z 
01:000C6748 ?getSize@controlSupport@@SAXQAV1@@PAHPAH@Z 
01:000C6790 ?setWidth@controlSupport@@SAXQAV1@@H@Z 
01:000C67B8 ?_getWidth@controlSupport@@SAXQAV1@@PAH@Z 
01:000C67D8 ?setHeight@controlSupport@@SAXQAV1@@H@Z 
01:000C6808 ?_getHeight@controlSupport@@SAXQAV1@@PAH@Z 
01:000C6828 ?setFocus@controlSupport@@SAXQAV1@@@Z 
01:000C68CC ?isActive@controlSupport@@SAXQAV1@@@Z 
01:000C69C0 ?_getParent_nd@controlSupport@@SAXPBUwindowHandle@vpiDomains@@AAU23@@Z 
01:000C6A3C ?onControlSize@controlSupport@@SAXQAV1@@QAVwindow@@@@Z 
01:000C6A48 ?onControlMove@controlSupport@@SAXQAV1@@QAVwindow@@@@Z 
01:000C6A54 ?onDestroy@controlSupport@@SAXQAV1@@QAVwindow@@@@Z 
01:000C6A70 ?updateControlUnitRect@controlSupport@@SAXQAV1@@@Z 
01:000C6B40 ?updateLayout@controlSupport@@SAXQAV1@@@Z 
01:000C6C58 ?updateCtlLayout@controlSupport@@SAXQAVcontrol@@@PAUdockStyle_struct@2@PAUrct_struct@vpiDomains@@2@Z 
01:000C6E04 ?setTabStop@controlSupport@@SAXQAV1@@@Z 
01:000C6E18 ?setTabStop@controlSupport@@SAXQAV1@@PAUboolean_struct@_builtIn@@@Z 
01:000C6F10 ?_getTabStop@controlSupport@@SAXQAV1@@PAPAUboolean_struct@_builtIn@@@Z 
01:000C6F74 ?addValidateResponder@controlSupport@@SAXQAV1@@X@Z 
01:000C6F9C ?removeValidateResponder@controlSupport@@SAXQAV1@@X@Z 
01:000C7064 ?_validate@controlSupport@@SAXQAV1@@PAPAUvalidateResult_struct@control@@@Z 
01:000C710C ?tryValidateWithErrorDialog@controlSupport@@SAXQAV1@@@Z 
01:000C719C ?setLabel@controlSupport@@SAXQAV1@@PB_W@Z 
01:000C71B0 ?_getLabel@controlSupport@@SAXQAV1@@PAPB_W@Z 
01:000C71F4 ?tooltipText@controlSupport@@SGPAUtipText_struct@toolTip@@QAV1@@@Z 
01:000C720C ?anonymous$o0$1$tooltiptext/1np$controlSupport@1@SAXPAUanonymous$o0$1$tooltiptext/1np$controlSupportc_struct@1@@Z 
01:000C7284 ?tooltipText@controlSupport@@SGXQAV1@@PAUtipText_struct@toolTip@@@Z 
01:000C72E0 ?_findTooltip@controlSupport@@SAXQAV1@@PAPAVcontrolTooltip@@@@Z 
01:000C7364 ?setAnchors@controlSupport@@SAXQAV1@@PAU?$__packedList_struct@UanchorEdge@@@@@Z 
01:000C7420 ?dockStyle@controlSupport@@SGXQAV1@@PAUdockStyle_struct@control@@@Z 
01:000C7500 ?dockStyle@controlSupport@@SGPAUdockStyle_struct@control@@QAV1@@@Z 
01:000C7518 ?checkSizeListener@controlSupport@@SAXQAV1@@@Z 
01:000C7690 ?removeSizeListener@controlSupport@@SAXQAV1@@@Z 
01:000C771C ?resetAnchorSize@controlSupport@@SAXQAV1@@@Z 
01:000C7738 ?_tryDetermineUnitSize@controlSupport@@SAXQAVcontainerWindow@@@PAPAUtuple_struct@core@@PAHPAH@Z 
01:000C7800 ?onParentContainerSize@controlSupport@@SAXQAV1@@QAVwindow@@@@Z 
01:000C79BC ?anchorToContainer@controlSupport@@SAXQAV1@@PAUboolean_struct@_builtIn@@1PAUanchorDimension_struct@1@HHHPAHPAH@Z 
01:000C7AD0 ?_getPreviousReminder@controlSupport@@SAXQAV1@@PAUanchorDimension_struct@1@PAH@Z 
01:000C7AF8 ?fixPreviousReminder@controlSupport@@SAXQAV1@@PAUanchorDimension_struct@1@H@Z 
01:000C7B1C ?exploreAnchorList@controlSupport@@SAXPAU?$__packedList_struct@UanchorEdge@control@@@@PAUboolean_struct@_builtIn@@111PAPAU45@555@Z 
01:000C7BB0 ?_getAnchors@controlSupport@@SAXQAV1@@PAPAU?$__packedList_struct@UanchorEdge@@@@@Z 
01:000C7D00 ?_controlEraseBackground@controlSupport@@SAXQAV1@@QAVwindow@@@QAVwindowGDI@@@PAPAUeraseBackgroundResponse_struct@3@@Z 
01:000C7D70 ?controlEraseBackgroundRect@controlSupport@@SAXQAV1@@PBUhDC@gui_native@@PAUrct_struct@vpiDomains@@@Z 
01:000C7E20 ?_selectControlColorBrush@controlSupport@@SAXQAV1@@PBUhDC@gui_native@@IHAAUcontrolColorCookie@@@Z 
01:000C7EA0 ?restoreControlColorBrush@controlSupport@@SAXQAV1@@PBUhDC@gui_native@@PBUcontrolColorCookie@@@Z 
01:000C7EC0 ?setBorder@controlSupport@@SAXQAV1@@@Z 
01:000C7ED4 ?setBorder@controlSupport@@SAXQAV1@@PAUboolean_struct@_builtIn@@@Z 
01:000C7FC0 ?_getBorder@controlSupport@@SAXQAV1@@PAPAUboolean_struct@_builtIn@@@Z 
01:000C80F8 ?setTransparent@controlSupport@@SAXQAV1@@@Z 
01:000C8100 ?setTransparent@controlSupport@@SAXQAV1@@PAUboolean_struct@_builtIn@@@Z 
01:000C8108 ?_getTransparent@controlSupport@@SAXQAV1@@PAPAUboolean_struct@_builtIn@@@Z 
01:000C811C ?setHorizontalScroll@controlSupport@@SAXQAV1@@@Z 
01:000C8124 ?setHorizontalScroll@controlSupport@@SAXQAV1@@PAUboolean_struct@_builtIn@@@Z 
01:000C812C ?_getHorizontalScroll@controlSupport@@SAXQAV1@@PAPAUboolean_struct@_builtIn@@@Z 
01:000C8140 ?setVerticalScroll@controlSupport@@SAXQAV1@@@Z 
01:000C8148 ?setVerticalScroll@controlSupport@@SAXQAV1@@PAUboolean_struct@_builtIn@@@Z 
01:000C8150 ?_getVerticalScroll@controlSupport@@SAXQAV1@@PAPAUboolean_struct@_builtIn@@@Z 
01:000C8164 ?_new@controlSupport@@SAXQAVcontrolSite@@@QAVcontrol@@@PAPAV1@@@Z  (Idle)
01:000C8190 ?_newId@controlSupport@@SAXQAVcontrolSite@@@QAVcontrol@@@HPAPAV1@@@Z  (Idle)
01:000C81C0 ?_object_facts_initializer@controlSupport@@SGXQAV1@@@Z 
01:000C8208 ?publicSelf@controlSupport@@SGXQAV1@@QAVcontrol@@@@Z 
01:000C8218 ?publicSelf@controlSupport@@SGQAVcontrol@@@QAV1@@@Z 
01:000C8224 ?toolTip@controlSupport@@SGXQAV1@@PAUoptional_struct@core@@QAVcontrolTooltip@@@@Z 
01:000C8234 ?toolTip@controlSupport@@SGPAUoptional_struct@core@@QAVcontrolTooltip@@@QAV1@@@Z 
01:000C8240 ?new@commonControlSupport@@SAXQAV1@@QAVcontrolSite@@@QAVcontrol@@@PB_W@Z 
01:000C8264 ?_createWindowEx@commonControlSupport@@SAXQAV1@@AAUhwnd@@@Z 
01:000C83EC ?show@commonControlSupport@@SAXQAVwindow@@@@Z 
01:000C8414 ?_sendMessageIfShown@commonControlSupport@@SAXQAV1@@IPBUwParam@gui_native@@PBUlParam@4@AAUlResult@4@@Z 
01:000C8478 ?setBorder@commonControlSupport@@SAXQAVcontrol@@@@Z 
01:000C848C ?setBorder@commonControlSupport@@SAXQAVcontrol@@@PAUboolean_struct@_builtIn@@@Z 
01:000C84B8 ?_getBorder@commonControlSupport@@SAXQAVcontrol@@@PAPAUboolean_struct@_builtIn@@@Z 
01:000C84D4 ?setTabStop@commonControlSupport@@SAXQAVcontrol@@@PAUboolean_struct@_builtIn@@@Z 
01:000C8500 ?_getTabStop@commonControlSupport@@SAXQAVcontrol@@@PAPAUboolean_struct@_builtIn@@@Z 
01:000C851C ?setVisible@commonControlSupport@@SAXQAVwindow@@@@Z 
01:000C8530 ?setVisible@commonControlSupport@@SAXQAVwindow@@@PAUboolean_struct@_builtIn@@@Z 
01:000C85D8 ?_getVisible@commonControlSupport@@SAXQAVwindow@@@PAPAUboolean_struct@_builtIn@@@Z 
01:000C85F4 ?setEnabled@commonControlSupport@@SAXQAVwindow@@@@Z 
01:000C8608 ?setEnabled@commonControlSupport@@SAXQAVwindow@@@PAUboolean_struct@_builtIn@@@Z 
01:000C8690 ?_getEnabled@commonControlSupport@@SAXQAVwindow@@@PAPAUboolean_struct@_builtIn@@@Z 
01:000C86BC ?_dispatchNotification@commonControlSupport@@SAXQAVcontrol@@@PBUunsigned16@@PAPAUnativeResponse_struct@window@@@Z 
01:000C86F4 ?setOuterRectAlignBaseline@commonControlSupport@@SAXQAV1@@PAUrct_struct@vpiDomains@@PAUboolean_struct@_builtIn@@HH@Z 
01:000C8728 ?_rectAlignBaseline@commonControlSupport@@SAXQAV1@@PAUrct_struct@vpiDomains@@PAUboolean_struct@_builtIn@@HHPAPAU34@@Z 
01:000C87C8 ?style@commonControlSupport@@SGXQAVstyleFlagsEx@@@I@Z 
01:000C8860 ?style@commonControlSupport@@SGIQAVstyleFlagsEx@@@@Z 
01:000C88CC ?styleEx@commonControlSupport@@SGXQAVstyleFlagsEx@@@I@Z 
01:000C894C ?styleEx@commonControlSupport@@SGIQAVstyleFlagsEx@@@@Z 
01:000C89B8 ?setStyle@commonControlSupport@@SAXQAVstyleFlagsEx@@@I@Z 
01:000C89E4 ?resetStyle@commonControlSupport@@SAXQAVstyleFlagsEx@@@I@Z 
01:000C8A18 ?setStyleMasked@commonControlSupport@@SAXQAVstyleFlagsEx@@@II@Z 
01:000C8A58 ?setStyleEx@commonControlSupport@@SAXQAVstyleFlagsEx@@@I@Z 
01:000C8A84 ?resetStyleEx@commonControlSupport@@SAXQAVstyleFlagsEx@@@I@Z 
01:000C8AB8 ?_getStyleBoolean@commonControlSupport@@SAXQAVstyleFlagsEx@@@IPAPAUboolean_struct@_builtIn@@@Z 
01:000C8B08 ?setStyleBoolean@commonControlSupport@@SAXQAVstyleFlagsEx@@@IPAUboolean_struct@_builtIn@@@Z 
01:000C8B24 ?_getStyleExBoolean@commonControlSupport@@SAXQAVstyleFlagsEx@@@IPAPAUboolean_struct@_builtIn@@@Z 
01:000C8B74 ?setStyleExBoolean@commonControlSupport@@SAXQAVstyleFlagsEx@@@IPAUboolean_struct@_builtIn@@@Z 
01:000C8B90 ?setWsflags@commonControlSupport@@SAXQAVstyleFlagsEx@@@PAU?$__packedList_struct@Uwsflag@@@@@Z 
01:000C8BE0 ?resetWsflags@commonControlSupport@@SAXQAVstyleFlagsEx@@@PAU?$__packedList_struct@Uwsflag@@@@@Z 
01:000C8C30 ?setWsflag@commonControlSupport@@SAXQAVstyleFlagsEx@@@PBUwsflag@@@Z 
01:000C8CBC ?resetWsflag@commonControlSupport@@SAXQAVstyleFlagsEx@@@PBUwsflag@@@Z 
01:000C8D48 ?mapStyle@commonControlSupport@@SAXPBUwsflag@@PAI@Z 
01:000C8EA4 ?mapStyleEx@commonControlSupport@@SAXPBUwsflag@@PAI@Z 
01:000C8FE4 ?_new@commonControlSupport@@SAXQAVcontrolSite@@@QAVcontrol@@@PB_WPAPAV1@@@Z  (Idle)
01:000C9014 ?_object_facts_initializer@commonControlSupport@@SGXQAV1@@@Z 
01:000C9034 ?windowClass@commonControlSupport@@SGPB_WQAV1@@@Z 
01:000CB634 userControlSupport?_initObject@@@QAGXQAV1@H@Z 
01:000CB694 ?@create_object@userControlSupport@@SGQAV1@@XZ 
01:000CB6B0 userControlSupport?_InternalFinalizer@@@QAGXQAV1@@Z 
01:000CD964 nullControlSupport?_initObject@@@QAGXQAV1@H@Z 
01:000CD988 ?@create_object@nullControlSupport@@SGQAV1@@XZ 
01:000CD9A4 nullControlSupport?_InternalFinalizer@@@QAGXQAV1@@Z 
01:000CFF88 listControlSupport?_initObject@@@QAGXQAV1@H@Z 
01:000CFFCC ?@create_object@listControlSupport@@SGQAV1@@XZ 
01:000CFFE8 listControlSupport?_InternalFinalizer@@@QAGXQAV1@@Z 
01:000D15EC drawControlSupport?_initObject@@@QAGXQAV1@H@Z 
01:000D1640 ?@create_object@drawControlSupport@@SGQAV1@@XZ 
01:000D165C drawControlSupport?_InternalFinalizer@@@QAGXQAV1@@Z 
01:000D167C controlSupport?_initObject@@@QAGXQAV1@H@Z 
01:000D16A0 ?@create_object@controlSupport@@SGQAV1@@XZ 
01:000D16BC controlSupport?_InternalFinalizer@@@QAGXQAV1@@Z 
01:000D2BF4 commonControlSupport?_initObject@@@QAGXQAV1@H@Z 
01:000D2C40 ?@create_object@commonControlSupport@@SGQAV1@@XZ 
01:000D2C5C commonControlSupport?_InternalFinalizer@@@QAGXQAV1@@Z 
--- From 'Obj\varm.637998CB.obj'
01:000D2C80 ?new@varM_unsigned@@SAXQAV1@@@Z  (Idle)
01:000D2C94 ?new@varM_unsigned@@SAXQAV1@@I@Z 
01:000D2CBC ?newModel_unary@varM_unsigned@@SAXQAV1@@QAVvarM@@@IX@Z  (Idle)
01:000D2CEC ?newModel_binary@varM_unsigned@@SAXQAV1@@QAVvarM@@@I1X@Z  (Idle)
01:000D2D24 ?_add@varM_unsigned@@SAXQAV1@@IPAI@Z 
01:000D2D54 ?_sub@varM_unsigned@@SAXQAV1@@IPAI@Z 
01:000D2D84 ?_max@varM_unsigned@@SAXQAV1@@IPAI@Z 
01:000D2DC0 ?_min@varM_unsigned@@SAXQAV1@@IPAI@Z 
01:000D2DFC ?_inc@varM_unsigned@@SAXQAV1@@PAI@Z 
01:000D2E38 ?_dec@varM_unsigned@@SAXQAV1@@PAI@Z 
01:000D2E74 ?_setF@varM_unsigned@@SAXQAV1@@IPAI@Z 
01:000D2E88 ?add@varM_unsigned@@SAXQAV1@@I@Z 
01:000D2EA8 ?sub@varM_unsigned@@SAXQAV1@@I@Z 
01:000D2EC8 ?max@varM_unsigned@@SAXQAV1@@I@Z 
01:000D2EE8 ?min@varM_unsigned@@SAXQAV1@@I@Z 
01:000D2F08 ?inc@varM_unsigned@@SAXQAV1@@@Z 
01:000D2F24 ?dec@varM_unsigned@@SAXQAV1@@@Z 
01:000D2F40 ?_new@varM_unsigned@@SAXPAPAV1@@@Z 
01:000D2F68 ?_new@varM_unsigned@@SAXIPAPAV1@@@Z  (Idle)
01:000D2F90 ?_newModel_unary@varM_unsigned@@SAXQAVvarM@@@IXPAPAV1@@@Z  (Idle)
01:000D2FBC ?_newModel_binary@varM_unsigned@@SAXQAVvarM@@@I0XPAPAV1@@@Z  (Idle)
01:000D2FEC ?new@varM_reference@@SAXQAV1@@PAXQAVrTypeLibrary@TypeLibraries@RunTime@VIP@@PAUreference_struct@1/1@PAX@Z  (Idle)
01:000D3000 ?_value@varM_reference@@SAXQAVvarM@@@PAXPAPAX@Z 
01:000D3018 ?value@varM_reference@@SAXQAVvarM@@@PAXPAX@Z 
01:000D3060 ?modified@varM_reference@@SGQAVevent0@@@PBUhandle@@QAVvarM@@@PAX@Z 
01:000D3078 ?_new@varM_reference@@SAXQAVrTypeLibrary@TypeLibraries@RunTime@VIP@@PAUreference_struct@1/1@PAXPAPAVvarM@@@PAPAX@Z  (Idle)
01:000D30A8 ?_object_typelib_initializer@varM_reference@@SGXQAV1@@PAXQAVrTypeLibrary@TypeLibraries@RunTime@VIP@@@Z 
01:000D30C0 ?new@varM_optional@@SAXQAV1@@PAXQAVrTypeLibrary@TypeLibraries@RunTime@VIP@@@Z  (Idle)
01:000D3104 ?new@varM_optional@@SAXQAV1@@PAXQAVrTypeLibrary@TypeLibraries@RunTime@VIP@@PAX@Z  (Idle)
01:000D3158 ?_tryGet@varM_optional@@SAXQAV1@@PAXPAPAX@Z 
01:000D31A0 ?set@varM_optional@@SAXQAV1@@PAXPAX@Z 
01:000D31C8 ?unset@varM_optional@@SAXQAV1@@PAX@Z 
01:000D31DC ?_new@varM_optional@@SAXQAVrTypeLibrary@TypeLibraries@RunTime@VIP@@PAPAV1@@PAPAX@Z  (Idle)
01:000D3208 ?_new@varM_optional@@SAXQAVrTypeLibrary@TypeLibraries@RunTime@VIP@@PAXPAPAV1@@PAPAX@Z  (Idle)
01:000D3238 ?_object_typelib_initializer@varM_optional@@SGXQAV1@@PAXQAVrTypeLibrary@TypeLibraries@RunTime@VIP@@@Z 
01:000D3250 ?_mk_tl_0_varM{@Term}$imp$@varM_optional@@SGQAVrTypeLibrary@TypeLibraries@RunTime@VIP@@QAV1@@PAX@Z 
01:000D328C ?new@varM_integer@@SAXQAV1@@@Z  (Idle)
01:000D32A0 ?new@varM_integer@@SAXQAV1@@H@Z 
01:000D32C8 ?newModel_unary@varM_integer@@SAXQAV1@@QAVvarM@@@HX@Z  (Idle)
01:000D32F8 ?newModel_binary@varM_integer@@SAXQAV1@@QAVvarM@@@H1X@Z  (Idle)
01:000D3330 ?_add@varM_integer@@SAXQAV1@@HPAH@Z 
01:000D335C ?_sub@varM_integer@@SAXQAV1@@HPAH@Z 
01:000D3388 ?_max@varM_integer@@SAXQAV1@@HPAH@Z 
01:000D33C4 ?_min@varM_integer@@SAXQAV1@@HPAH@Z 
01:000D3400 ?_inc@varM_integer@@SAXQAV1@@PAH@Z 
01:000D3438 ?_dec@varM_integer@@SAXQAV1@@PAH@Z 
01:000D3470 ?_setF@varM_integer@@SAXQAV1@@HPAH@Z 
01:000D3484 ?add@varM_integer@@SAXQAV1@@H@Z 
01:000D34A4 ?sub@varM_integer@@SAXQAV1@@H@Z 
01:000D34C4 ?max@varM_integer@@SAXQAV1@@H@Z 
01:000D34E4 ?min@varM_integer@@SAXQAV1@@H@Z 
01:000D3504 ?inc@varM_integer@@SAXQAV1@@@Z 
01:000D3520 ?dec@varM_integer@@SAXQAV1@@@Z 
--- From 'Obj\arraym_inline.0830C9D1.obj'
01:000D353C ?_new@varM_integer@@SAXPAPAV1@@@Z 
--- From 'Obj\varm.637998CB.obj'
01:000D3564 ?_new@varM_integer@@SAXHPAPAV1@@@Z  (Idle)
01:000D358C ?_newModel_unary@varM_integer@@SAXQAVvarM@@@HXPAPAV1@@@Z  (Idle)
01:000D35B8 ?_newModel_binary@varM_integer@@SAXQAVvarM@@@H0XPAPAV1@@@Z  (Idle)
01:000D35E8 ?new@varM_boolean@@SAXQAV1@@@Z  (Idle)
01:000D35FC ?new@varM_boolean@@SAXQAV1@@PAUboolean_struct@_builtIn@@@Z 
01:000D3624 ?newModel_and@varM_boolean@@SAXQAV1@@QAVvarM@@@PAUboolean_struct@_builtIn@@1@Z  (Idle)
01:000D365C ?newModel_or@varM_boolean@@SAXQAV1@@QAVvarM@@@PAUboolean_struct@_builtIn@@1@Z  (Idle)
01:000D3694 ?newModel_xor@varM_boolean@@SAXQAV1@@QAVvarM@@@PAUboolean_struct@_builtIn@@1@Z  (Idle)
01:000D36CC ?newModel_not@varM_boolean@@SAXQAV1@@QAVvarM@@@PAUboolean_struct@_builtIn@@@Z  (Idle)
01:000D36FC ?and_@varM_boolean@@SAXQAV1@@PAUboolean_struct@_builtIn@@@Z 
01:000D371C ?or_@varM_boolean@@SAXQAV1@@PAUboolean_struct@_builtIn@@@Z 
01:000D373C ?xor@varM_boolean@@SAXQAV1@@PAUboolean_struct@_builtIn@@@Z 
01:000D3780 ?not_@varM_boolean@@SAXQAV1@@@Z 
01:000D37C0 ?isTrue@varM_boolean@@SAXQAV1@@@Z 
01:000D37E8 ?isFalse@varM_boolean@@SAXQAV1@@@Z 
01:000D3810 ?setTrue@varM_boolean@@SAXQAV1@@@Z 
01:000D3824 ?setFalse@varM_boolean@@SAXQAV1@@@Z 
01:000D3838 ?_new@varM_boolean@@SAXPAPAV1@@@Z  (Idle)
01:000D3860 ?_new@varM_boolean@@SAXPAUboolean_struct@_builtIn@@PAPAV1@@@Z  (Idle)
01:000D3888 ?_newModel_and@varM_boolean@@SAXQAVvarM@@@PAUboolean_struct@_builtIn@@0PAPAV1@@@Z  (Idle)
01:000D38B4 ?_newModel_or@varM_boolean@@SAXQAVvarM@@@PAUboolean_struct@_builtIn@@0PAPAV1@@@Z  (Idle)
01:000D38E0 ?_newModel_xor@varM_boolean@@SAXQAVvarM@@@PAUboolean_struct@_builtIn@@0PAPAV1@@@Z  (Idle)
01:000D390C ?_newModel_not@varM_boolean@@SAXQAVvarM@@@PAUboolean_struct@_builtIn@@PAPAV1@@@Z  (Idle)
01:000D3934 ?new@varM@@SAXQAV1@@PAXQAVrTypeLibrary@TypeLibraries@RunTime@VIP@@PAX@Z 
01:000D3948 ?anonymous$o0$1$newmodel_unary/2np$varM{@Term}@varM@@SAXPAUanonymous$o0$1$newmodel_unary/2np$varM{@Term}c_struct@1/1@QAV1@@PAX@Z 
01:000D39A4 ?anonymous$o0$2$newmodel_unary/2np$varM{@Term}@varM@@SAXPAUanonymous$o0$2$newmodel_unary/2np$varM{@Term}c_struct@1/1@PBUhandle@@@Z 
01:000D3A08 ?newModel_unary@varM@@SAXQAV1@@PAXQAVrTypeLibrary@TypeLibraries@RunTime@VIP@@0X@Z 
01:000D3B10 ?anonymous$o0$1$newmodel_binary/3np$varM{@Term}@varM@@SAXPAUanonymous$o0$1$newmodel_binary/3np$varM{@Term}c_struct@1/1@QAV1@@PAX@Z 
01:000D3B88 ?anonymous$o0$2$newmodel_binary/3np$varM{@Term}@varM@@SAXPAUanonymous$o0$2$newmodel_binary/3np$varM{@Term}c_struct@1/1@PBUhandle@@@Z 
01:000D3BF4 ?newModel_binary@varM@@SAXQAV1@@PAXQAVrTypeLibrary@TypeLibraries@RunTime@VIP@@00X@Z 
01:000D3D50 ?modified@varM@@SGQAVevent0@@@PBUhandle@@QAV1@@PAX@Z 
01:000D3DBC ?_value@varM@@SAXQAV1@@PAXPAPAX@Z 
01:000D3DD0 ?value@varM@@SAXQAV1@@PAXPAX@Z 
01:000D3DF8 ?plainSet@varM@@SAXQAV1@@PAXPAX@Z 
01:000D3E0C ?listenerSet@varM@@SAXQAV1@@PAXPAX@Z 
01:000D3E54 ?_new@varM@@SAXQAVrTypeLibrary@TypeLibraries@RunTime@VIP@@PAXPAPAV1@@PAPAX@Z 
01:000D3E84 ?_newModel_unary@varM@@SAXQAVrTypeLibrary@TypeLibraries@RunTime@VIP@@QAV1@@PAXXPAPAV1@@PAPAX@Z  (Idle)
01:000D3EBC ?_newModel_binary@varM@@SAXQAVrTypeLibrary@TypeLibraries@RunTime@VIP@@QAV1@@PAX1XPAPAV1@@PAPAX@Z  (Idle)
01:000D3EFC ?_object_typelib_initializer@varM@@SGXQAV1@@PAXQAVrTypeLibrary@TypeLibraries@RunTime@VIP@@@Z 
01:000D3F14 ?_object_facts_initializer@varM@@SGXQAV1@@PAX@Z 
01:000D3FDC varM_unsigned?_initObject@@@QAGXQAV1@H@Z 
01:000D400C ?@create_object@varM_unsigned@@SGQAV1@@XZ 
01:000D4028 varM_unsigned?_InternalFinalizer@@@QAGXQAV1@@Z 
01:000D4040 varM_reference{@Term}?_initObject@@@QAGXQAV1@H@Z 
01:000D4064 ?@create_object@varM_reference@@SGQAV1@@PAXQAVrTypeLibrary@TypeLibraries@RunTime@VIP@@@Z 
01:000D4088 varM_reference{@Term}?_InternalFinalizer@@@QAGXQAV1@@Z 
01:000D40FC varM_optional{@Term}?_initObject@@@QAGXQAV1@H@Z 
01:000D4148 ?@create_object@varM_optional@@SGQAV1@@PAXQAVrTypeLibrary@TypeLibraries@RunTime@VIP@@@Z 
01:000D416C varM_optional{@Term}?_InternalFinalizer@@@QAGXQAV1@@Z 
01:000D4204 varM_integer?_initObject@@@QAGXQAV1@H@Z 
01:000D4234 ?@create_object@varM_integer@@SGQAV1@@XZ 
01:000D4250 varM_integer?_InternalFinalizer@@@QAGXQAV1@@Z 
01:000D42E8 varM_boolean?_initObject@@@QAGXQAV1@H@Z 
01:000D4318 ?@create_object@varM_boolean@@SGQAV1@@XZ 
01:000D4334 varM_boolean?_InternalFinalizer@@@QAGXQAV1@@Z 
01:000D434C varM{@Term}?_initObject@@@QAGXQAV1@H@Z 
01:000D4380 ?@create_object@varM@@SGQAV1@@PAXQAVrTypeLibrary@TypeLibraries@RunTime@VIP@@@Z 
01:000D43A4 varM{@Term}?_InternalFinalizer@@@QAGXQAV1@@Z 
--- From 'Obj\arraym_inline.0830C9D1.obj'
01:000D43B0 ?newAtomic@arrayM_inlineValue@@SAXQAV1@@PAXQAVrTypeLibrary@TypeLibraries@RunTime@VIP@@PBUpositive@@@Z  (Idle)
01:000D43C4 ?newNonAtomic@arrayM_inlineValue@@SAXQAV1@@PAXQAVrTypeLibrary@TypeLibraries@RunTime@VIP@@PBUpositive@@@Z  (Idle)
01:000D43D8 ?new@arrayM_inlineValue@@SAXQAV1@@PAXQAVrTypeLibrary@TypeLibraries@RunTime@VIP@@PBUpositive@@PAUboolean_struct@_builtIn@@@Z 
01:000D441C ?newPointer@arrayM_inlineValue@@SAXQAV1@@PAXQAVrTypeLibrary@TypeLibraries@RunTime@VIP@@PAXPBUpositive@@@Z 
01:000D4454 ?new_list@arrayM_inlineValue@@SAXQAV1@@PAXQAVrTypeLibrary@TypeLibraries@RunTime@VIP@@PAU?$__packedList_struct@PAX@@PAUboolean_struct@_builtIn@@@Z  (Idle)
01:000D44FC ?_tryGetElemPointer@arrayM_inlineValue@@SAXQAV1@@PAXPBUpositive@@PAPAX@Z  (Idle)
01:000D455C ?_tryGet@arrayM_inlineValue@@SAXQAVmap@@@PAXPAXPAXPAPAX@Z 
01:000D4584 ?set@arrayM_inlineValue@@SAXQAVmapM@@@PAXPAXPAXPAX@Z 
01:000D4630 ?removeKey@arrayM_inlineValue@@SAXQAVmapM@@@PAXPAXPAX@Z 
01:000D4648 ?clear@arrayM_inlineValue@@SAXQAVmodifiable@@@PAX@Z 
01:000D4660 ?_getAll_nd@arrayM_inlineValue@@SAXQAVcollection@@@PAXPAPAX@Z 
01:000D467C ?_upFrom_nd@arrayM_inlineValue@@SAXQAVmap@@@PAXPAXPAXPAPAUtuple_struct@core@@PAPAXPAPAX@Z 
01:000D4708 ?_downFrom_nd@arrayM_inlineValue@@SAXQAVmap@@@PAXPAXPAXPAPAUtuple_struct@core@@PAPAXPAPAX@Z 
01:000D478C ?elemSize@arrayM_inlineValue@@SGPBUbyteCount@@QAV1@@PAX@Z 
01:000D47AC ?_new@arrayM_inlineValue@@SAXQAVrTypeLibrary@TypeLibraries@RunTime@VIP@@PBUpositive@@PAUboolean_struct@_builtIn@@PAPAVarrayM_inline@@@PAPAX@Z  (Idle)
01:000D47E0 ?_newAtomic@arrayM_inlineValue@@SAXQAVrTypeLibrary@TypeLibraries@RunTime@VIP@@PBUpositive@@PAPAVarrayM_inline@@@PAPAX@Z 
01:000D4810 ?_newNonAtomic@arrayM_inlineValue@@SAXQAVrTypeLibrary@TypeLibraries@RunTime@VIP@@PBUpositive@@PAPAVarrayM_inline@@@PAPAX@Z  (Idle)
--- From 'Obj\shell_api.76DAFA28.obj'
01:000D4840 ?_newPointer@arrayM_inlineValue@@SAXQAVrTypeLibrary@TypeLibraries@RunTime@VIP@@PAXPBUpositive@@PAPAVarrayM_inline@@@PAPAX@Z 
--- From 'Obj\arraym_inline.0830C9D1.obj'
01:000D4874 ?_new_list@arrayM_inlineValue@@SAXQAVrTypeLibrary@TypeLibraries@RunTime@VIP@@PAU?$__packedList_struct@PAX@@PAUboolean_struct@_builtIn@@PAPAVarrayM_inline@@@PAPAX@Z 
01:000D48A8 ?_object_typelib_initializer@arrayM_inlineValue@@SGXQAV1@@PAXQAVrTypeLibrary@TypeLibraries@RunTime@VIP@@@Z 
01:000D48C0 ?data@arrayM_inlineValue@@SGPAXQAVarrayM_inline@@@PAX@Z 
01:000D48CC ?size@arrayM_inlineValue@@SGPBUpositive@@QAVarrayM_inline@@@PAX@Z 
01:000D48D8 ?newAtomic@arrayM_inline@@SAXQAV1@@PAXQAVrTypeLibrary@TypeLibraries@RunTime@VIP@@PBUpositive@@@Z  (Idle)
01:000D48EC ?newNonAtomic@arrayM_inline@@SAXQAV1@@PAXQAVrTypeLibrary@TypeLibraries@RunTime@VIP@@PBUpositive@@@Z  (Idle)
