 VIP Linker 7.5.
  Module 'C:\WORKS_2\WS\WS_Others\free\VX7GLZ_science-research\25_prolog\25_7\25_7.1\Exe\25_7.1.exe' Map. Wed May 31 13:56:52 2017

Frame 001000   Size 041CD0.  Name=<   .text>, 	Chars=60000020h. [CER]
Frame 043000   Size 02F100.  Name=<  .rdata>, 	Chars=40000040h. [IR]
Frame 073000   Size 000030.  Name=< .gcroot>, 	Chars=C0000040h. [IRW]
Frame 074000   Size 0006E0.  Name=<  VIPini>, 	Chars=40000040h. [IR]
Frame 075000   Size 000010.  Name=<  VIPsym>, 	Chars=40000040h. [IR]
Frame 076000   Size 000F10.  Name=<  VIPtpd>, 	Chars=40000040h. [IR]
Frame 077000   Size 000DD0.  Name=<  VIPtpl>, 	Chars=40000040h. [IR]
Frame 078000   Size 000170.  Name=<   .data>, 	Chars=C0000040h. [IRW]
Frame 079000   Size 000320.  Name=<  PRODBG>, 	Chars=40000040h. [IR]

	--- S e g m e n t s : ---

Frame 001000   Size 041CD0.  Name=<   .text>, 	Chars=60000020h. [CER]
001000:000000 041AF0   .text::CODE::<no group> F=4
   001000   Module 'Obj\arraym_inline.0830C9D1.obj'
   002340   Module 'Obj\redblacktree.61DB29D3.obj'
   004E60   Module 'Obj\mapmsupport.B5C5E982.obj'
   005570   Module 'Obj\collectionmsupport.1078EA0D.obj'
   005870   Module 'Obj\collectionsupport.FBE6D943.obj'
   005A10   Module 'Obj\redblackset.D207E793.obj'
   007BD0   Module 'Obj\registry_api.1F62FF31.obj'
   008EF0   Module 'Obj\mapm_redblack.B30CE1C9.obj'
   009620   Module 'Obj\setm_redblack.93FF0DB0.obj'
   009B80   Module 'Obj\exceptiondump.F8208295.obj'
   00B190   Module 'Obj\shell_api.76DAFA28.obj'
   00B560   Module 'Obj\varm.637998CB.obj'
   00CC90   Module 'Obj\binary.81E0542A.obj'
   011C10   Module 'Obj\filesystem.14FC0F0E.obj'
   01A030   Module 'Obj\string.79FC483E.obj'
   01FCB0   Module 'Obj\boolean.223D1EF3.obj'
   01FDE0   Module 'Obj\inputstreamsupport.B96A0569.obj'
   0201B0   Module 'Obj\outputstreamsupport.9F52D3AC.obj'
   0206C0   Module 'Obj\exe.0BB6E1A4.obj'
   0209D0   Module 'Obj\list.90A37E7A.obj'
   027590   Module 'Obj\std.01821D38.obj'
   027F80   Module 'Obj\string8.31126D59.obj'
   0288B0   Module 'Obj\string8_api.876B157C.obj'
   028A60   Module 'Obj\math.8BE40BD3.obj'
   02A0F0   Module 'Obj\registry.750278BD.obj'
   02AFA0   Module 'Obj\systeminformation_api.720D241D.obj'
   02B550   Module 'Obj\namedvalue.A8464E91.obj'
   02C9A0   Module 'Obj\reflection.87B371B1.obj'
   02CE40   Module 'Obj\memory_api.066136AF.obj'
   02D5B0   Module 'Obj\runtime_api.AAF7A8D0.obj'
   02E1A0   Module 'Obj\event.5E0B1F78.obj'
   031A70   Module 'Obj\time_api.3BF8D4E6.obj'
   032E70   Module 'Obj\locale_api.2F2FFAF4.obj'
   033100   Module 'Obj\gui_api.9DA8CF80.obj'
   036CB0   Module 'Obj\vpidomains.97964869.obj'
   036D70   Module 'Obj\exception.311FF4B8.obj'
   038FF0   Module 'Obj\programcontrol.D3F4CEF5.obj'
   039030   Module 'Obj\multithread_api.53CE32BC.obj'
   03A040   Module 'Obj\windowsapi.9B3D04D6.obj'
   03A2F0   Module 'Obj\console.22208CC2.obj'
   03C8B0   Module 'Obj\core.610F2EE0.obj'
   03CC90   Module 'Obj\stream.99E3A2B3.obj'
   03DB50   Module 'Obj\console_api.5E6636FD.obj'
   03DCD0   Module 'Obj\exe_api.F27809B9.obj'
   03E260   Module 'Obj\main.A22FE9BF.obj'
   03E290   Module 'Obj\filesystem_api.EE6511E1.obj'
   0409A0   Module 'Obj\memory.F1BE59D6.obj'
001000:041AF0 0001E0   .text$mn::CODE::<no group> F=4
   042AF0   Module '..\..\..\_intermediate\sourceVS\vipInit\Win32\ReleasePE\VIPMain.obj'
   042B60   Module '..\..\..\_intermediate\sourceVS\vipInit\Win32\ReleasePE\VIPDll.obj'
   042CB0   Module '..\..\..\_intermediate\sourceVS\vipInit\Win32\ReleasePE\VIPPE.obj'

Frame 043000   Size 02F100.  Name=<  .rdata>, 	Chars=40000040h. [IR]
043000:000000 004570   VIPConst::VIPConst::.rdata F=4
   043000   Module 'Obj\binary.81E0542A.obj'
   043250   Module 'Obj\filesystem.14FC0F0E.obj'
   0434D0   Module 'Obj\string.79FC483E.obj'
   0436D0   Module 'Obj\math.8BE40BD3.obj'
   043A30   Module 'Obj\registry.750278BD.obj'
   043BD0   Module 'Obj\namedvalue.A8464E91.obj'
   043C60   Module 'Obj\time_api.3BF8D4E6.obj'
   043DB0   Module 'Obj\exception.311FF4B8.obj'
   0470C0   Module 'Obj\stream.99E3A2B3.obj'
   0473C0   Module 'Obj\filesystem_api.EE6511E1.obj'
043000:004570 00AD30   .rdata::.rdata::.rdata F=4
   047570   Module 'Obj\arraym_inline.0830C9D1.obj'
   0477B0   Module 'Obj\redblacktree.61DB29D3.obj'
   047960   Module 'Obj\mapmsupport.B5C5E982.obj'
   047B00   Module 'Obj\collectionmsupport.1078EA0D.obj'
   047BE0   Module 'Obj\collectionsupport.FBE6D943.obj'
   047CB0   Module 'Obj\redblackset.D207E793.obj'
   047EA0   Module 'Obj\registry_api.1F62FF31.obj'
   0482D0   Module 'Obj\collection.26E04001.obj'
   048360   Module 'Obj\mapm_redblack.B30CE1C9.obj'
   048420   Module 'Obj\setm_redblack.93FF0DB0.obj'
   0484E0   Module 'Obj\exceptiondump.F8208295.obj'
   048950   Module 'Obj\shell_api.76DAFA28.obj'
   049160   Module 'Obj\varm.637998CB.obj'
   049260   Module 'Obj\binary.81E0542A.obj'
   0498D0   Module 'Obj\filesystem.14FC0F0E.obj'
   04A6B0   Module 'Obj\string.79FC483E.obj'
   04B020   Module 'Obj\boolean.223D1EF3.obj'
   04B0B0   Module 'Obj\string_api.9F0D2E24.obj'
   04B160   Module 'Obj\inputstreamsupport.B96A0569.obj'
   04B3A0   Module 'Obj\outputstreamsupport.9F52D3AC.obj'
   04B620   Module 'Obj\exe.0BB6E1A4.obj'
   04B6C0   Module 'Obj\list.90A37E7A.obj'
   04BAD0   Module 'Obj\std.01821D38.obj'
   04BB50   Module 'Obj\string8.31126D59.obj'
   04BBE0   Module 'Obj\string8_api.876B157C.obj'
   04BE00   Module 'Obj\math.8BE40BD3.obj'
   04C030   Module 'Obj\registry.750278BD.obj'
   04C2C0   Module 'Obj\systeminformation_api.720D241D.obj'
   04C5C0   Module 'Obj\namedvalue.A8464E91.obj'
   04C9A0   Module 'Obj\reflection.87B371B1.obj'
   04CC50   Module 'Obj\typelibrary.95661F20.obj'
   04CD00   Module 'Obj\memory_api.066136AF.obj'
   04D000   Module 'Obj\runtime_api.AAF7A8D0.obj'
   04D8D0   Module 'Obj\event.5E0B1F78.obj'
   04D950   Module 'Obj\time_api.3BF8D4E6.obj'
   04DE80   Module 'Obj\locale_api.2F2FFAF4.obj'
   04DF30   Module 'Obj\gui_api.9DA8CF80.obj'
   04F400   Module 'Obj\vpidomains.97964869.obj'
   04F4A0   Module 'Obj\exception.311FF4B8.obj'
   04F9A0   Module 'Obj\programcontrol.D3F4CEF5.obj'
   04FA40   Module 'Obj\multithread_api.53CE32BC.obj'
   050200   Module 'Obj\windowsapi.9B3D04D6.obj'
   050290   Module 'Obj\console.22208CC2.obj'
   050A30   Module 'Obj\core.610F2EE0.obj'
   050B00   Module 'Obj\stream.99E3A2B3.obj'
   051050   Module 'Obj\console_api.5E6636FD.obj'
   0512C0   Module 'Obj\exe_api.F27809B9.obj'
   0514F0   Module 'Obj\main.A22FE9BF.obj'
   051530   Module 'Obj\filesystem_api.EE6511E1.obj'
   052160   Module 'Obj\memory.F1BE59D6.obj'
   0521F0   Module '..\..\..\_intermediate\sourceVS\vipInit\Win32\ReleasePE\VIPPE.obj'
043000:00F2A0 003410   VIPInter::VIPInter::.rdata F=4
   0522A0   Module 'Obj\arraym_inline.0830C9D1.obj'
   054A10   Module 'Obj\exceptiondump.F8208295.obj'
   0550B0   Module 'Obj\shell_api.76DAFA28.obj'
   055280   Module 'Obj\binary.81E0542A.obj'
   0555F0   Module 'Obj\core.610F2EE0.obj'
043000:0126B0 0020E0   VIPTypeL::VIPTypeL::.rdata F=4
   0556B0   Module 'Obj\arraym_inline.0830C9D1.obj'
   0558D0   Module 'Obj\redblacktree.61DB29D3.obj'
   055900   Module 'Obj\mapmsupport.B5C5E982.obj'
   055930   Module 'Obj\collectionmsupport.1078EA0D.obj'
   055950   Module 'Obj\collectionsupport.FBE6D943.obj'
   055970   Module 'Obj\redblackset.D207E793.obj'
   055980   Module 'Obj\registry_api.1F62FF31.obj'
   055990   Module 'Obj\mapm_redblack.B30CE1C9.obj'
   0559B0   Module 'Obj\setm_redblack.93FF0DB0.obj'
   0559D0   Module 'Obj\exceptiondump.F8208295.obj'
   055BA0   Module 'Obj\shell_api.76DAFA28.obj'
   055C60   Module 'Obj\varm.637998CB.obj'
   055D00   Module 'Obj\binary.81E0542A.obj'
   055D60   Module 'Obj\filesystem.14FC0F0E.obj'
   055E80   Module 'Obj\string.79FC483E.obj'
   055F30   Module 'Obj\inputstreamsupport.B96A0569.obj'
   055F40   Module 'Obj\outputstreamsupport.9F52D3AC.obj'
   055F60   Module 'Obj\exe.0BB6E1A4.obj'
   055F70   Module 'Obj\list.90A37E7A.obj'
   056030   Module 'Obj\math.8BE40BD3.obj'
   056060   Module 'Obj\registry.750278BD.obj'
   056080   Module 'Obj\systeminformation_api.720D241D.obj'
   0560E0   Module 'Obj\namedvalue.A8464E91.obj'
   0560F0   Module 'Obj\reflection.87B371B1.obj'
   056160   Module 'Obj\memory_api.066136AF.obj'
   056180   Module 'Obj\runtime_api.AAF7A8D0.obj'
   0561A0   Module 'Obj\event.5E0B1F78.obj'
   0565D0   Module 'Obj\time_api.3BF8D4E6.obj'
   056610   Module 'Obj\locale_api.2F2FFAF4.obj'
   056660   Module 'Obj\gui_api.9DA8CF80.obj'
   056B00   Module 'Obj\vpidomains.97964869.obj'
   056C50   Module 'Obj\exception.311FF4B8.obj'
   056C70   Module 'Obj\programcontrol.D3F4CEF5.obj'
   056C90   Module 'Obj\multithread_api.53CE32BC.obj'
   056D40   Module 'Obj\windowsapi.9B3D04D6.obj'
   056D70   Module 'Obj\console.22208CC2.obj'
   056DC0   Module 'Obj\core.610F2EE0.obj'
   057300   Module 'Obj\stream.99E3A2B3.obj'
   057340   Module 'Obj\console_api.5E6636FD.obj'
   0573B0   Module 'Obj\exe_api.F27809B9.obj'
   0573D0   Module 'Obj\main.A22FE9BF.obj'
   057460   Module 'Obj\filesystem_api.EE6511E1.obj'
   057580   Module 'Obj\memory.F1BE59D6.obj'
043000:014790 01A970   VIPClass::VIPClass::.rdata F=4
   057790   Module 'Obj\arraym_inline.0830C9D1.obj'
   058860   Module 'Obj\redblacktree.61DB29D3.obj'
   058C80   Module 'Obj\mapmsupport.B5C5E982.obj'
   0590E0   Module 'Obj\collectionmsupport.1078EA0D.obj'
   0593F0   Module 'Obj\collectionsupport.FBE6D943.obj'
   059640   Module 'Obj\redblackset.D207E793.obj'
   0598A0   Module 'Obj\registry_api.1F62FF31.obj'
   059A40   Module 'Obj\mapm_redblack.B30CE1C9.obj'
   05A240   Module 'Obj\setm_redblack.93FF0DB0.obj'
   05A740   Module 'Obj\exceptiondump.F8208295.obj'
   05A7E0   Module 'Obj\shell_api.76DAFA28.obj'
   05B000   Module 'Obj\varm.637998CB.obj'
   05BF70   Module 'Obj\binary.81E0542A.obj'
   05CA90   Module 'Obj\filesystem.14FC0F0E.obj'
   05E380   Module 'Obj\string.79FC483E.obj'
   05F560   Module 'Obj\boolean.223D1EF3.obj'
   05F5D0   Module 'Obj\string_api.9F0D2E24.obj'
   05F670   Module 'Obj\inputstreamsupport.B96A0569.obj'
   05F8B0   Module 'Obj\outputstreamsupport.9F52D3AC.obj'
   05FB70   Module 'Obj\exe.0BB6E1A4.obj'
   05FC60   Module 'Obj\list.90A37E7A.obj'
   060580   Module 'Obj\std.01821D38.obj'
   0605D0   Module 'Obj\string8.31126D59.obj'
   060640   Module 'Obj\string8_api.876B157C.obj'
   060770   Module 'Obj\math.8BE40BD3.obj'
   060900   Module 'Obj\registry.750278BD.obj'
   060BF0   Module 'Obj\systeminformation_api.720D241D.obj'
   0611D0   Module 'Obj\namedvalue.A8464E91.obj'
   061250   Module 'Obj\reflection.87B371B1.obj'
   061B70   Module 'Obj\memory_api.066136AF.obj'
   061DA0   Module 'Obj\runtime_api.AAF7A8D0.obj'
   061EF0   Module 'Obj\event.5E0B1F78.obj'
   0681D0   Module 'Obj\time_api.3BF8D4E6.obj'
   068500   Module 'Obj\locale_api.2F2FFAF4.obj'
   068700   Module 'Obj\gui_api.9DA8CF80.obj'
   06A600   Module 'Obj\vpidomains.97964869.obj'
   06BBF0   Module 'Obj\exception.311FF4B8.obj'
   06C2C0   Module 'Obj\programcontrol.D3F4CEF5.obj'
   06C3D0   Module 'Obj\multithread_api.53CE32BC.obj'
   06C9A0   Module 'Obj\windowsapi.9B3D04D6.obj'
   06CB50   Module 'Obj\console.22208CC2.obj'
   06D950   Module 'Obj\core.610F2EE0.obj'
   06EE40   Module 'Obj\stream.99E3A2B3.obj'
   06F4C0   Module 'Obj\console_api.5E6636FD.obj'
   06F8E0   Module 'Obj\exe_api.F27809B9.obj'
   06FB40   Module 'Obj\main.A22FE9BF.obj'
   070170   Module 'Obj\filesystem_api.EE6511E1.obj'
   071400   Module 'Obj\memory.F1BE59D6.obj'

Frame 073000   Size 000030.  Name=< .gcroot>, 	Chars=C0000040h. [IRW]
073000:000000 000024   .gcroot::.gcroot::.gcroot F=4
   073000   Module 'Obj\exe.0BB6E1A4.obj'
   073004   Module 'Obj\runtime_api.AAF7A8D0.obj'
   073008   Module 'Obj\multithread_api.53CE32BC.obj'
   07300C   Module 'Obj\console.22208CC2.obj'
   073018   Module 'Obj\stream.99E3A2B3.obj'

Frame 074000   Size 0006E0.  Name=<  VIPini>, 	Chars=40000040h. [IR]
074000:000000 000004   VIPini$A::VIPini$A::VIPini F=4
   074000   Module 'Obj\main.A22FE9BF.obj'
074000:000004 00028C   VIPini$C::VIPini$C::VIPini F=4
   074004   Module 'Obj\arraym_inline.0830C9D1.obj'
   0740C4   Module 'Obj\redblacktree.61DB29D3.obj'
   0740C8   Module 'Obj\mapmsupport.B5C5E982.obj'
   0740CC   Module 'Obj\collectionmsupport.1078EA0D.obj'
   0740D0   Module 'Obj\collectionsupport.FBE6D943.obj'
   0740D4   Module 'Obj\redblackset.D207E793.obj'
   0740D8   Module 'Obj\registry_api.1F62FF31.obj'
   0740E0   Module 'Obj\collection.26E04001.obj'
   0740E0   Module 'Obj\mapm_redblack.B30CE1C9.obj'
   0740E4   Module 'Obj\setm_redblack.93FF0DB0.obj'
   0740E8   Module 'Obj\exceptiondump.F8208295.obj'
   074100   Module 'Obj\shell_api.76DAFA28.obj'
   074110   Module 'Obj\varm.637998CB.obj'
   074128   Module 'Obj\binary.81E0542A.obj'
   074148   Module 'Obj\filesystem.14FC0F0E.obj'
   074168   Module 'Obj\string.79FC483E.obj'
   074178   Module 'Obj\boolean.223D1EF3.obj'
   07417C   Module 'Obj\string_api.9F0D2E24.obj'
   074180   Module 'Obj\inputstreamsupport.B96A0569.obj'
   074184   Module 'Obj\outputstreamsupport.9F52D3AC.obj'
   074188   Module 'Obj\exe.0BB6E1A4.obj'
   07418C   Module 'Obj\list.90A37E7A.obj'
   074190   Module 'Obj\std.01821D38.obj'
   074194   Module 'Obj\string8.31126D59.obj'
   074198   Module 'Obj\string8_api.876B157C.obj'
   0741A0   Module 'Obj\math.8BE40BD3.obj'
   0741A8   Module 'Obj\registry.750278BD.obj'
   0741B0   Module 'Obj\systeminformation_api.720D241D.obj'
   0741B8   Module 'Obj\namedvalue.A8464E91.obj'
   0741BC   Module 'Obj\reflection.87B371B1.obj'
   0741C4   Module 'Obj\typelibrary.95661F20.obj'
   0741C4   Module 'Obj\memory_api.066136AF.obj'
   0741CC   Module 'Obj\runtime_api.AAF7A8D0.obj'
   0741D0   Module 'Obj\event.5E0B1F78.obj'
   0741F0   Module 'Obj\time_api.3BF8D4E6.obj'
   0741F8   Module 'Obj\locale_api.2F2FFAF4.obj'
   074200   Module 'Obj\gui_api.9DA8CF80.obj'
   074208   Module 'Obj\vpidomains.97964869.obj'
   074210   Module 'Obj\exception.311FF4B8.obj'
   074220   Module 'Obj\programcontrol.D3F4CEF5.obj'
   074224   Module 'Obj\multithread_api.53CE32BC.obj'
   07422C   Module 'Obj\windowsapi.9B3D04D6.obj'
   074230   Module 'Obj\console.22208CC2.obj'
   07423C   Module 'Obj\core.610F2EE0.obj'
   074244   Module 'Obj\stream.99E3A2B3.obj'
   074258   Module 'Obj\console_api.5E6636FD.obj'
   074260   Module 'Obj\exe_api.F27809B9.obj'
   074268   Module 'Obj\main.A22FE9BF.obj'
   074274   Module 'Obj\filesystem_api.EE6511E1.obj'
   074280   Module 'Obj\memory.F1BE59D6.obj'
074000:000290 000008   VIPini$E::VIPini$E::VIPini F=4
   074290   Module 'Obj\main.A22FE9BF.obj'

Frame 075000   Size 000010.  Name=<  VIPsym>, 	Chars=40000040h. [IR]
075000:000000 000004   VIPsym$A::VIPsym$A::VIPsym F=4
   075000   Module 'Obj\main.A22FE9BF.obj'
075000:000004 000000   VIPsym$C::VIPsym$C::VIPsym F=4
   075004   Module 'Obj\arraym_inline.0830C9D1.obj'
   075004   Module 'Obj\redblacktree.61DB29D3.obj'
   075004   Module 'Obj\mapmsupport.B5C5E982.obj'
   075004   Module 'Obj\collectionmsupport.1078EA0D.obj'
   075004   Module 'Obj\collectionsupport.FBE6D943.obj'
   075004   Module 'Obj\redblackset.D207E793.obj'
   075004   Module 'Obj\registry_api.1F62FF31.obj'
   075004   Module 'Obj\collection.26E04001.obj'
   075004   Module 'Obj\mapm_redblack.B30CE1C9.obj'
   075004   Module 'Obj\setm_redblack.93FF0DB0.obj'
   075004   Module 'Obj\exceptiondump.F8208295.obj'
   075004   Module 'Obj\shell_api.76DAFA28.obj'
   075004   Module 'Obj\varm.637998CB.obj'
   075004   Module 'Obj\binary.81E0542A.obj'
   075004   Module 'Obj\filesystem.14FC0F0E.obj'
   075004   Module 'Obj\string.79FC483E.obj'
   075004   Module 'Obj\boolean.223D1EF3.obj'
   075004   Module 'Obj\string_api.9F0D2E24.obj'
   075004   Module 'Obj\inputstreamsupport.B96A0569.obj'
   075004   Module 'Obj\outputstreamsupport.9F52D3AC.obj'
   075004   Module 'Obj\exe.0BB6E1A4.obj'
   075004   Module 'Obj\list.90A37E7A.obj'
   075004   Module 'Obj\std.01821D38.obj'
   075004   Module 'Obj\string8.31126D59.obj'
   075004   Module 'Obj\string8_api.876B157C.obj'
   075004   Module 'Obj\math.8BE40BD3.obj'
   075004   Module 'Obj\registry.750278BD.obj'
   075004   Module 'Obj\systeminformation_api.720D241D.obj'
   075004   Module 'Obj\namedvalue.A8464E91.obj'
   075004   Module 'Obj\reflection.87B371B1.obj'
   075004   Module 'Obj\typelibrary.95661F20.obj'
   075004   Module 'Obj\memory_api.066136AF.obj'
   075004   Module 'Obj\runtime_api.AAF7A8D0.obj'
   075004   Module 'Obj\event.5E0B1F78.obj'
   075004   Module 'Obj\time_api.3BF8D4E6.obj'
   075004   Module 'Obj\locale_api.2F2FFAF4.obj'
   075004   Module 'Obj\gui_api.9DA8CF80.obj'
   075004   Module 'Obj\vpidomains.97964869.obj'
   075004   Module 'Obj\exception.311FF4B8.obj'
   075004   Module 'Obj\programcontrol.D3F4CEF5.obj'
   075004   Module 'Obj\multithread_api.53CE32BC.obj'
   075004   Module 'Obj\windowsapi.9B3D04D6.obj'
   075004   Module 'Obj\console.22208CC2.obj'
   075004   Module 'Obj\core.610F2EE0.obj'
   075004   Module 'Obj\stream.99E3A2B3.obj'
   075004   Module 'Obj\console_api.5E6636FD.obj'
   075004   Module 'Obj\exe_api.F27809B9.obj'
   075004   Module 'Obj\main.A22FE9BF.obj'
   075004   Module 'Obj\filesystem_api.EE6511E1.obj'
   075004   Module 'Obj\memory.F1BE59D6.obj'
075000:000004 000008   VIPsym$E::VIPsym$E::VIPsym F=4
   075004   Module 'Obj\main.A22FE9BF.obj'

Frame 076000   Size 000F10.  Name=<  VIPtpd>, 	Chars=40000040h. [IR]
076000:000000 000004   VIPtpd$A::VIPtpd$A::VIPtpd F=4
   076000   Module 'Obj\main.A22FE9BF.obj'
076000:000004 000EFC   VIPtpd$C::VIPtpd$C::VIPtpd F=4
   076004   Module 'Obj\arraym_inline.0830C9D1.obj'
   0760FC   Module 'Obj\redblacktree.61DB29D3.obj'
   076114   Module 'Obj\mapmsupport.B5C5E982.obj'
   07611C   Module 'Obj\collectionmsupport.1078EA0D.obj'
   076124   Module 'Obj\collectionsupport.FBE6D943.obj'
   076164   Module 'Obj\redblackset.D207E793.obj'
   0761D0   Module 'Obj\registry_api.1F62FF31.obj'
   0761D8   Module 'Obj\collection.26E04001.obj'
   076218   Module 'Obj\mapm_redblack.B30CE1C9.obj'
   076238   Module 'Obj\setm_redblack.93FF0DB0.obj'
   076240   Module 'Obj\exceptiondump.F8208295.obj'
   0762D0   Module 'Obj\shell_api.76DAFA28.obj'
   076348   Module 'Obj\varm.637998CB.obj'
   0763E4   Module 'Obj\binary.81E0542A.obj'
   076400   Module 'Obj\filesystem.14FC0F0E.obj'
   076450   Module 'Obj\string.79FC483E.obj'
   076478   Module 'Obj\boolean.223D1EF3.obj'
   076478   Module 'Obj\string_api.9F0D2E24.obj'
   076478   Module 'Obj\inputstreamsupport.B96A0569.obj'
   0764FC   Module 'Obj\outputstreamsupport.9F52D3AC.obj'
   076508   Module 'Obj\exe.0BB6E1A4.obj'
   076594   Module 'Obj\list.90A37E7A.obj'
   0765F4   Module 'Obj\std.01821D38.obj'
   076604   Module 'Obj\string8.31126D59.obj'
   076604   Module 'Obj\string8_api.876B157C.obj'
   076604   Module 'Obj\math.8BE40BD3.obj'
   076610   Module 'Obj\registry.750278BD.obj'
   0766A0   Module 'Obj\systeminformation_api.720D241D.obj'
   0766BC   Module 'Obj\namedvalue.A8464E91.obj'
   0766BC   Module 'Obj\reflection.87B371B1.obj'
   0766F0   Module 'Obj\typelibrary.95661F20.obj'
   0766F0   Module 'Obj\memory_api.066136AF.obj'
   0766FC   Module 'Obj\runtime_api.AAF7A8D0.obj'
   076700   Module 'Obj\event.5E0B1F78.obj'
   07680C   Module 'Obj\time_api.3BF8D4E6.obj'
   076820   Module 'Obj\locale_api.2F2FFAF4.obj'
   076834   Module 'Obj\gui_api.9DA8CF80.obj'
   07695C   Module 'Obj\vpidomains.97964869.obj'
   0769B4   Module 'Obj\exception.311FF4B8.obj'
   0769E8   Module 'Obj\programcontrol.D3F4CEF5.obj'
   0769F0   Module 'Obj\multithread_api.53CE32BC.obj'
   076A1C   Module 'Obj\windowsapi.9B3D04D6.obj'
   076A28   Module 'Obj\console.22208CC2.obj'
   076AD4   Module 'Obj\core.610F2EE0.obj'
   076C78   Module 'Obj\stream.99E3A2B3.obj'
   076C88   Module 'Obj\console_api.5E6636FD.obj'
   076D04   Module 'Obj\exe_api.F27809B9.obj'
   076D38   Module 'Obj\main.A22FE9BF.obj'
   076E1C   Module 'Obj\filesystem_api.EE6511E1.obj'
   076E7C   Module 'Obj\memory.F1BE59D6.obj'
076000:000F00 000008   VIPtpd$E::VIPtpd$E::VIPtpd F=4
   076F00   Module 'Obj\main.A22FE9BF.obj'

Frame 077000   Size 000DD0.  Name=<  VIPtpl>, 	Chars=40000040h. [IR]
077000:000000 000004   VIPtpl$A::VIPtpl$A::VIPtpl F=4
   077000   Module 'Obj\main.A22FE9BF.obj'
077000:000004 000DBC   VIPtpl$C::VIPtpl$C::VIPtpl F=4
   077004   Module 'Obj\arraym_inline.0830C9D1.obj'
   07708C   Module 'Obj\redblacktree.61DB29D3.obj'
   077098   Module 'Obj\mapmsupport.B5C5E982.obj'
   0770A4   Module 'Obj\collectionmsupport.1078EA0D.obj'
   0770AC   Module 'Obj\collectionsupport.FBE6D943.obj'
   0770B4   Module 'Obj\redblackset.D207E793.obj'
   0770F8   Module 'Obj\registry_api.1F62FF31.obj'
   077104   Module 'Obj\collection.26E04001.obj'
   077114   Module 'Obj\mapm_redblack.B30CE1C9.obj'
   07711C   Module 'Obj\setm_redblack.93FF0DB0.obj'
   077124   Module 'Obj\exceptiondump.F8208295.obj'
   0771F0   Module 'Obj\shell_api.76DAFA28.obj'
   07722C   Module 'Obj\varm.637998CB.obj'
   0772AC   Module 'Obj\binary.81E0542A.obj'
   0772E0   Module 'Obj\filesystem.14FC0F0E.obj'
   077344   Module 'Obj\string.79FC483E.obj'
   07738C   Module 'Obj\boolean.223D1EF3.obj'
   07738C   Module 'Obj\string_api.9F0D2E24.obj'
   07738C   Module 'Obj\inputstreamsupport.B96A0569.obj'
   0773EC   Module 'Obj\outputstreamsupport.9F52D3AC.obj'
   077400   Module 'Obj\exe.0BB6E1A4.obj'
   077468   Module 'Obj\list.90A37E7A.obj'
   0774A0   Module 'Obj\std.01821D38.obj'
   0774B0   Module 'Obj\string8.31126D59.obj'
   0774B8   Module 'Obj\string8_api.876B157C.obj'
   0774B8   Module 'Obj\math.8BE40BD3.obj'
   0774C4   Module 'Obj\registry.750278BD.obj'
   077534   Module 'Obj\systeminformation_api.720D241D.obj'
   07754C   Module 'Obj\namedvalue.A8464E91.obj'
   07755C   Module 'Obj\reflection.87B371B1.obj'
   07759C   Module 'Obj\typelibrary.95661F20.obj'
   07759C   Module 'Obj\memory_api.066136AF.obj'
   0775B4   Module 'Obj\runtime_api.AAF7A8D0.obj'
   0775C4   Module 'Obj\event.5E0B1F78.obj'
   0776F0   Module 'Obj\time_api.3BF8D4E6.obj'
   077700   Module 'Obj\locale_api.2F2FFAF4.obj'
   077714   Module 'Obj\gui_api.9DA8CF80.obj'
   077854   Module 'Obj\vpidomains.97964869.obj'
   0778B0   Module 'Obj\exception.311FF4B8.obj'
   0778F8   Module 'Obj\programcontrol.D3F4CEF5.obj'
   077900   Module 'Obj\multithread_api.53CE32BC.obj'
   077930   Module 'Obj\windowsapi.9B3D04D6.obj'
   077940   Module 'Obj\console.22208CC2.obj'
   0779D0   Module 'Obj\core.610F2EE0.obj'
   077B74   Module 'Obj\stream.99E3A2B3.obj'
   077B88   Module 'Obj\console_api.5E6636FD.obj'
   077BE0   Module 'Obj\exe_api.F27809B9.obj'
   077C14   Module 'Obj\main.A22FE9BF.obj'
   077CCC   Module 'Obj\filesystem_api.EE6511E1.obj'
   077D34   Module 'Obj\memory.F1BE59D6.obj'
077000:000DC0 000008   VIPtpl$E::VIPtpl$E::VIPtpl F=4
   077DC0   Module 'Obj\main.A22FE9BF.obj'

Frame 078000   Size 000170.  Name=<   .data>, 	Chars=C0000040h. [IRW]
078000:000000 00015C   .data::DATA::DGROUP F=4
   078000   Module 'Obj\arraym_inline.0830C9D1.obj'
   078010   Module 'Obj\mapmsupport.B5C5E982.obj'
   078018   Module 'Obj\collectionmsupport.1078EA0D.obj'
   078020   Module 'Obj\collectionsupport.FBE6D943.obj'
   078028   Module 'Obj\registry_api.1F62FF31.obj'
   07802C   Module 'Obj\mapm_redblack.B30CE1C9.obj'
   078034   Module 'Obj\setm_redblack.93FF0DB0.obj'
   07803C   Module 'Obj\varm.637998CB.obj'
   07806C   Module 'Obj\binary.81E0542A.obj'
   07807C   Module 'Obj\filesystem.14FC0F0E.obj'
   078094   Module 'Obj\string.79FC483E.obj'
   0780A4   Module 'Obj\inputstreamsupport.B96A0569.obj'
   0780AC   Module 'Obj\outputstreamsupport.9F52D3AC.obj'
   0780B4   Module 'Obj\systeminformation_api.720D241D.obj'
   0780B8   Module 'Obj\runtime_api.AAF7A8D0.obj'
   0780BC   Module 'Obj\event.5E0B1F78.obj'
   0780FC   Module 'Obj\time_api.3BF8D4E6.obj'
   078104   Module 'Obj\gui_api.9DA8CF80.obj'
   07810C   Module 'Obj\exception.311FF4B8.obj'
   078114   Module 'Obj\multithread_api.53CE32BC.obj'
   07811C   Module 'Obj\console.22208CC2.obj'
   07812C   Module 'Obj\stream.99E3A2B3.obj'
   078144   Module 'Obj\filesystem_api.EE6511E1.obj'
   07814C   Module 'Obj\memory.F1BE59D6.obj'
078000:00015C 00000C   .bss::BSS::DGROUP F=4
   07815C   Module '..\..\..\_intermediate\sourceVS\vipInit\Win32\ReleasePE\VIPDll.obj'

Frame 079000   Size 000320.  Name=<  PRODBG>, 	Chars=40000040h. [IR]
079000:000000 000320   PRODBG::PRODBG::PRODBG F=4
   079000   Module 'Obj\arraym_inline.0830C9D1.obj'
   079010   Module 'Obj\redblacktree.61DB29D3.obj'
   079020   Module 'Obj\mapmsupport.B5C5E982.obj'
   079030   Module 'Obj\collectionmsupport.1078EA0D.obj'
   079040   Module 'Obj\collectionsupport.FBE6D943.obj'
   079050   Module 'Obj\redblackset.D207E793.obj'
   079060   Module 'Obj\registry_api.1F62FF31.obj'
   079070   Module 'Obj\collection.26E04001.obj'
   079080   Module 'Obj\mapm_redblack.B30CE1C9.obj'
   079090   Module 'Obj\setm_redblack.93FF0DB0.obj'
   0790A0   Module 'Obj\exceptiondump.F8208295.obj'
   0790B0   Module 'Obj\shell_api.76DAFA28.obj'
   0790C0   Module 'Obj\varm.637998CB.obj'
   0790D0   Module 'Obj\binary.81E0542A.obj'
   0790E0   Module 'Obj\filesystem.14FC0F0E.obj'
   0790F0   Module 'Obj\string.79FC483E.obj'
   079100   Module 'Obj\boolean.223D1EF3.obj'
   079110   Module 'Obj\string_api.9F0D2E24.obj'
   079120   Module 'Obj\inputstreamsupport.B96A0569.obj'
   079130   Module 'Obj\outputstreamsupport.9F52D3AC.obj'
   079140   Module 'Obj\exe.0BB6E1A4.obj'
   079150   Module 'Obj\list.90A37E7A.obj'
   079160   Module 'Obj\std.01821D38.obj'
   079170   Module 'Obj\string8.31126D59.obj'
   079180   Module 'Obj\string8_api.876B157C.obj'
   079190   Module 'Obj\math.8BE40BD3.obj'
   0791A0   Module 'Obj\registry.750278BD.obj'
   0791B0   Module 'Obj\systeminformation_api.720D241D.obj'
   0791C0   Module 'Obj\namedvalue.A8464E91.obj'
   0791D0   Module 'Obj\reflection.87B371B1.obj'
   0791E0   Module 'Obj\typelibrary.95661F20.obj'
   0791F0   Module 'Obj\memory_api.066136AF.obj'
   079200   Module 'Obj\runtime_api.AAF7A8D0.obj'
   079210   Module 'Obj\event.5E0B1F78.obj'
   079220   Module 'Obj\time_api.3BF8D4E6.obj'
   079230   Module 'Obj\locale_api.2F2FFAF4.obj'
   079240   Module 'Obj\gui_api.9DA8CF80.obj'
   079250   Module 'Obj\vpidomains.97964869.obj'
   079260   Module 'Obj\exception.311FF4B8.obj'
   079270   Module 'Obj\programcontrol.D3F4CEF5.obj'
   079280   Module 'Obj\multithread_api.53CE32BC.obj'
   079290   Module 'Obj\windowsapi.9B3D04D6.obj'
   0792A0   Module 'Obj\console.22208CC2.obj'
   0792B0   Module 'Obj\core.610F2EE0.obj'
   0792C0   Module 'Obj\stream.99E3A2B3.obj'
   0792D0   Module 'Obj\console_api.5E6636FD.obj'
   0792E0   Module 'Obj\exe_api.F27809B9.obj'
   0792F0   Module 'Obj\main.A22FE9BF.obj'
   079300   Module 'Obj\filesystem_api.EE6511E1.obj'
   079310   Module 'Obj\memory.F1BE59D6.obj'

	     ------- Names by value Map ---------
Frame 001000   Size 041CD0.  Name=<   .text>, 	Chars=60000020h. [CER]
001000:000000 041AF0   .text::CODE::<no group> F=4
--- From 'Obj\arraym_inline.0830C9D1.obj'
01:00001000 ?newAtomic@arrayM_inlineValue@@SAXQAV1@@PAXQAVrTypeLibrary@TypeLibraries@RunTime@VIP@@PBUpositive@@@Z  (Idle)
01:00001014 ?newNonAtomic@arrayM_inlineValue@@SAXQAV1@@PAXQAVrTypeLibrary@TypeLibraries@RunTime@VIP@@PBUpositive@@@Z  (Idle)
01:00001028 ?new@arrayM_inlineValue@@SAXQAV1@@PAXQAVrTypeLibrary@TypeLibraries@RunTime@VIP@@PBUpositive@@PAUboolean_struct@_builtIn@@@Z 
01:0000106C ?newPointer@arrayM_inlineValue@@SAXQAV1@@PAXQAVrTypeLibrary@TypeLibraries@RunTime@VIP@@PAXPBUpositive@@@Z 
01:000010A4 ?new_list@arrayM_inlineValue@@SAXQAV1@@PAXQAVrTypeLibrary@TypeLibraries@RunTime@VIP@@PAU?$__packedList_struct@PAX@@PAUboolean_struct@_builtIn@@@Z  (Idle)
01:0000114C ?_tryGetElemPointer@arrayM_inlineValue@@SAXQAV1@@PAXPBUpositive@@PAPAX@Z  (Idle)
01:000011AC ?_tryGet@arrayM_inlineValue@@SAXQAVmap@@@PAXPAXPAXPAPAX@Z 
01:000011D4 ?set@arrayM_inlineValue@@SAXQAVmapM@@@PAXPAXPAXPAX@Z 
01:00001280 ?removeKey@arrayM_inlineValue@@SAXQAVmapM@@@PAXPAXPAX@Z 
01:00001298 ?clear@arrayM_inlineValue@@SAXQAVmodifiable@@@PAX@Z 
01:000012B0 ?_getAll_nd@arrayM_inlineValue@@SAXQAVcollection@@@PAXPAPAX@Z 
01:000012CC ?_upFrom_nd@arrayM_inlineValue@@SAXQAVmap@@@PAXPAXPAXPAPAUtuple_struct@core@@PAPAXPAPAX@Z 
01:00001358 ?_downFrom_nd@arrayM_inlineValue@@SAXQAVmap@@@PAXPAXPAXPAPAUtuple_struct@core@@PAPAXPAPAX@Z 
01:000013DC ?elemSize@arrayM_inlineValue@@SGPBUbyteCount@@QAV1@@PAX@Z 
01:000013FC ?_new@arrayM_inlineValue@@SAXQAVrTypeLibrary@TypeLibraries@RunTime@VIP@@PBUpositive@@PAUboolean_struct@_builtIn@@PAPAVarrayM_inline@@@PAPAX@Z  (Idle)
01:00001430 ?_newAtomic@arrayM_inlineValue@@SAXQAVrTypeLibrary@TypeLibraries@RunTime@VIP@@PBUpositive@@PAPAVarrayM_inline@@@PAPAX@Z  (Idle)
01:00001460 ?_newNonAtomic@arrayM_inlineValue@@SAXQAVrTypeLibrary@TypeLibraries@RunTime@VIP@@PBUpositive@@PAPAVarrayM_inline@@@PAPAX@Z  (Idle)
--- From 'Obj\shell_api.76DAFA28.obj'
01:00001490 ?_newPointer@arrayM_inlineValue@@SAXQAVrTypeLibrary@TypeLibraries@RunTime@VIP@@PAXPBUpositive@@PAPAVarrayM_inline@@@PAPAX@Z 
--- From 'Obj\arraym_inline.0830C9D1.obj'
01:000014C4 ?_new_list@arrayM_inlineValue@@SAXQAVrTypeLibrary@TypeLibraries@RunTime@VIP@@PAU?$__packedList_struct@PAX@@PAUboolean_struct@_builtIn@@PAPAVarrayM_inline@@@PAPAX@Z  (Idle)
01:000014F8 ?_object_typelib_initializer@arrayM_inlineValue@@SGXQAV1@@PAXQAVrTypeLibrary@TypeLibraries@RunTime@VIP@@@Z 
01:00001510 ?data@arrayM_inlineValue@@SGPAXQAVarrayM_inline@@@PAX@Z 
01:0000151C ?size@arrayM_inlineValue@@SGPBUpositive@@QAVarrayM_inline@@@PAX@Z 
01:00001528 ?newAtomic@arrayM_inline@@SAXQAV1@@PAXQAVrTypeLibrary@TypeLibraries@RunTime@VIP@@PBUpositive@@@Z  (Idle)
01:0000153C ?newNonAtomic@arrayM_inline@@SAXQAV1@@PAXQAVrTypeLibrary@TypeLibraries@RunTime@VIP@@PBUpositive@@@Z  (Idle)
01:00001550 ?new@arrayM_inline@@SAXQAV1@@PAXQAVrTypeLibrary@TypeLibraries@RunTime@VIP@@PBUpositive@@PAUboolean_struct@_builtIn@@@Z 
01:000015A0 ?newHead@arrayM_inline@@SAXQAV1@@PAXQAVrTypeLibrary@TypeLibraries@RunTime@VIP@@PAXPBUpositive@@PAUboolean_struct@_builtIn@@@Z  (Idle)
01:000015AC ?newPointer@arrayM_inline@@SAXQAV1@@PAXQAVrTypeLibrary@TypeLibraries@RunTime@VIP@@PAXPBUpositive@@PAUboolean_struct@_builtIn@@@Z 
01:000015EC ?new_list@arrayM_inline@@SAXQAV1@@PAXQAVrTypeLibrary@TypeLibraries@RunTime@VIP@@PAU?$__packedList_struct@PAX@@PAUboolean_struct@_builtIn@@@Z  (Idle)
01:00001694 ?_tryGetElemPointer@arrayM_inline@@SAXQAV1@@PAXPBUpositive@@PAPAX@Z  (Idle)
01:000016F4 ?_tryGet@arrayM_inline@@SAXQAVmap@@@PAXPAXPAXPAPAX@Z 
01:00001758 ?set@arrayM_inline@@SAXQAVmapM@@@PAXPAXPAXPAX@Z 
01:000017EC ?removeKey@arrayM_inline@@SAXQAVmapM@@@PAXPAXPAX@Z 
01:00001804 ?clear@arrayM_inline@@SAXQAVmodifiable@@@PAX@Z 
01:0000181C ?_getAll_nd@arrayM_inline@@SAXQAVcollection@@@PAXPAPAX@Z 
01:00001838 ?_upFrom_nd@arrayM_inline@@SAXQAVmap@@@PAXPAXPAXPAPAUtuple_struct@core@@PAPAXPAPAX@Z 
01:000018C4 ?_downFrom_nd@arrayM_inline@@SAXQAVmap@@@PAXPAXPAXPAPAUtuple_struct@core@@PAPAXPAPAX@Z 
01:00001948 ?elemSize@arrayM_inline@@SGPBUbyteCount@@QAV1@@PAX@Z 
01:00001968 ?_new@arrayM_inline@@SAXQAVrTypeLibrary@TypeLibraries@RunTime@VIP@@PBUpositive@@PAUboolean_struct@_builtIn@@PAPAV1@@PAPAX@Z  (Idle)
01:0000199C ?_newAtomic@arrayM_inline@@SAXQAVrTypeLibrary@TypeLibraries@RunTime@VIP@@PBUpositive@@PAPAV1@@PAPAX@Z  (Idle)
01:000019CC ?_newNonAtomic@arrayM_inline@@SAXQAVrTypeLibrary@TypeLibraries@RunTime@VIP@@PBUpositive@@PAPAV1@@PAPAX@Z  (Idle)
01:000019FC ?_newHead@arrayM_inline@@SAXQAVrTypeLibrary@TypeLibraries@RunTime@VIP@@PAXPBUpositive@@PAUboolean_struct@_builtIn@@PAPAV1@@PAPAX@Z  (Idle)
01:00001A30 ?_newPointer@arrayM_inline@@SAXQAVrTypeLibrary@TypeLibraries@RunTime@VIP@@PAXPBUpositive@@PAUboolean_struct@_builtIn@@PAPAV1@@PAPAX@Z  (Idle)
01:00001A64 ?_new_list@arrayM_inline@@SAXQAVrTypeLibrary@TypeLibraries@RunTime@VIP@@PAU?$__packedList_struct@PAX@@PAUboolean_struct@_builtIn@@PAPAV1@@PAPAX@Z  (Idle)
01:00001A98 ?_object_typelib_initializer@arrayM_inline@@SGXQAV1@@PAXQAVrTypeLibrary@TypeLibraries@RunTime@VIP@@@Z 
01:00001AB0 ?data@arrayM_inline@@SGPAXQAV1@@PAX@Z 
01:00001ABC ?size@arrayM_inline@@SGPBUpositive@@QAV1@@PAX@Z 
01:00001E8C arrayM_inlineValue{@ItemType}?_initObject@@@QAGXQAV1@H@Z 
01:00001ECC ?@create_object@arrayM_inlineValue@@SGQAV1@@PAXQAVrTypeLibrary@TypeLibraries@RunTime@VIP@@@Z 
01:00001EF0 arrayM_inlineValue{@ItemType}?_InternalFinalizer@@@QAGXQAV1@@Z 
01:000022C4 arrayM_inline{@ItemType}?_initObject@@@QAGXQAV1@H@Z 
01:00002304 ?@create_object@arrayM_inline@@SGQAV1@@PAXQAVrTypeLibrary@TypeLibraries@RunTime@VIP@@@Z 
01:00002328 arrayM_inline{@ItemType}?_InternalFinalizer@@@QAGXQAV1@@Z 
--- From 'Obj\redblacktree.61DB29D3.obj'
01:00002340 ?_anonymous$c0$1$empty/0$redBlackTree@1@SAXPAUanonymous$c0$1$empty/0$redBlackTreec_struct@1@PAXPAXPAPAUcompareResult_struct@_builtIn@@@Z 
01:00002358 ?_empty@redBlackTree@@SAXQAVrTypeLibrary@TypeLibraries@RunTime@VIP@@0PAPAUtree_struct@1@PAPAXPAPAX@Z  (Idle)
01:000023CC ?_anonymous$c0$1$emptyUnique/0$redBlackTree@1@SAXPAUanonymous$c0$1$emptyUnique/0$redBlackTreec_struct@1@PAXPAXPAPAUcompareResult_struct@_builtIn@@@Z 
--- From 'Obj\mapm_redblack.B30CE1C9.obj'
01:000023E4 ?_emptyUnique@redBlackTree@@SAXQAVrTypeLibrary@TypeLibraries@RunTime@VIP@@0PAPAUtree_struct@1@PAPAXPAPAX@Z 
--- From 'Obj\redblacktree.61DB29D3.obj'
01:00002458 ?_emptyCustom@redBlackTree@@SAXQAVrTypeLibrary@TypeLibraries@RunTime@VIP@@0XPAPAUtree_struct@1@PAPAXPAPAX@Z  (Idle)
--- From 'Obj\mapm_redblack.B30CE1C9.obj'
01:000024A4 ?_emptyCustomUnique@redBlackTree@@SAXQAVrTypeLibrary@TypeLibraries@RunTime@VIP@@0XPAPAUtree_struct@1@PAPAXPAPAX@Z 
01:000024F0 ?_emptySameKind@redBlackTree@@SAXQAVrTypeLibrary@TypeLibraries@RunTime@VIP@@0PAUtree_struct@1@PAXPAXPAPAU21@PAPAXPAPAX@Z 
--- From 'Obj\redblacktree.61DB29D3.obj'
01:00002528 ?isEmpty@redBlackTree@@SAXQAVrTypeLibrary@TypeLibraries@RunTime@VIP@@0PAUtree_struct@1@PAXPAX@Z  (Idle)
--- From 'Obj\mapm_redblack.B30CE1C9.obj'
01:00002548 ?_insert@redBlackTree@@SAXQAVrTypeLibrary@TypeLibraries@RunTime@VIP@@0PAUtree_struct@1@PAXPAXPAXPAXPAPAU21@PAPAXPAPAX@Z 
--- From 'Obj\redblacktree.61DB29D3.obj'
01:000025B0 ?_delete@redBlackTree@@SAXQAVrTypeLibrary@TypeLibraries@RunTime@VIP@@0PAUtree_struct@1@PAXPAXPAXPAXPAPAU21@PAPAXPAPAX@Z  (Idle)
--- From 'Obj\mapm_redblack.B30CE1C9.obj'
01:00002618 ?_tryDeleteOne@redBlackTree@@SAXQAVrTypeLibrary@TypeLibraries@RunTime@VIP@@0PAUtree_struct@1@PAXPAXPAXPAPAXPAPAU21@PAPAXPAPAX@Z 
--- From 'Obj\redblacktree.61DB29D3.obj'
01:00002680 ?_tryDeleteFirst@redBlackTree@@SAXQAVrTypeLibrary@TypeLibraries@RunTime@VIP@@0PAUtree_struct@1@PAXPAXPAPAX3PAPAU21@PAPAXPAPAX@Z  (Idle)
01:000026CC ?_lookUp_nd@redBlackTree@@SAXQAVrTypeLibrary@TypeLibraries@RunTime@VIP@@0PAUtree_struct@1@PAXPAXPAXPAPAX@Z  (Idle)
--- From 'Obj\mapm_redblack.B30CE1C9.obj'
01:00002708 ?_tryLookUp@redBlackTree@@SAXQAVrTypeLibrary@TypeLibraries@RunTime@VIP@@0PAUtree_struct@1@PAXPAXPAXPAPAX@Z 
01:00002730 ?_getAll_nd@redBlackTree@@SAXQAVrTypeLibrary@TypeLibraries@RunTime@VIP@@0PAUtree_struct@1@PAXPAXPAPAUtuple_struct@core@@PAPAXPAPAX@Z 
01:00002784 ?_upFrom_nd@redBlackTree@@SAXQAVrTypeLibrary@TypeLibraries@RunTime@VIP@@0PAUtree_struct@1@PAXPAXPAXPAPAUtuple_struct@core@@PAPAXPAPAX@Z 
01:000027C0 ?_downFrom_nd@redBlackTree@@SAXQAVrTypeLibrary@TypeLibraries@RunTime@VIP@@0PAUtree_struct@1@PAXPAXPAXPAPAUtuple_struct@core@@PAPAXPAPAX@Z 
--- From 'Obj\redblacktree.61DB29D3.obj'
01:000027FC ?_comp@redBlackTree@@SAXQAVrTypeLibrary@TypeLibraries@RunTime@VIP@@PAUtreeProperty_struct@1@PAXPAXPAXPAPAUcompareResult_struct@_builtIn@@@Z  (Idle)
01:0000282C ?tryGetNode@redBlackTree@@SAXQAVrTypeLibrary@TypeLibraries@RunTime@VIP@@0PAUtreeRep_struct@1@PAXPAXPAPAU21@PAPAXPAPAXPAPAX43@Z  (Idle)
01:000028AC ?_find_nd_rep@redBlackTree@@SAXQAVrTypeLibrary@TypeLibraries@RunTime@VIP@@0PAUtreeProperty_struct@1@PAXPAXPAUtreeRep_struct@1@PAXPAXPAPAX@Z 
01:00002930 ?_find_nd_rep1@redBlackTree@@SAXQAVrTypeLibrary@TypeLibraries@RunTime@VIP@@0PAUtreeProperty_struct@1@PAXPAUcompareResult_struct@_builtIn@@PAXPAUtreeRep_struct@1@PAXPAXPAX5PAPAX@Z 
01:00002A14 ?get_nd_rep@redBlackTree@@SAXQAVrTypeLibrary@TypeLibraries@RunTime@VIP@@0PAUtreeRep_struct@1@PAXPAXPAPAX3@Z 
01:00002AC4 ?_upFrom_nd_rep@redBlackTree@@SAXQAVrTypeLibrary@TypeLibraries@RunTime@VIP@@0PAUtreeProperty_struct@1@PAXPAXPAUtreeRep_struct@1@PAXPAXPAPAUtuple_struct@core@@PAPAXPAPAX@Z 
01:00002B58 ?_upFrom_nd_rep1@redBlackTree@@SAXQAVrTypeLibrary@TypeLibraries@RunTime@VIP@@0PAUtreeProperty_struct@1@PAXPAUcompareResult_struct@_builtIn@@PAXPAUtreeRep_struct@1@PAXPAXPAXPAX5PAPAUtuple_struct@core@@PAPAXPAPAX@Z 
01:00002C28 ?_downFrom_nd_rep@redBlackTree@@SAXQAVrTypeLibrary@TypeLibraries@RunTime@VIP@@0PAUtreeProperty_struct@1@PAXPAXPAUtreeRep_struct@1@PAXPAXPAPAUtuple_struct@core@@PAPAXPAPAX@Z 
01:00002CBC ?_downFrom_nd_rep1@redBlackTree@@SAXQAVrTypeLibrary@TypeLibraries@RunTime@VIP@@0PAUtreeProperty_struct@1@PAXPAUcompareResult_struct@_builtIn@@PAXPAUtreeRep_struct@1@PAXPAXPAXPAX5PAPAUtuple_struct@core@@PAPAXPAPAX@Z 
01:00002D8C ?_insert_rep@redBlackTree@@SAXQAVrTypeLibrary@TypeLibraries@RunTime@VIP@@0PAUtreeProperty_struct@1@PAXPAXPAXPAUtreeRep_struct@1@PAXPAXPAPAU41@PAPAXPAPAX@Z 
01:00002DC8 ?_ins@redBlackTree@@SAXQAVrTypeLibrary@TypeLibraries@RunTime@VIP@@0PAUtreeProperty_struct@1@PAXPAXPAXPAUtreeRep_struct@1@PAXPAXPAPAU41@PAPAXPAPAX@Z 
01:00002F54 ?_ins_black@redBlackTree@@SAXQAVrTypeLibrary@TypeLibraries@RunTime@VIP@@0PAUtreeProperty_struct@1@PAXPAUcompareResult_struct@_builtIn@@PAXPAXPAUtreeRep_struct@1@PAXPAXPAXPAX6PAPAU61@PAPAXPAPAX@Z 
01:00003090 ?_ins_red@redBlackTree@@SAXQAVrTypeLibrary@TypeLibraries@RunTime@VIP@@0PAUtreeProperty_struct@1@PAXPAUcompareResult_struct@_builtIn@@PAXPAXPAUtreeRep_struct@1@PAXPAXPAXPAX6PAPAU61@PAPAXPAPAX@Z 
01:000031DC ?_balance@redBlackTree@@SAXQAVrTypeLibrary@TypeLibraries@RunTime@VIP@@0PAUtreeRep_struct@1@PAXPAXPAXPAX2PAPAU21@PAPAXPAPAX@Z 
01:00003B30 ?_makeblack@redBlackTree@@SAXQAVrTypeLibrary@TypeLibraries@RunTime@VIP@@0PAUtreeRep_struct@1@PAXPAXPAPAU21@PAPAXPAPAX@Z 
01:00003BB0 ?_delete_rep@redBlackTree@@SAXQAVrTypeLibrary@TypeLibraries@RunTime@VIP@@0PAUtreeProperty_struct@1@PAXPAXPAXPAUtreeRep_struct@1@PAXPAXPAPAU41@PAPAXPAPAX@Z 
01:00003C04 ?del@redBlackTree@@SAXQAVrTypeLibrary@TypeLibraries@RunTime@VIP@@0PAUtreeProperty_struct@1@PAXPAXPAXPAUtreeRep_struct@1@PAXPAXPAPAU41@PAPAXPAPAXPAPAUboolean_struct@_builtIn@@@Z 
01:00003CD8 ?del1@redBlackTree@@SAXQAVrTypeLibrary@TypeLibraries@RunTime@VIP@@0PAUtreeProperty_struct@1@PAXPAUcompareResult_struct@_builtIn@@PAXPAXPAUtreeRep_struct@1@PAXPAXPAXPAX6PAPAU61@PAPAXPAPAXPAPAUboolean_struct@5@@Z 
01:00003E2C ?delLeft@redBlackTree@@SAXQAVrTypeLibrary@TypeLibraries@RunTime@VIP@@0PAUtreeProperty_struct@1@PAXPAXPAXPAUtreeRep_struct@1@PAXPAXPAXPAX5PAPAU41@PAPAXPAPAXPAPAUboolean_struct@_builtIn@@@Z 
01:00003EDC ?delRight@redBlackTree@@SAXQAVrTypeLibrary@TypeLibraries@RunTime@VIP@@0PAUtreeProperty_struct@1@PAXPAXPAXPAUtreeRep_struct@1@PAXPAXPAXPAX5PAPAU41@PAPAXPAPAXPAPAUboolean_struct@_builtIn@@@Z 
01:00003F98 ?_tryDeleteOne_rep@redBlackTree@@SAXQAVrTypeLibrary@TypeLibraries@RunTime@VIP@@0PAUtreeProperty_struct@1@PAXPAXPAUtreeRep_struct@1@PAXPAXPAPAXPAPAU41@PAPAXPAPAX@Z 
01:00003FD4 ?_tryDel@redBlackTree@@SAXQAVrTypeLibrary@TypeLibraries@RunTime@VIP@@0PAUtreeProperty_struct@1@PAXPAXPAUtreeRep_struct@1@PAXPAXPAPAXPAPAU41@PAPAXPAPAX@Z 
01:00004074 ?_tryDel1@redBlackTree@@SAXQAVrTypeLibrary@TypeLibraries@RunTime@VIP@@0PAUtreeProperty_struct@1@PAXPAUcompareResult_struct@_builtIn@@PAXPAUtreeRep_struct@1@PAXPAXPAXPAX5PAPAXPAPAU61@PAPAXPAPAX@Z 
01:00004114 ?_tryDelLeft@redBlackTree@@SAXQAVrTypeLibrary@TypeLibraries@RunTime@VIP@@0PAUtreeProperty_struct@1@PAXPAXPAUtreeRep_struct@1@PAXPAXPAXPAX4PAPAXPAPAU41@PAPAXPAPAX@Z 
01:000041C8 ?_tryDelRight@redBlackTree@@SAXQAVrTypeLibrary@TypeLibraries@RunTime@VIP@@0PAUtreeProperty_struct@1@PAXPAXPAUtreeRep_struct@1@PAXPAXPAXPAX4PAPAXPAPAU41@PAPAXPAPAX@Z 
01:00004288 ?_balLeft@redBlackTree@@SAXQAVrTypeLibrary@TypeLibraries@RunTime@VIP@@0PAUtreeRep_struct@1@PAXPAXPAXPAX2PAPAU21@PAPAXPAPAX@Z 
01:00004580 ?_balRight@redBlackTree@@SAXQAVrTypeLibrary@TypeLibraries@RunTime@VIP@@0PAUtreeRep_struct@1@PAXPAXPAXPAX2PAPAU21@PAPAXPAPAX@Z 
01:00004884 ?_sub1@redBlackTree@@SAXQAVrTypeLibrary@TypeLibraries@RunTime@VIP@@0PAUtreeRep_struct@1@PAXPAXPAPAU21@PAPAXPAPAX@Z 
01:00004914 ?_mkNode@redBlackTree@@SAXQAVrTypeLibrary@TypeLibraries@RunTime@VIP@@0PAUtreeRep_struct@1@PAXPAX2PAPAU21@PAPAXPAPAX@Z 
01:00004C28 ?_mkNodeRR_BC@redBlackTree@@SAXQAVrTypeLibrary@TypeLibraries@RunTime@VIP@@0PAUtreeRep_struct@1@PAXPAXPAXPAX2PAXPAX2PAPAU21@PAPAXPAPAX@Z 
01:00004D44 ?_mkNodeBB_BC@redBlackTree@@SAXQAVrTypeLibrary@TypeLibraries@RunTime@VIP@@0PAUtreeRep_struct@1@PAXPAXPAXPAX2PAXPAX2PAPAU21@PAPAXPAPAX@Z 
--- From 'Obj\mapm_redblack.B30CE1C9.obj'
01:00004E60 ?new@mapMSupport@collectionSupportM@@SAXQAV1@2@PAXPAXQAVrTypeLibrary@TypeLibraries@RunTime@VIP@@1QAVmapMSite@@2@PAXPAX@Z 
--- From 'Obj\mapmsupport.B5C5E982.obj'
01:00004EB4 ?_get@mapMSupport@collectionSupportM@@SAXQAV1@@PAXPAXPAXPAPAX@Z 
01:00004F2C ?_get_default@mapMSupport@collectionSupportM@@SAXQAV1@@PAXPAXPAXPAXPAPAX@Z 
01:00004F70 ?_get_defaultLazy@mapMSupport@collectionSupportM@@SAXQAV1@@PAXPAXPAXXPAPAX@Z 
01:00004FC8 ?_get_optional@mapMSupport@collectionSupportM@@SAXQAV1@@PAXPAXPAXPAPAUoptional_struct@core@@PAPAX@Z 
01:00005028 ?contains@mapMSupport@collectionSupportM@@SAXQAV1@@PAXPAXPAUtuple_struct@core@@PAXPAX@Z 
01:00005070 ?_getKey_nd@mapMSupport@collectionSupportM@@SAXQAV1@@PAXPAXPAPAX@Z 
01:000050A0 ?_getValue_nd@mapMSupport@collectionSupportM@@SAXQAV1@@PAXPAXPAPAX@Z 
01:000050D4 ?keyList@mapMSupport@collectionSupportM@@SGPAU?$__packedList_struct@PAX@@QAV1@@PAXPAX@Z 
01:00005138 ?valueList@mapMSupport@collectionSupportM@@SGPAU?$__packedList_struct@PAX@@QAV1@@PAXPAX@Z 
01:0000519C ?insert@mapMSupport@collectionSupportM@@SAXQAV1@@PAXPAXPAUtuple_struct@core@@PAXPAX@Z 
01:000051D8 ?set_optional@mapMSupport@collectionSupportM@@SAXQAV1@@PAXPAXPAXPAUoptional_struct@core@@PAX@Z 
01:00005220 ?remove@mapMSupport@collectionSupportM@@SAXQAV1@@PAXPAXPAUtuple_struct@core@@PAXPAX@Z 
01:000052CC ?removeKeyList@mapMSupport@collectionSupportM@@SAXQAV1@@PAXPAXPAU?$__packedList_struct@PAX@@@Z 
01:00005314 ?removeKeyCollection@mapMSupport@collectionSupportM@@SAXQAV1@@PAXPAXQAVcollection@@@PAX@Z 
01:0000535C ?_new@mapMSupport@collectionSupportM@@SAXQAVrTypeLibrary@TypeLibraries@RunTime@VIP@@0QAVmapMSite@@2@PAXPAXPAPAV1@@PAPAXPAPAX@Z  (Idle)
01:00005398 ?_object_typelib_initializer@mapMSupport@collectionSupportM@@SGXQAV1@2@PAXPAXQAVrTypeLibrary@TypeLibraries@RunTime@VIP@@1@Z 
01:000053B4 ?_mk_tl_0_collectionSupportM\collectionMsupport{@Type}$imp$@mapMSupport@collectionSupportM@@SGQAVrTypeLibrary@TypeLibraries@RunTime@VIP@@QAV1@2@PAXPAX@Z 
01:000053F8 ?_getAll_nd@mapMSupport@collectionSupportM@@SAXQAVcollectionSite@@collectionSupport@@PAXPAPAX@Z 
--- From 'Obj\mapm_redblack.B30CE1C9.obj'
01:000054E0 collectionSupportM\mapMSupport{@Key,@Data}?_initObject@@@QAGXQAV1@H@Z 
--- From 'Obj\mapmsupport.B5C5E982.obj'
01:00005534 ?@create_object@mapMSupport@collectionSupportM@@SGQAV1@2@PAXPAXQAVrTypeLibrary@TypeLibraries@RunTime@VIP@@0@Z 
--- From 'Obj\mapm_redblack.B30CE1C9.obj'
01:0000555C collectionSupportM\mapMSupport{@Key,@Data}?_InternalFinalizer@@@QAGXQAV1@@Z 
--- From 'Obj\setm_redblack.93FF0DB0.obj'
01:00005570 ?new@collectionMsupport@collectionSupportM@@SAXQAV1@2@PAXQAVrTypeLibrary@TypeLibraries@RunTime@VIP@@QAVcollectionMsite@@2@PAX@Z 
--- From 'Obj\collectionmsupport.1078EA0D.obj'
01:000055A8 ?insertList@collectionMsupport@collectionSupportM@@SAXQAV1@2@PAXPAU?$__packedList_struct@PAX@@@Z 
01:000055F0 ?insertCollection@collectionMsupport@collectionSupportM@@SAXQAV1@2@PAXQAVcollection@@@PAX@Z 
01:00005638 ?insertEnumerator@collectionMsupport@collectionSupportM@@SAXQAV1@2@PAXX@Z 
01:00005688 ?removeList@collectionMsupport@collectionSupportM@@SAXQAV1@2@PAXPAU?$__packedList_struct@PAX@@@Z 
01:000056D0 ?removeCollection@collectionMsupport@collectionSupportM@@SAXQAV1@2@PAXQAVcollection@@@PAX@Z 
01:00005718 ?_tryRemoveFirst@collectionMsupport@collectionSupportM@@SAXQAV1@2@PAXPAPAX@Z 
01:0000574C ?_new@collectionMsupport@collectionSupportM@@SAXQAVrTypeLibrary@TypeLibraries@RunTime@VIP@@QAVcollectionMsite@@2@PAXPAPAV1@2@PAPAX@Z  (Idle)
01:00005780 ?_object_typelib_initializer@collectionMsupport@collectionSupportM@@SGXQAV1@2@PAXQAVrTypeLibrary@TypeLibraries@RunTime@VIP@@@Z 
--- From 'Obj\setm_redblack.93FF0DB0.obj'
01:000057F0 collectionSupportM\collectionMsupport{@Type}?_initObject@@@QAGXQAV1@H@Z 
--- From 'Obj\collectionmsupport.1078EA0D.obj'
01:00005830 ?@create_object@collectionMsupport@collectionSupportM@@SGQAV1@2@PAXQAVrTypeLibrary@TypeLibraries@RunTime@VIP@@@Z 
--- From 'Obj\setm_redblack.93FF0DB0.obj'
01:00005854 collectionSupportM\collectionMsupport{@Type}?_InternalFinalizer@@@QAGXQAV1@@Z 
--- From 'Obj\collectionsupport.FBE6D943.obj'
01:00005870 ?new@collectionSupport@1@SAXQAV1@1@PAXQAVrTypeLibrary@TypeLibraries@RunTime@VIP@@QAVcollectionSite@@1@PAX@Z 
01:00005884 ?isEmpty@collectionSupport@1@SAXQAV1@1@PAX@Z 
01:000058CC ?_tryGetFirst@collectionSupport@1@SAXQAV1@1@PAXPAPAX@Z 
01:000058F4 ?asList@collectionSupport@1@SGPAU?$__packedList_struct@PAX@@QAV1@1@PAX@Z 
01:00005960 ?_new@collectionSupport@1@SAXQAVrTypeLibrary@TypeLibraries@RunTime@VIP@@QAVcollectionSite@@1@PAXPAPAV1@1@PAPAX@Z  (Idle)
01:00005994 ?_object_typelib_initializer@collectionSupport@1@SGXQAV1@1@PAXQAVrTypeLibrary@TypeLibraries@RunTime@VIP@@@Z 
01:000059B4 collectionSupport\collectionSupport{@Type}?_initObject@@@QAGXQAV1@H@Z 
01:000059D8 ?@create_object@collectionSupport@1@SGQAV1@1@PAXQAVrTypeLibrary@TypeLibraries@RunTime@VIP@@@Z 
01:000059FC collectionSupport\collectionSupport{@Type}?_InternalFinalizer@@@QAGXQAV1@@Z 
--- From 'Obj\redblackset.D207E793.obj'
01:00005A10 ?_anonymous$c0$1$empty/0$redBlackSet@1@SAXPAUanonymous$c0$1$empty/0$redBlackSetc_struct@1@PAXPAXPAPAUcompareResult_struct@_builtIn@@@Z 
--- From 'Obj\setm_redblack.93FF0DB0.obj'
01:00005A28 ?_empty@redBlackSet@@SAXQAVrTypeLibrary@TypeLibraries@RunTime@VIP@@PAPAUset_struct@1@PAPAX@Z 
01:00005A7C ?_emptyCustom@redBlackSet@@SAXQAVrTypeLibrary@TypeLibraries@RunTime@VIP@@XPAPAUset_struct@1@PAPAX@Z 
01:00005AA8 ?_emptySameKind@redBlackSet@@SAXQAVrTypeLibrary@TypeLibraries@RunTime@VIP@@PAUset_struct@1@PAXPAPAU21@PAPAX@Z 
--- From 'Obj\redblackset.D207E793.obj'
01:00005AE0 ?isEmpty@redBlackSet@@SAXQAVrTypeLibrary@TypeLibraries@RunTime@VIP@@PAUset_struct@1@PAX@Z  (Idle)
--- From 'Obj\setm_redblack.93FF0DB0.obj'
01:00005AF8 ?_insert@redBlackSet@@SAXQAVrTypeLibrary@TypeLibraries@RunTime@VIP@@PAUset_struct@1@PAXPAXPAPAU21@PAPAX@Z 
01:00005B58 ?_delete@redBlackSet@@SAXQAVrTypeLibrary@TypeLibraries@RunTime@VIP@@PAUset_struct@1@PAXPAXPAPAU21@PAPAX@Z 
--- From 'Obj\redblackset.D207E793.obj'
01:00005BB8 ?_tryDeleteFirst@redBlackSet@@SAXQAVrTypeLibrary@TypeLibraries@RunTime@VIP@@PAUset_struct@1@PAXPAPAXPAPAU21@PAPAX@Z  (Idle)
--- From 'Obj\setm_redblack.93FF0DB0.obj'
01:00005BE8 ?isMember@redBlackSet@@SAXQAVrTypeLibrary@TypeLibraries@RunTime@VIP@@PAXPAUset_struct@1@PAX@Z 
01:00005C1C ?_getAll_nd@redBlackSet@@SAXQAVrTypeLibrary@TypeLibraries@RunTime@VIP@@PAUset_struct@1@PAXPAPAX@Z 
--- From 'Obj\redblackset.D207E793.obj'
01:00005C34 ?_getAll_multi@redBlackSet@@SAXQAVrTypeLibrary@TypeLibraries@RunTime@VIP@@PAUset_struct@1@PAXPAPAX@Z  (Idle)
--- From 'Obj\setm_redblack.93FF0DB0.obj'
01:00005C4C ?_upFrom_nd@redBlackSet@@SAXQAVrTypeLibrary@TypeLibraries@RunTime@VIP@@PAUset_struct@1@PAXPAXPAPAX@Z 
--- From 'Obj\redblackset.D207E793.obj'
01:00005C88 ?_up_nd@redBlackSet@@SAXQAVrTypeLibrary@TypeLibraries@RunTime@VIP@@PAUset_struct@1@PAXPAPAX@Z  (Idle)
01:00005CA0 ?_tryGetMin@redBlackSet@@SAXQAVrTypeLibrary@TypeLibraries@RunTime@VIP@@PAUset_struct@1@PAXPAPAX@Z  (Idle)
--- From 'Obj\setm_redblack.93FF0DB0.obj'
01:00005CC4 ?_downFrom_nd@redBlackSet@@SAXQAVrTypeLibrary@TypeLibraries@RunTime@VIP@@PAUset_struct@1@PAXPAXPAPAX@Z 
--- From 'Obj\redblackset.D207E793.obj'
01:00005D00 ?_down_nd@redBlackSet@@SAXQAVrTypeLibrary@TypeLibraries@RunTime@VIP@@PAUset_struct@1@PAXPAPAX@Z  (Idle)
01:00005D18 ?_tryGetMax@redBlackSet@@SAXQAVrTypeLibrary@TypeLibraries@RunTime@VIP@@PAUset_struct@1@PAXPAPAX@Z  (Idle)
01:00005D3C ?find_nd_rep@redBlackSet@@SAXQAVrTypeLibrary@TypeLibraries@RunTime@VIP@@XPAXPAUsetRep_struct@1@PAX@Z 
01:00005DAC ?find_nd_rep1@redBlackSet@@SAXQAVrTypeLibrary@TypeLibraries@RunTime@VIP@@XPAUcompareResult_struct@_builtIn@@PAXPAUsetRep_struct@1@PAX4@Z 
01:00005DF0 ?_get_nd_rep@redBlackSet@@SAXQAVrTypeLibrary@TypeLibraries@RunTime@VIP@@PAUsetRep_struct@1@PAXPAPAX@Z 
01:00005E80 ?_get_multi_rep@redBlackSet@@SAXQAVrTypeLibrary@TypeLibraries@RunTime@VIP@@PAUsetRep_struct@1@PAXPAPAX@Z 
01:00005F58 ?_upFrom_nd_rep@redBlackSet@@SAXQAVrTypeLibrary@TypeLibraries@RunTime@VIP@@XPAXPAUsetRep_struct@1@PAXPAPAX@Z 
01:00005FDC ?_upFrom_nd_rep1@redBlackSet@@SAXQAVrTypeLibrary@TypeLibraries@RunTime@VIP@@XPAUcompareResult_struct@_builtIn@@PAXPAUsetRep_struct@1@PAXPAX4PAPAX@Z 
01:00006090 ?_downFrom_nd_rep@redBlackSet@@SAXQAVrTypeLibrary@TypeLibraries@RunTime@VIP@@XPAXPAUsetRep_struct@1@PAXPAPAX@Z 
01:00006114 ?_downFrom_nd_rep1@redBlackSet@@SAXQAVrTypeLibrary@TypeLibraries@RunTime@VIP@@XPAUcompareResult_struct@_builtIn@@PAXPAUsetRep_struct@1@PAXPAX4PAPAX@Z 
01:000061C8 ?_down_nd_rep@redBlackSet@@SAXQAVrTypeLibrary@TypeLibraries@RunTime@VIP@@PAUsetRep_struct@1@PAXPAPAX@Z 
01:00006258 ?tryGetNode@redBlackSet@@SAXQAVrTypeLibrary@TypeLibraries@RunTime@VIP@@PAUsetRep_struct@1@PAXPAPAU21@PAPAXPAPAX2@Z 
01:000062C8 ?_insert_rep@redBlackSet@@SAXQAVrTypeLibrary@TypeLibraries@RunTime@VIP@@XPAXPAUsetRep_struct@1@PAXPAPAU21@PAPAX@Z 
01:00006320 ?_tryIns@redBlackSet@@SAXQAVrTypeLibrary@TypeLibraries@RunTime@VIP@@XPAXPAUsetRep_struct@1@PAXPAPAU21@PAPAX@Z 
01:00006470 ?_tryIns_black@redBlackSet@@SAXQAVrTypeLibrary@TypeLibraries@RunTime@VIP@@XPAUcompareResult_struct@_builtIn@@PAXPAUsetRep_struct@1@PAXPAX4PAPAU41@PAPAX@Z 
01:00006504 ?_tryIns_red@redBlackSet@@SAXQAVrTypeLibrary@TypeLibraries@RunTime@VIP@@XPAUcompareResult_struct@_builtIn@@PAXPAUsetRep_struct@1@PAXPAX4PAPAU41@PAPAX@Z 
01:000065A8 ?_balance@redBlackSet@@SAXQAVrTypeLibrary@TypeLibraries@RunTime@VIP@@PAUsetRep_struct@1@PAXPAX1PAPAU21@PAPAX@Z 
01:00006DDC ?_makeblack@redBlackSet@@SAXQAVrTypeLibrary@TypeLibraries@RunTime@VIP@@PAUsetRep_struct@1@PAXPAPAU21@PAPAX@Z 
01:00006E50 ?_delete_rep@redBlackSet@@SAXQAVrTypeLibrary@TypeLibraries@RunTime@VIP@@XPAXPAUsetRep_struct@1@PAXPAPAU21@PAPAX@Z 
01:00006EA0 ?del@redBlackSet@@SAXQAVrTypeLibrary@TypeLibraries@RunTime@VIP@@XPAXPAUsetRep_struct@1@PAXPAPAU21@PAPAXPAPAUboolean_struct@_builtIn@@@Z 
01:00006F5C ?del1@redBlackSet@@SAXQAVrTypeLibrary@TypeLibraries@RunTime@VIP@@XPAUcompareResult_struct@_builtIn@@PAXPAUsetRep_struct@1@PAXPAX4PAPAU41@PAPAXPAPAUboolean_struct@3@@Z 
01:00006FF0 ?delLeft@redBlackSet@@SAXQAVrTypeLibrary@TypeLibraries@RunTime@VIP@@XPAXPAUsetRep_struct@1@PAXPAX3PAPAU21@PAPAXPAPAUboolean_struct@_builtIn@@@Z 
01:00007090 ?delRight@redBlackSet@@SAXQAVrTypeLibrary@TypeLibraries@RunTime@VIP@@XPAXPAUsetRep_struct@1@PAXPAX3PAPAU21@PAPAXPAPAUboolean_struct@_builtIn@@@Z 
01:00007138 ?_balLeft@redBlackSet@@SAXQAVrTypeLibrary@TypeLibraries@RunTime@VIP@@PAUsetRep_struct@1@PAXPAX1PAPAU21@PAPAX@Z 
01:000073EC ?_balRight@redBlackSet@@SAXQAVrTypeLibrary@TypeLibraries@RunTime@VIP@@PAUsetRep_struct@1@PAXPAX1PAPAU21@PAPAX@Z 
01:000076A4 ?_sub1@redBlackSet@@SAXQAVrTypeLibrary@TypeLibraries@RunTime@VIP@@PAUsetRep_struct@1@PAXPAPAU21@PAPAX@Z 
01:0000772C ?_mkNode@redBlackSet@@SAXQAVrTypeLibrary@TypeLibraries@RunTime@VIP@@PAUsetRep_struct@1@PAX1PAPAU21@PAPAX@Z 
01:000079DC ?_mkNodeRR_BC@redBlackSet@@SAXQAVrTypeLibrary@TypeLibraries@RunTime@VIP@@PAUsetRep_struct@1@PAXPAX1PAX1PAPAU21@PAPAX@Z 
01:00007AD8 ?_mkNodeBB_BC@redBlackSet@@SAXQAVrTypeLibrary@TypeLibraries@RunTime@VIP@@PAUsetRep_struct@1@PAXPAX1PAX1PAPAU21@PAPAX@Z 
--- From 'Obj\registry_api.1F62FF31.obj'
01:00007BD0 _RegDeleteKeyExW@16 
--- From 'Obj\registry.750278BD.obj'
01:00007BF4 ?_regOpenKeyEx@registry_api@@SAXPBUhKey@@PB_WPBUregsAM@@AAU2@@Z 
01:00007C3C ?_regTryOpenKeyEx@registry_api@@SAXPBUhKey@@PB_WPBUregsAM@@AAU2@@Z 
01:00007C64 ?regCloseKey@registry_api@@SAXPBUhKey@@@Z 
01:00007CF0 ?_regCreateKeyEx@registry_api@@SAXPBUhKey@@PB_WIPBUregsAM@@PAUsecurityAttr_struct@registry_native@@PAIAAU2@@Z 
01:00007D38 ?regDeleteKey@registry_api@@SAXPBUhKey@@PB_W@Z 
01:00007D78 ?regDeleteKeyEx@registry_api@@SAXPBUhKey@@PB_WPBUregsAM@@@Z 
01:00007DBC ?_regEnumKeyEx@registry_api@@SAXPBUhKey@@PAPAU?$__packedList_struct@Ustring@@@@@Z 
--- From 'Obj\registry_api.1F62FF31.obj'
01:00007E54 ?_regEnumKeyEx1@registry_api@@SAXPBUhKey@@IPB_WPBUcharCount@@PAPAU?$__packedList_struct@Ustring@@@@@Z 
01:00007ECC ?_tryRegEnumKeyExOne@registry_api@@SAXPBUhKey@@IPB_WPBUcharCount@@PAPB_W@Z 
--- From 'Obj\registry.750278BD.obj'
01:0000800C ?regSetValueEx@registry_api@@SAXPBUhKey@@PB_WPAUvalue_struct@core@@@Z 
01:0000807C ?_regQueryValueEx@registry_api@@SAXPBUhKey@@PB_WPAPAUvalue_struct@core@@@Z 
01:000080E0 ?_regTryQueryValueEx@registry_api@@SAXPBUhKey@@PB_WPAPAUvalue_struct@core@@@Z 
--- From 'Obj\registry_api.1F62FF31.obj'
01:00008134 ?_regQueryValueEx1@registry_api@@SAXPBUhKey@@PB_WPAUpByteCount_struct@memory@@PAPAUvalue_struct@core@@@Z 
01:000081BC ?regDeleteValue@registry_api@@SAXPBUhKey@@PB_W@Z  (Idle)
--- From 'Obj\registry.750278BD.obj'
01:000081F0 ?regDeleteValueIfExist@registry_api@@SAXPBUhKey@@PB_W@Z 
01:00008234 ?_regEnumValue@registry_api@@SAXPBUhKey@@PAPAU?$__packedList_struct@UnamedValue@@@@@Z 
--- From 'Obj\registry_api.1F62FF31.obj'
01:00008274 ?_regEnumValue1@registry_api@@SAXPBUhKey@@IPB_WPBUcharCount@@PAPAU?$__packedList_struct@UnamedValue@@@@@Z 
01:000082EC ?_tryRegEnumValueOne@registry_api@@SAXPBUhKey@@IPB_WPBUcharCount@@PAPAUnamedValue_struct@core@@@Z 
01:00008664 ?_packValue@registry_api@@SAXIPAXPBUbyteCount@@PAPAUvalue_struct@core@@@Z 
01:00008930 ?unpackValue@registry_api@@SAXPAUvalue_struct@core@@PAIPAPAXAAUbyteCount@@@Z 
01:00008CF8 ?_convertToStringList@registry_api@@SAXPAXPBUbyteCount@@PAPAU?$__packedList_struct@Ustring@@@@@Z 
01:00008DB8 ?check_name_value@registry_api@@SAXPBUhResult@@PB_W1PAUvalue_struct@core@@@Z 
01:00008E6C ?check_name@registry_api@@SAXPBUhResult@@PB_W1@Z 
--- From 'Obj\mapm_redblack.B30CE1C9.obj'
01:00008EF0 ?new@mapM_redBlack@@SAXQAV1@@PAXPAXQAVrTypeLibrary@TypeLibraries@RunTime@VIP@@1@Z  (Idle)
01:00008F38 ?newCustom@mapM_redBlack@@SAXQAV1@@PAXPAXQAVrTypeLibrary@TypeLibraries@RunTime@VIP@@1X@Z  (Idle)
01:00008F74 ?set@mapM_redBlack@@SAXQAVmapM@@@PAXPAXPAXPAX@Z 
01:00008FB8 ?_tryGet@mapM_redBlack@@SAXQAVmap@@@PAXPAXPAXPAPAX@Z 
01:00009000 ?_getAll_nd@mapM_redBlack@@SAXQAVcollection@@@PAXPAPAX@Z 
01:00009040 ?removeKey@mapM_redBlack@@SAXQAVmapM@@@PAXPAXPAX@Z 
01:00009098 ?clear@mapM_redBlack@@SAXQAVmodifiable@@@PAX@Z 
01:000090D4 ?_upFrom_nd@mapM_redBlack@@SAXQAVmap@@@PAXPAXPAXPAPAUtuple_struct@core@@PAPAXPAPAX@Z 
01:0000911C ?_downFrom_nd@mapM_redBlack@@SAXQAVmap@@@PAXPAXPAXPAPAUtuple_struct@core@@PAPAXPAPAX@Z 
--- From 'Obj\list.90A37E7A.obj'
01:00009164 ?_new@mapM_redBlack@@SAXQAVrTypeLibrary@TypeLibraries@RunTime@VIP@@0PAPAVmapM@@@PAPAXPAPAX@Z 
--- From 'Obj\mapm_redblack.B30CE1C9.obj'
01:00009198 ?_newCustom@mapM_redBlack@@SAXQAVrTypeLibrary@TypeLibraries@RunTime@VIP@@0XPAPAVmapM@@@PAPAXPAPAX@Z  (Idle)
01:000091CC ?_object_typelib_initializer@mapM_redBlack@@SGXQAV1@@PAXPAXQAVrTypeLibrary@TypeLibraries@RunTime@VIP@@1@Z 
01:0000959C mapM_redBlack{@Key,@Data}?_initObject@@@QAGXQAV1@H@Z 
01:000095E0 ?@create_object@mapM_redBlack@@SGQAV1@@PAXPAXQAVrTypeLibrary@TypeLibraries@RunTime@VIP@@0@Z 
01:00009608 mapM_redBlack{@Key,@Data}?_InternalFinalizer@@@QAGXQAV1@@Z 
--- From 'Obj\setm_redblack.93FF0DB0.obj'
01:00009620 ?new@setM_redBlack@@SAXQAV1@@PAXQAVrTypeLibrary@TypeLibraries@RunTime@VIP@@@Z  (Idle)
01:00009648 ?new@setM_redBlack@@SAXQAV1@@PAXQAVrTypeLibrary@TypeLibraries@RunTime@VIP@@PAU?$__packedList_struct@PAX@@@Z  (Idle)
01:00009668 ?newSingleton@setM_redBlack@@SAXQAV1@@PAXQAVrTypeLibrary@TypeLibraries@RunTime@VIP@@PAX@Z  (Idle)
01:00009688 ?newCustom@setM_redBlack@@SAXQAV1@@PAXQAVrTypeLibrary@TypeLibraries@RunTime@VIP@@X@Z  (Idle)
01:000096B0 ?newInternal@setM_redBlack@@SAXQAV1@@PAXQAVrTypeLibrary@TypeLibraries@RunTime@VIP@@PAUset_struct@redBlackSet@@PAX@Z 
01:000096CC ?contains@setM_redBlack@@SAXQAVcollection@@@PAXPAX@Z 
01:000096FC ?_getAll_nd@setM_redBlack@@SAXQAVcollection@@@PAXPAPAX@Z 
01:0000972C ?insert@setM_redBlack@@SAXQAVmodifiable@@@PAXPAX@Z 
01:00009764 ?remove@setM_redBlack@@SAXQAVmodifiable@@@PAXPAX@Z 
01:0000979C ?clear@setM_redBlack@@SAXQAVmodifiable@@@PAX@Z 
01:000097D0 ?_upFrom_nd@setM_redBlack@@SAXQAVset@@@PAXPAXPAPAX@Z 
01:0000980C ?_downFrom_nd@setM_redBlack@@SAXQAVset@@@PAXPAXPAPAX@Z 
--- From 'Obj\list.90A37E7A.obj'
01:00009848 ?_new@setM_redBlack@@SAXQAVrTypeLibrary@TypeLibraries@RunTime@VIP@@PAPAVsetM@@@PAPAX@Z 
--- From 'Obj\setm_redblack.93FF0DB0.obj'
01:00009874 ?_new@setM_redBlack@@SAXQAVrTypeLibrary@TypeLibraries@RunTime@VIP@@PAU?$__packedList_struct@PAX@@PAPAVsetM@@@PAPAX@Z  (Idle)
01:000098A4 ?_newSingleton@setM_redBlack@@SAXQAVrTypeLibrary@TypeLibraries@RunTime@VIP@@PAXPAPAVsetM@@@PAPAX@Z  (Idle)
--- From 'Obj\list.90A37E7A.obj'
01:000098D4 ?_newCustom@setM_redBlack@@SAXQAVrTypeLibrary@TypeLibraries@RunTime@VIP@@XPAPAVsetM@@@PAPAX@Z 
--- From 'Obj\setm_redblack.93FF0DB0.obj'
01:00009904 ?_object_typelib_initializer@setM_redBlack@@SGXQAV1@@PAXQAVrTypeLibrary@TypeLibraries@RunTime@VIP@@@Z 
01:00009B0C setM_redBlack{@Type}?_initObject@@@QAGXQAV1@H@Z 
01:00009B48 ?@create_object@setM_redBlack@@SGQAV1@@PAXQAVrTypeLibrary@TypeLibraries@RunTime@VIP@@@Z 
01:00009B6C setM_redBlack{@Type}?_InternalFinalizer@@@QAGXQAV1@@Z 
--- From 'Obj\exceptiondump.F8208295.obj'
01:00009B80 ?dump@exceptionDump@@SAXQAVoutputStream@@@PBUtraceId@exception@@@Z  (Idle)
01:00009BA8 ?dump_info@exceptionDump@@SAXQAVoutputStream@@@PAUtraceInfo_struct@exception@@@Z 
01:00009C34 ?dump_programPoint@exceptionDump@@SAXQAVoutputStream@@@PAUprogramPoint_struct@core@@@Z 
--- From 'Obj\exe.0BB6E1A4.obj'
01:00009D2C ?dumpToStdOutput@exceptionDump@@SAXPBUtraceId@exception@@@Z 
--- From 'Obj\exceptiondump.F8208295.obj'
01:00009D54 ?dumpToStdOutput_info@exceptionDump@@SAXPAUtraceInfo_struct@exception@@@Z 
01:00009DB0 ?dumpToStdOutput_programpoint@exceptionDump@@SAXPAUprogramPoint_struct@core@@@Z  (Idle)
01:00009E0C ?_dumpToString@exceptionDump@@SAXPBUtraceId@exception@@PAPB_W@Z  (Idle)
01:00009E34 ?_dumpToString_info@exceptionDump@@SAXPAUtraceInfo_struct@exception@@PAPB_W@Z 
01:00009E6C ?_dumpToString_programpoint@exceptionDump@@SAXPAUprogramPoint_struct@core@@PAPB_W@Z  (Idle)
01:00009EA4 ?dumpToStdOutputInTrap@exceptionDump@@SAXQAVrTypeLibrary@TypeLibraries@RunTime@VIP@@PAXX@Z 
01:00009F50 ?processErrorOnDumpToStdOut@exceptionDump@@SAXPAUtraceInfo_struct@exception@@@Z  (Idle)
01:00009FC4 ?processErrorOnDumpToStdOutTrapped@exceptionDump@@SAXPBUtraceId@@@Z 
01:0000A024 ?_formatDescriptorList@exceptionDump@@SAXPAU?$__packedList_struct@Udescriptor@exception@@@@PAPB_W@Z  (Idle)
01:0000A05C ?_formatDescriptor@exceptionDump@@SAXPAUdescriptor_struct@exception@@PAPB_W@Z  (Idle)
01:0000A094 ?_formatExtraInfo@exceptionDump@@SAXPAU?$__packedList_struct@UnamedValue@@@@PAPB_W@Z  (Idle)
01:0000A0CC ?_formatLineInfoList@exceptionDump@@SAXPAU?$__packedList_struct@UlineInfo@exception@@@@PAPB_W@Z  (Idle)
01:0000A104 ?_fillUsrMsgTags@exceptionDump@@SAXPB_WPAU?$__packedList_struct@UnamedValue@@@@PAPB_W@Z  (Idle)
01:0000A1DC ?_substituteTag@exceptionDump@@SAXPB_WPAU?$__packedList_struct@UnamedValue@@@@PAPB_W@Z 
01:0000A228 ?getUserMsgFromNV_dt@exceptionDump@@SAXPAU?$__packedList_struct@UnamedValue@@@@PAPB_W@Z  (Idle)
01:0000A2E0 ?getUserMsg_dt@exceptionDump@@SAXPAUdescriptor_struct@exception@@PAPB_W@Z  (Idle)
01:0000A2F8 ?_getUserMsg@exceptionDump@@SAXPAU?$__packedList_struct@Udescriptor@exception@@@@PAPB_W@Z  (Idle)
01:0000A394 ?_tryGetUserMessage@exceptionDump@@SAXPBUtraceId@exception@@PAPB_W@Z  (Idle)
01:0000A3BC ?_tryGetUserMessage_info@exceptionDump@@SAXPAUtraceInfo_struct@exception@@PAPB_W@Z 
01:0000A3D4 ?_tryGetUserMessageFromDescriptorList@exceptionDump@@SAXPAU?$__packedList_struct@Udescriptor@exception@@@@PAPB_W@Z 
01:0000A400 ?writeTraceInfo@exceptionDump@@SAXQAVoutputStream@@@PAUtraceInfo_struct@exception@@@Z 
01:0000A4B4 ?writeDescriptor_list@exceptionDump@@SAXQAVoutputStream@@@PAU?$__packedList_struct@Udescriptor@@@@@Z 
01:0000A4F0 ?writeErrorDescriptorInformation@exceptionDump@@SAXQAVoutputStream@@@PAUdescriptor_struct@exception@@@Z 
01:0000A830 ?section@exceptionDump@@SAXQAVoutputStream@@@PB_W@Z  (Idle)
01:0000A878 ?writeOSInformation@exceptionDump@@SAXQAVoutputStream@@@PB_W@Z 
01:0000A8EC ?writeLineInfo_list@exceptionDump@@SAXQAVoutputStream@@@PAU?$__packedList_struct@UlineInfo@@@@@Z 
01:0000A96C ?writeLineInfo@exceptionDump@@SAXQAVoutputStream@@@PAUlineInfo_struct@exception@@@Z 
01:0000AA0C ?writeException@exceptionDump@@SAXQAVoutputStream@@@PAUexception_struct@core@@@Z 
01:0000AA70 ?writeExtraInfo@exceptionDump@@SAXQAVoutputStream@@@PAU?$__packedList_struct@UnamedValue@@@@@Z 
01:0000AAF0 ?writePosition@exceptionDump@@SAXQAVoutputStream@@@IPB_W@Z 
01:0000AB34 ?writeNamedValue@exceptionDump@@SAXQAVoutputStream@@@PAUnamedValue_struct@core@@@Z 
01:0000ABF0 ?writeValue_or_NULL@exceptionDump@@SAXQAVoutputStream@@@PB_W@Z  (Idle)
01:0000AC68 ?writeValue@exceptionDump@@SAXQAVoutputStream@@@PAUvalue_struct@core@@@Z 
01:0000AFA4 ?writeValue_or_NULL@exceptionDump@@SAXQAVoutputStream@@@PAD@Z 
01:0000B01C ?writeValue_or_NULL@exceptionDump@@SAXQAVoutputStream@@@QAE@Z 
01:0000B094 ?writeValue_or_NULL@exceptionDump@@SAXQAVoutputStream@@@PBUbinaryNonAtomic@@@Z 
01:0000B10C ?writeValue_or_NULL@exceptionDump@@SAXQAVoutputStream@@@QAVobject@@@@Z 
--- From 'Obj\shell_api.76DAFA28.obj'
01:0000B190 ?shellOpen@shell_api@@SAXPB_W@Z  (Idle)
01:0000B1B4 ?shellRun@shell_api@@SAXPB_W@Z  (Idle)
01:0000B1D8 ?shellExecute@shell_api@@SAXPBUhwnd@@PB_W1@Z 
01:0000B1F0 ?shellExecute@shell_api@@SAXPBUhwnd@@PB_W11@Z 
01:0000B208 ?shellExecute@shell_api@@SAXPBUhwnd@@PB_W111@Z 
01:0000B21C ?shellExecute@shell_api@@SAXPBUhwnd@@PB_W111H@Z 
01:0000B294 ?shellExecuteEx@shell_api@@SAXPAUshellExecuteInfo_struct@shell_native@@@Z  (Idle)
01:0000B2D0 ?_shellExecuteErrorDescription@shell_api@@SAXIPAPB_W@Z 
01:0000B410 ?_sHCreateStreamOnFileEx@shell_api@@SAXPB_WIPAPAViStream_native@@@@Z  (Idle)
01:0000B430 ?_sHCreateStreamOnFileEx@shell_api@@SAXPB_WIIPAUboolean_struct@_builtIn@@PAPAViStream_native@@@@Z 
01:0000B484 ?_commandLineToArgv@shell_api@@SAXPB_WPAPAU?$__packedList_struct@Ustring@@@@@Z  (Idle)
--- From 'Obj\varm.637998CB.obj'
01:0000B560 ?new@varM_unsigned@@SAXQAV1@@@Z  (Idle)
01:0000B574 ?new@varM_unsigned@@SAXQAV1@@I@Z 
01:0000B59C ?newModel_unary@varM_unsigned@@SAXQAV1@@QAVvarM@@@IX@Z  (Idle)
01:0000B5CC ?newModel_binary@varM_unsigned@@SAXQAV1@@QAVvarM@@@I1X@Z  (Idle)
01:0000B604 ?_add@varM_unsigned@@SAXQAV1@@IPAI@Z 
01:0000B634 ?_sub@varM_unsigned@@SAXQAV1@@IPAI@Z 
01:0000B664 ?_max@varM_unsigned@@SAXQAV1@@IPAI@Z 
01:0000B6A0 ?_min@varM_unsigned@@SAXQAV1@@IPAI@Z 
01:0000B6DC ?_inc@varM_unsigned@@SAXQAV1@@PAI@Z 
01:0000B718 ?_dec@varM_unsigned@@SAXQAV1@@PAI@Z 
01:0000B754 ?_setF@varM_unsigned@@SAXQAV1@@IPAI@Z 
01:0000B768 ?add@varM_unsigned@@SAXQAV1@@I@Z 
01:0000B788 ?sub@varM_unsigned@@SAXQAV1@@I@Z 
01:0000B7A8 ?max@varM_unsigned@@SAXQAV1@@I@Z 
01:0000B7C8 ?min@varM_unsigned@@SAXQAV1@@I@Z 
01:0000B7E8 ?inc@varM_unsigned@@SAXQAV1@@@Z 
01:0000B804 ?dec@varM_unsigned@@SAXQAV1@@@Z 
01:0000B820 ?_new@varM_unsigned@@SAXPAPAV1@@@Z  (Idle)
01:0000B848 ?_new@varM_unsigned@@SAXIPAPAV1@@@Z  (Idle)
01:0000B870 ?_newModel_unary@varM_unsigned@@SAXQAVvarM@@@IXPAPAV1@@@Z  (Idle)
01:0000B89C ?_newModel_binary@varM_unsigned@@SAXQAVvarM@@@I0XPAPAV1@@@Z  (Idle)
01:0000B8CC ?new@varM_reference@@SAXQAV1@@PAXQAVrTypeLibrary@TypeLibraries@RunTime@VIP@@PAUreference_struct@1/1@PAX@Z  (Idle)
01:0000B8E0 ?_value@varM_reference@@SAXQAVvarM@@@PAXPAPAX@Z 
01:0000B8F8 ?value@varM_reference@@SAXQAVvarM@@@PAXPAX@Z 
01:0000B940 ?modified@varM_reference@@SGQAVevent0@@@PBUhandle@@QAVvarM@@@PAX@Z 
01:0000B958 ?_new@varM_reference@@SAXQAVrTypeLibrary@TypeLibraries@RunTime@VIP@@PAUreference_struct@1/1@PAXPAPAVvarM@@@PAPAX@Z  (Idle)
01:0000B988 ?_object_typelib_initializer@varM_reference@@SGXQAV1@@PAXQAVrTypeLibrary@TypeLibraries@RunTime@VIP@@@Z 
01:0000B9A0 ?new@varM_optional@@SAXQAV1@@PAXQAVrTypeLibrary@TypeLibraries@RunTime@VIP@@@Z  (Idle)
01:0000B9E4 ?new@varM_optional@@SAXQAV1@@PAXQAVrTypeLibrary@TypeLibraries@RunTime@VIP@@PAX@Z  (Idle)
01:0000BA38 ?_tryGet@varM_optional@@SAXQAV1@@PAXPAPAX@Z 
01:0000BA80 ?set@varM_optional@@SAXQAV1@@PAXPAX@Z 
01:0000BAA8 ?unset@varM_optional@@SAXQAV1@@PAX@Z 
01:0000BABC ?_new@varM_optional@@SAXQAVrTypeLibrary@TypeLibraries@RunTime@VIP@@PAPAV1@@PAPAX@Z  (Idle)
01:0000BAE8 ?_new@varM_optional@@SAXQAVrTypeLibrary@TypeLibraries@RunTime@VIP@@PAXPAPAV1@@PAPAX@Z  (Idle)
01:0000BB18 ?_object_typelib_initializer@varM_optional@@SGXQAV1@@PAXQAVrTypeLibrary@TypeLibraries@RunTime@VIP@@@Z 
01:0000BB30 ?_mk_tl_0_varM{@Term}$imp$@varM_optional@@SGQAVrTypeLibrary@TypeLibraries@RunTime@VIP@@QAV1@@PAX@Z 
01:0000BB6C ?new@varM_integer@@SAXQAV1@@@Z  (Idle)
01:0000BB80 ?new@varM_integer@@SAXQAV1@@H@Z 
01:0000BBA8 ?newModel_unary@varM_integer@@SAXQAV1@@QAVvarM@@@HX@Z  (Idle)
01:0000BBD8 ?newModel_binary@varM_integer@@SAXQAV1@@QAVvarM@@@H1X@Z  (Idle)
01:0000BC10 ?_add@varM_integer@@SAXQAV1@@HPAH@Z 
01:0000BC3C ?_sub@varM_integer@@SAXQAV1@@HPAH@Z 
01:0000BC68 ?_max@varM_integer@@SAXQAV1@@HPAH@Z 
01:0000BCA4 ?_min@varM_integer@@SAXQAV1@@HPAH@Z 
01:0000BCE0 ?_inc@varM_integer@@SAXQAV1@@PAH@Z 
01:0000BD18 ?_dec@varM_integer@@SAXQAV1@@PAH@Z 
01:0000BD50 ?_setF@varM_integer@@SAXQAV1@@HPAH@Z 
01:0000BD64 ?add@varM_integer@@SAXQAV1@@H@Z 
01:0000BD84 ?sub@varM_integer@@SAXQAV1@@H@Z 
01:0000BDA4 ?max@varM_integer@@SAXQAV1@@H@Z 
01:0000BDC4 ?min@varM_integer@@SAXQAV1@@H@Z 
01:0000BDE4 ?inc@varM_integer@@SAXQAV1@@@Z 
01:0000BE00 ?dec@varM_integer@@SAXQAV1@@@Z 
01:0000BE1C ?_new@varM_integer@@SAXPAPAV1@@@Z 
01:0000BE44 ?_new@varM_integer@@SAXHPAPAV1@@@Z  (Idle)
01:0000BE6C ?_newModel_unary@varM_integer@@SAXQAVvarM@@@HXPAPAV1@@@Z  (Idle)
01:0000BE98 ?_newModel_binary@varM_integer@@SAXQAVvarM@@@H0XPAPAV1@@@Z  (Idle)
01:0000BEC8 ?new@varM_boolean@@SAXQAV1@@@Z  (Idle)
01:0000BEDC ?new@varM_boolean@@SAXQAV1@@PAUboolean_struct@_builtIn@@@Z 
01:0000BF04 ?newModel_and@varM_boolean@@SAXQAV1@@QAVvarM@@@PAUboolean_struct@_builtIn@@1@Z  (Idle)
01:0000BF3C ?newModel_or@varM_boolean@@SAXQAV1@@QAVvarM@@@PAUboolean_struct@_builtIn@@1@Z  (Idle)
01:0000BF74 ?newModel_xor@varM_boolean@@SAXQAV1@@QAVvarM@@@PAUboolean_struct@_builtIn@@1@Z  (Idle)
01:0000BFAC ?newModel_not@varM_boolean@@SAXQAV1@@QAVvarM@@@PAUboolean_struct@_builtIn@@@Z  (Idle)
01:0000BFDC ?and_@varM_boolean@@SAXQAV1@@PAUboolean_struct@_builtIn@@@Z 
01:0000BFFC ?or_@varM_boolean@@SAXQAV1@@PAUboolean_struct@_builtIn@@@Z 
01:0000C01C ?xor@varM_boolean@@SAXQAV1@@PAUboolean_struct@_builtIn@@@Z 
01:0000C060 ?not_@varM_boolean@@SAXQAV1@@@Z 
01:0000C0A0 ?isTrue@varM_boolean@@SAXQAV1@@@Z 
01:0000C0C8 ?isFalse@varM_boolean@@SAXQAV1@@@Z 
01:0000C0F0 ?setTrue@varM_boolean@@SAXQAV1@@@Z 
01:0000C104 ?setFalse@varM_boolean@@SAXQAV1@@@Z 
01:0000C118 ?_new@varM_boolean@@SAXPAPAV1@@@Z  (Idle)
01:0000C140 ?_new@varM_boolean@@SAXPAUboolean_struct@_builtIn@@PAPAV1@@@Z  (Idle)
01:0000C168 ?_newModel_and@varM_boolean@@SAXQAVvarM@@@PAUboolean_struct@_builtIn@@0PAPAV1@@@Z  (Idle)
01:0000C194 ?_newModel_or@varM_boolean@@SAXQAVvarM@@@PAUboolean_struct@_builtIn@@0PAPAV1@@@Z  (Idle)
01:0000C1C0 ?_newModel_xor@varM_boolean@@SAXQAVvarM@@@PAUboolean_struct@_builtIn@@0PAPAV1@@@Z  (Idle)
01:0000C1EC ?_newModel_not@varM_boolean@@SAXQAVvarM@@@PAUboolean_struct@_builtIn@@PAPAV1@@@Z  (Idle)
01:0000C214 ?new@varM@@SAXQAV1@@PAXQAVrTypeLibrary@TypeLibraries@RunTime@VIP@@PAX@Z 
01:0000C228 ?anonymous$o0$1$newmodel_unary/2np$varM{@Term}@varM@@SAXPAUanonymous$o0$1$newmodel_unary/2np$varM{@Term}c_struct@1/1@QAV1@@PAX@Z 
01:0000C284 ?anonymous$o0$2$newmodel_unary/2np$varM{@Term}@varM@@SAXPAUanonymous$o0$2$newmodel_unary/2np$varM{@Term}c_struct@1/1@PBUhandle@@@Z 
01:0000C2E8 ?newModel_unary@varM@@SAXQAV1@@PAXQAVrTypeLibrary@TypeLibraries@RunTime@VIP@@0X@Z 
01:0000C3F0 ?anonymous$o0$1$newmodel_binary/3np$varM{@Term}@varM@@SAXPAUanonymous$o0$1$newmodel_binary/3np$varM{@Term}c_struct@1/1@QAV1@@PAX@Z 
01:0000C468 ?anonymous$o0$2$newmodel_binary/3np$varM{@Term}@varM@@SAXPAUanonymous$o0$2$newmodel_binary/3np$varM{@Term}c_struct@1/1@PBUhandle@@@Z 
01:0000C4D4 ?newModel_binary@varM@@SAXQAV1@@PAXQAVrTypeLibrary@TypeLibraries@RunTime@VIP@@00X@Z 
01:0000C630 ?modified@varM@@SGQAVevent0@@@PBUhandle@@QAV1@@PAX@Z 
01:0000C69C ?_value@varM@@SAXQAV1@@PAXPAPAX@Z 
01:0000C6B0 ?value@varM@@SAXQAV1@@PAXPAX@Z 
01:0000C6D8 ?plainSet@varM@@SAXQAV1@@PAXPAX@Z 
01:0000C6EC ?listenerSet@varM@@SAXQAV1@@PAXPAX@Z 
01:0000C734 ?_new@varM@@SAXQAVrTypeLibrary@TypeLibraries@RunTime@VIP@@PAXPAPAV1@@PAPAX@Z  (Idle)
01:0000C764 ?_newModel_unary@varM@@SAXQAVrTypeLibrary@TypeLibraries@RunTime@VIP@@QAV1@@PAXXPAPAV1@@PAPAX@Z  (Idle)
01:0000C79C ?_newModel_binary@varM@@SAXQAVrTypeLibrary@TypeLibraries@RunTime@VIP@@QAV1@@PAX1XPAPAV1@@PAPAX@Z  (Idle)
01:0000C7DC ?_object_typelib_initializer@varM@@SGXQAV1@@PAXQAVrTypeLibrary@TypeLibraries@RunTime@VIP@@@Z 
01:0000C7F4 ?_object_facts_initializer@varM@@SGXQAV1@@PAX@Z 
01:0000C8BC varM_unsigned?_initObject@@@QAGXQAV1@H@Z 
01:0000C8EC ?@create_object@varM_unsigned@@SGQAV1@@XZ 
01:0000C908 varM_unsigned?_InternalFinalizer@@@QAGXQAV1@@Z 
01:0000C920 varM_reference{@Term}?_initObject@@@QAGXQAV1@H@Z 
01:0000C944 ?@create_object@varM_reference@@SGQAV1@@PAXQAVrTypeLibrary@TypeLibraries@RunTime@VIP@@@Z 
01:0000C968 varM_reference{@Term}?_InternalFinalizer@@@QAGXQAV1@@Z 
01:0000C9DC varM_optional{@Term}?_initObject@@@QAGXQAV1@H@Z 
01:0000CA28 ?@create_object@varM_optional@@SGQAV1@@PAXQAVrTypeLibrary@TypeLibraries@RunTime@VIP@@@Z 
01:0000CA4C varM_optional{@Term}?_InternalFinalizer@@@QAGXQAV1@@Z 
01:0000CAE4 varM_integer?_initObject@@@QAGXQAV1@H@Z 
01:0000CB14 ?@create_object@varM_integer@@SGQAV1@@XZ 
01:0000CB30 varM_integer?_InternalFinalizer@@@QAGXQAV1@@Z 
01:0000CBC8 varM_boolean?_initObject@@@QAGXQAV1@H@Z 
01:0000CBF8 ?@create_object@varM_boolean@@SGQAV1@@XZ 
01:0000CC14 varM_boolean?_InternalFinalizer@@@QAGXQAV1@@Z 
01:0000CC2C varM{@Term}?_initObject@@@QAGXQAV1@H@Z 
01:0000CC60 ?@create_object@varM@@SGQAV1@@PAXQAVrTypeLibrary@TypeLibraries@RunTime@VIP@@@Z 
01:0000CC84 varM{@Term}?_InternalFinalizer@@@QAGXQAV1@@Z 
--- From 'Obj\binary.81E0542A.obj'
01:0000CC90 ?new@outputStream_binary@@SAXQAV1@@@Z  (Idle)
01:0000CD30 ?size@outputStream_binary@@SGPBUbyteCount@@QAV1@@@Z 
01:0000CDD0 ?setMode@outputStream_binary@@SGXQAVstream@@@PAUmode_struct@2@@Z 
01:0000CE18 ?flush@outputStream_binary@@SAXQAVoutputStream@@@@Z 
01:0000CE20 ?close@outputStream_binary@@SGXQAVstream@@@@Z 
01:0000CE68 ?bufferFullCallBack@outputStream_binary@@SAXQAV1@@PAPAXAAUbyteCount@@@Z  (Idle)
01:0000CEE4 ?get_buffer_from_db@outputStream_binary@@SAXQAV1@@IPAPAXAAUbyteCount@@@Z 
01:0000CF4C ?_getBinary@outputStream_binary@@SAXQAV1@@QAPAE@Z 
01:0000D004 ?_getMemory@outputStream_binary@@SAXQAV1@@PAPAX@Z 
01:0000D0BC ?writeBuffersToBinary@outputStream_binary@@SAXQAV1@@PAX@Z 
01:0000D138 ?writeSingleBufferToBinary@outputStream_binary@@SAXPAXPBUbyteCount@@PAX1@Z 
01:0000D16C ?getPosition@outputStream_binary@@SGPBUfileSize@fileSystem_api@@QAVstream@@@@Z 
01:0000D238 ?setPosition@outputStream_binary@@SGXQAVstream@@@PBUfileSize@fileSystem_api@@@Z 
01:0000D2A4 ?handleSetOffset@outputStream_binary@@SAXQAV1@@PBUbyteCount@@@Z 
01:0000D32C ?updateCurrentBuffer@outputStream_binary@@SAXQAV1@@@Z 
01:0000D498 ?findBufferForOffset@outputStream_binary@@SAXQAV1@@PBUbyteCount@@PAIPAPAXAAU3@4@Z 
01:0000D524 ?handleBiggerOffset@outputStream_binary@@SAXQAV1@@PBUbyteCount@@@Z 
01:0000D6A8 ?_newBuffer@outputStream_binary@@SAXQAV1@@PBUbyteCount@@PAPAX@Z 
01:0000D73C ?_getSizeBefore@outputStream_binary@@SAXQAV1@@IAAUbyteCount@@@Z 
01:0000D7C0 ?bufferNotFound_exception@outputStream_binary@@SAXI@Z 
01:0000D800 ?checkUsePrevBuff@outputStream_binary@@SAXQAV1@@@Z  (Idle)
01:0000D85C ?getBuffer@outputStream_binary@@SGXQAVbufferSupport@@@PAPAXAAUbyteCount@@@Z 
01:0000D8E4 ?getBufferLocked@outputStream_binary@@SGXQAVbufferSupport@@@PAPAXAAUbyteCount@@@Z 
--- From 'Obj\gui_api.9DA8CF80.obj'
01:0000D900 ?_new@outputStream_binary@@SAXPAPAV1@@@Z 
--- From 'Obj\binary.81E0542A.obj'
01:0000D928 ?_object_facts_initializer@outputStream_binary@@SGXQAV1@@@Z 
01:0000D948 ?new@inputStream_binary@@SAXQAV1@@QAE@Z  (Idle)
01:0000D97C ?new_pointer@inputStream_binary@@SAXQAV1@@PAXPBUbyteCount@core@@@Z 
01:0000D9B4 ?setMode@inputStream_binary@@SGXQAVstream@@@PAUmode_struct@2@@Z 
01:0000D9FC ?close@inputStream_binary@@SGXQAVstream@@@@Z 
01:0000DA14 ?getCRLFconversion@inputStream_binary@@SGPAUboolean_struct@_builtIn@@QAVstream@@@@Z 
01:0000DA2C ?setCRLFconversion@inputStream_binary@@SGXQAVstream@@@PAUboolean_struct@_builtIn@@@Z 
01:0000DA54 ?getPosition@inputStream_binary@@SGPBUfileSize@fileSystem_api@@QAVstream@@@@Z 
01:0000DA78 ?setPosition@inputStream_binary@@SGXQAVstream@@@PBUfileSize@fileSystem_api@@@Z 
01:0000DAE4 ?getBuffer@inputStream_binary@@SGXQAVbufferSupport@@@PAPAXAAUbyteCount@@@Z 
01:0000DB00 ?getBufferLocked@inputStream_binary@@SGXQAVbufferSupport@@@PAPAXAAUbyteCount@@@Z 
01:0000DB1C ?_new@inputStream_binary@@SAXQAEPAPAVinputStream@@@@Z  (Idle)
01:0000DB44 ?_new_pointer@inputStream_binary@@SAXPAXPBUbyteCount@core@@PAPAVinputStream@@@@Z  (Idle)
01:0000DB70 ?_object_facts_initializer@inputStream_binary@@SGXQAV1@@@Z 
01:0000DB88 ?raise_invalidCompressionFormat_explicit@binary_exception@@SAXPAUprogramPoint_struct@core@@QAE@Z  (Idle)
01:0000DBFC ?raise_internalDecodeError_explicit@binary_exception@@SAXPAUprogramPoint_struct@core@@QAE@Z  (Idle)
01:0000DC70 ?raise_indexOutOfRange_explicit@binary_exception@@SAXPAUprogramPoint_struct@core@@PBUbyteCount@@11@Z 
01:0000DD9C ?raise_wrongBinaryFormat_explicit@binary_exception@@SAXPAUprogramPoint_struct@core@@QAE@Z  (Idle)
01:0000DE10 ?raise_wrongBinaryFormat_explicit@binary_exception@@SAXPAUprogramPoint_struct@core@@PBUbinaryNonAtomic@@@Z  (Idle)
01:0000DE84 ?_create0binaryAtomic@binary@@SAXQAPAE@Z  (Idle)
01:0000DEA4 ?_create0binaryNonAtomic@binary@@SAXAAU2@@Z  (Idle)
01:0000DEC4 ?_createNonAtomic@binary@@SAXPBUbyteCount@@AAUbinaryNonAtomic@@@Z  (Idle)
01:0000DF04 ?_createNonAtomic@binary@@SAXPBUpositive@@PBUbyteCount@@AAUbinaryNonAtomic@@@Z  (Idle)
--- From 'Obj\filesystem.14FC0F0E.obj'
01:0000DF24 ?_createAtomic@binary@@SAXPBUbyteCount@@QAPAE@Z 
--- From 'Obj\binary.81E0542A.obj'
01:0000DF68 ?_createAtomic@binary@@SAXPBUpositive@@PBUbyteCount@@QAPAE@Z  (Idle)
01:0000DF88 ?_makeBinary@binary@@SAXPBUbyteCount@@QAPAE@Z 
01:0000DFE0 ?_makeBinaryNonAtomic@binary@@SAXPBUbyteCount@@AAUbinaryNonAtomic@@@Z 
01:0000E038 ?_allocateNonAtomicBinary@binary@@SAXPBUbyteCount@@PAPAX@Z 
01:0000E084 ?_createCopyNonAtomic@binary@@SAXPBUbinaryNonAtomic@@AAU2@@Z  (Idle)
01:0000E100 ?_createCopyAtomic@binary@@SAXQAEQAPAE@Z  (Idle)
01:0000E180 ?_createNonAtomicFromPointer@binary@@SAXPAXPBUbyteCount@@AAUbinaryNonAtomic@@@Z  (Idle)
--- From 'Obj\vpidomains.97964869.obj'
01:0000E1C4 ?_createAtomicFromPointer@binary@@SAXPAXPBUbyteCount@@QAPAE@Z 
--- From 'Obj\binary.81E0542A.obj'
01:0000E208 ?_createAtomicFromIntegerList@binary@@SAXPAU?$__packedList_struct@Uinteger@@@@QAPAE@Z  (Idle)
--- From 'Obj\exception.311FF4B8.obj'
01:0000E260 ?_getSize@binary@@SAXQAEAAUbyteCount@@@Z 
--- From 'Obj\binary.81E0542A.obj'
01:0000E27C ?_getBinaryHeaderPtr@binary@@SAXQAEPAPAX@Z  (Idle)
01:0000E2B4 ?_reSizeNonAtomic@binary@@SAXPBUbinaryNonAtomic@@PBUbyteCount@@AAU2@@Z  (Idle)
01:0000E360 ?_reSizeAtomic@binary@@SAXQAEPBUbyteCount@@QAPAE@Z  (Idle)
01:0000E40C ?_concatNonAtomic@binary@@SAXPBUbinaryNonAtomic@@0AAU2@@Z  (Idle)
01:0000E484 ?_concatAtomic@binary@@SAXQAEQAEQAPAE@Z  (Idle)
01:0000E4FC ?_insertAtomic@binary@@SAXQAEPBUbyteCount@@QAEQAPAE@Z  (Idle)
01:0000E5D4 ?_insertNonAtomic@binary@@SAXPBUbinaryNonAtomic@@PBUbyteCount@@QAEAAU2@@Z  (Idle)
01:0000E6AC ?_deleteAtomic@binary@@SAXQAEPBUbyteCount@@1QAPAE@Z  (Idle)
01:0000E74C ?_deleteNonAtomic@binary@@SAXPBUbinaryNonAtomic@@PBUbyteCount@@1AAU2@@Z  (Idle)
01:0000E7EC ?_getIndexed_unsigned8@binary@@SAXQAEPBUpositive@@AAU3@@Z  (Idle)
--- From 'Obj\exe_api.F27809B9.obj'
01:0000E838 ?_getIndexed_unsigned16@binary@@SAXQAEPBUpositive@@AAU3@@Z 
--- From 'Obj\binary.81E0542A.obj'
01:0000E888 ?_getIndexed_unsigned64@binary@@SAXQAEPBUpositive@@PAPA_K@Z  (Idle)
01:0000E8D8 ?_getIndexed_integer8@binary@@SAXQAEPBUpositive@@AAU3@@Z  (Idle)
01:0000E924 ?_getIndexed_integer16@binary@@SAXQAEPBUpositive@@AAU3@@Z  (Idle)
01:0000E974 ?_getIndexed_integer64@binary@@SAXQAEPBUpositive@@PAPA_J@Z  (Idle)
--- From 'Obj\exception.311FF4B8.obj'
01:0000E9C4 ?_getIndexed_unsignedNative@binary@@SAXQAEPBUpositive@@AAU3@@Z 
--- From 'Obj\binary.81E0542A.obj'
01:0000EA14 ?_getIndexed_unsigned@binary@@SAXQAEPBUpositive@@PAI@Z  (Idle)
01:0000EA64 ?_getIndexed_integerNative@binary@@SAXQAEPBUpositive@@AAU3@@Z  (Idle)
01:0000EAB4 ?_getIndexed_integer@binary@@SAXQAEPBUpositive@@PAH@Z  (Idle)
01:0000EB04 ?_getIndexed_real32@binary@@SAXQAEPBUpositive@@PAM@Z  (Idle)
01:0000EB54 ?_getIndexed_real@binary@@SAXQAEPBUpositive@@PAPAN@Z  (Idle)
01:0000EBA4 ?_getIndexed_pointer@binary@@SAXPBUbinaryNonAtomic@@PBUpositive@@PAPAX@Z  (Idle)
01:0000EBF4 ?_getIndexed_object@binary@@SAXPBUbinaryNonAtomic@@PBUpositive@@PAPAV4@@@Z  (Idle)
01:0000EC50 ?_getIndexed_string@binary@@SAXPBUbinaryNonAtomic@@PBUpositive@@PAPB_W@Z  (Idle)
01:0000ECAC ?setIndexed_unsigned8@binary@@SAXQAEPBUpositive@@PBU3@@Z  (Idle)
01:0000ECF8 ?setIndexed_unsigned16@binary@@SAXQAEPBUpositive@@PBU3@@Z  (Idle)
01:0000ED48 ?setIndexed_unsigned64@binary@@SAXQAEPBUpositive@@PA_K@Z  (Idle)
01:0000ED98 ?setIndexed_integer8@binary@@SAXQAEPBUpositive@@PBU3@@Z  (Idle)
01:0000EDE4 ?setIndexed_integer16@binary@@SAXQAEPBUpositive@@PBU3@@Z  (Idle)
01:0000EE34 ?setIndexed_integer64@binary@@SAXQAEPBUpositive@@PA_J@Z  (Idle)
01:0000EE84 ?setIndexed_integerNative@binary@@SAXQAEPBUpositive@@PBU3@@Z  (Idle)
01:0000EED4 ?setIndexed_integer@binary@@SAXQAEPBUpositive@@H@Z  (Idle)
01:0000EF24 ?setIndexed_unsignedNative@binary@@SAXQAEPBUpositive@@PBU3@@Z  (Idle)
01:0000EF74 ?setIndexed_unsigned@binary@@SAXQAEPBUpositive@@I@Z  (Idle)
01:0000EFC4 ?setIndexed_real32@binary@@SAXQAEPBUpositive@@M@Z  (Idle)
01:0000F014 ?setIndexed_real@binary@@SAXQAEPBUpositive@@PAN@Z  (Idle)
01:0000F064 ?setIndexed_pointer@binary@@SAXPBUbinaryNonAtomic@@PBUpositive@@PAX@Z  (Idle)
01:0000F0B4 ?setIndexed_object@binary@@SAXPBUbinaryNonAtomic@@PBUpositive@@QAV4@@@Z  (Idle)
01:0000F104 ?setIndexed_string@binary@@SAXPBUbinaryNonAtomic@@PBUpositive@@PB_W@Z  (Idle)
01:0000F154 ?_getBinaryNonAtomic@binary@@SAXPBUbinaryNonAtomic@@PBUbyteCount@@1AAU2@@Z  (Idle)
01:0000F1F4 ?_getBinaryAtomic@binary@@SAXQAEPBUbyteCount@@1QAPAE@Z  (Idle)
01:0000F294 ?setBinaryNonAtomic@binary@@SAXPBUbinaryNonAtomic@@PBUbyteCount@@QAE@Z  (Idle)
01:0000F334 ?setBinaryAtomic@binary@@SAXQAEPBUbyteCount@@QAE@Z  (Idle)
01:0000F3E4 ?setValue@binary@@SAXQAEPBUbyteCount@@PAUvalue_struct@core@@@Z  (Idle)
01:0000F924 $getValue$binary_class$predicate$(i,i,unsigned64(o))$b$_c89  (Idle)
01:0000F978 ?_getString@binary@@SAXPAXPBUcharCount@@PAPB_W@Z  (Idle)
01:0000FA6C ?checkOffsetForSetGetValue@binary@@SAXQAEPBUbyteCount@@1@Z 
01:0000FAAC ?fillFromIntegerList@binary@@SAXQAEPBUpositive@@PAU?$__packedList_struct@Uinteger@@@@@Z 
01:0000FAF4 ?copyTailIfNeeded@binary@@SAXQAEPBUbyteCount@@1QAE1@Z 
01:0000FB58 ?splitBinaryNonAtomic@binary@@SAXPBUbinaryNonAtomic@@PBUbyteCount@@AAU2@2@Z  (Idle)
01:0000FB98 ?splitBinaryAtomic@binary@@SAXQAEPBUbyteCount@@QAPAE2@Z  (Idle)
01:0000FBD8 ?_binaryToStringList@binary@@SAXQAEPAPAU?$__packedList_struct@Ustring@@@@@Z  (Idle)
01:0000FC14 ?_getStringList@binary@@SAXPAXPBUbyteCount@@PAPAU?$__packedList_struct@Ustring@@@@@Z 
01:0000FD70 ?_search@binary@@SAXQAEQAEAAUbyteCount@@@Z  (Idle)
01:0000FDB8 ?_binary8ToStringList@binary@@SAXQAEPAPAU?$__packedList_struct@Ustring@@@@@Z  (Idle)
01:0000FDD4 ?_binary8ToStringList@binary@@SAXQAEPBUcodePage@@PAPAU?$__packedList_struct@Ustring@@@@@Z 
01:0000FE1C ?_getStringListForBinary8@binary@@SAXPAXPBUbyteCount@@PBUcodePage@@PAPAU?$__packedList_struct@Ustring@@@@@Z 
01:0000FF5C binaryIsAtomicExpectedNonAtomic 
01:0000FF88 doNothing 
01:0000FF90 ?_calculateCRC@binary@@SAXQAEPAI@Z  (Idle)
01:0000FFAC ?_getPointer2nullaryBinary@binary@@SAXPAPAX@Z 
01:0000FFC0 ?_getSize@binary@@SAXPBUbinaryNonAtomic@@AAUbyteCount@@@Z 
01:0000FFDC ?_getBinaryHeaderPtr@binary@@SAXPBUbinaryNonAtomic@@PAPAX@Z  (Idle)
01:00010014 ?_insertNonAtomic@binary@@SAXPBUbinaryNonAtomic@@PBUbyteCount@@0AAU2@@Z  (Idle)
01:000100EC ?_getIndexed_unsigned8@binary@@SAXPBUbinaryNonAtomic@@PBUpositive@@AAU4@@Z  (Idle)
01:00010138 ?_getIndexed_unsigned16@binary@@SAXPBUbinaryNonAtomic@@PBUpositive@@AAU4@@Z  (Idle)
01:00010188 ?_getIndexed_unsigned64@binary@@SAXPBUbinaryNonAtomic@@PBUpositive@@PAPA_K@Z  (Idle)
01:000101D8 ?_getIndexed_integer8@binary@@SAXPBUbinaryNonAtomic@@PBUpositive@@AAU4@@Z  (Idle)
01:00010224 ?_getIndexed_integer16@binary@@SAXPBUbinaryNonAtomic@@PBUpositive@@AAU4@@Z  (Idle)
01:00010274 ?_getIndexed_integer64@binary@@SAXPBUbinaryNonAtomic@@PBUpositive@@PAPA_J@Z  (Idle)
01:000102C4 ?_getIndexed_unsignedNative@binary@@SAXPBUbinaryNonAtomic@@PBUpositive@@AAU4@@Z  (Idle)
01:00010314 ?_getIndexed_unsigned@binary@@SAXPBUbinaryNonAtomic@@PBUpositive@@PAI@Z  (Idle)
01:00010364 ?_getIndexed_integerNative@binary@@SAXPBUbinaryNonAtomic@@PBUpositive@@AAU4@@Z  (Idle)
01:000103B4 ?_getIndexed_integer@binary@@SAXPBUbinaryNonAtomic@@PBUpositive@@PAH@Z  (Idle)
01:00010404 ?_getIndexed_real32@binary@@SAXPBUbinaryNonAtomic@@PBUpositive@@PAM@Z  (Idle)
01:00010454 ?_getIndexed_real@binary@@SAXPBUbinaryNonAtomic@@PBUpositive@@PAPAN@Z  (Idle)
01:000104A4 ?setIndexed_unsigned8@binary@@SAXPBUbinaryNonAtomic@@PBUpositive@@PBU4@@Z  (Idle)
01:000104F0 ?setIndexed_unsigned16@binary@@SAXPBUbinaryNonAtomic@@PBUpositive@@PBU4@@Z  (Idle)
01:00010540 ?setIndexed_unsigned64@binary@@SAXPBUbinaryNonAtomic@@PBUpositive@@PA_K@Z  (Idle)
01:00010590 ?setIndexed_integer8@binary@@SAXPBUbinaryNonAtomic@@PBUpositive@@PBU4@@Z  (Idle)
01:000105DC ?setIndexed_integer16@binary@@SAXPBUbinaryNonAtomic@@PBUpositive@@PBU4@@Z  (Idle)
01:0001062C ?setIndexed_integer64@binary@@SAXPBUbinaryNonAtomic@@PBUpositive@@PA_J@Z  (Idle)
01:0001067C ?setIndexed_integerNative@binary@@SAXPBUbinaryNonAtomic@@PBUpositive@@PBU4@@Z  (Idle)
01:000106CC ?setIndexed_integer@binary@@SAXPBUbinaryNonAtomic@@PBUpositive@@H@Z  (Idle)
01:0001071C ?setIndexed_unsignedNative@binary@@SAXPBUbinaryNonAtomic@@PBUpositive@@PBU4@@Z  (Idle)
01:0001076C ?setIndexed_unsigned@binary@@SAXPBUbinaryNonAtomic@@PBUpositive@@I@Z  (Idle)
01:000107BC ?setIndexed_real32@binary@@SAXPBUbinaryNonAtomic@@PBUpositive@@M@Z  (Idle)
01:0001080C ?setIndexed_real@binary@@SAXPBUbinaryNonAtomic@@PBUpositive@@PAN@Z  (Idle)
01:0001085C ?setBinaryNonAtomic@binary@@SAXPBUbinaryNonAtomic@@PBUbyteCount@@0@Z  (Idle)
01:000108FC ?setBinaryAtomic@binary@@SAXPBUbinaryNonAtomic@@PBUbyteCount@@QAE@Z  (Idle)
01:000109AC ?setBinaryAtomic@binary@@SAXPBUbinaryNonAtomic@@PBUbyteCount@@0@Z  (Idle)
01:00010A5C ?setValue@binary@@SAXPBUbinaryNonAtomic@@PBUbyteCount@@PAUvalue_struct@core@@@Z  (Idle)
01:00010F9C $getValue$binary_class$predicate$(i,i,unsigned(o))$b$_c90  (Idle)
01:00010FF0 $getValue$binary_class$predicate$(i,i,integer64(o))$b$_c91  (Idle)
--- From 'Obj\exe_api.F27809B9.obj'
01:00011044 $getValue$binary_class$predicate$(i,i,integer(o))$b$_c92 
--- From 'Obj\binary.81E0542A.obj'
01:00011098 $getValue$binary_class$predicate$(i,i,real(o))$b$_c93  (Idle)
01:000110EC $getValue$binary_class$predicate$(i,i,char(o))$b$_c94  (Idle)
01:00011144 $getValue$binary_class$predicate$(i,i,string(o))$b$_c95  (Idle)
01:000111B4 $getValue$binary_class$predicate$(i,i,localtimevalue(o))$b$_c96  (Idle)
01:00011208 $getValue$binary_class$predicate$(i,i,gmttimevalue(o))$b$_c97  (Idle)
01:0001125C $getValue$binary_class$predicate$(i,i,unsigned64(o))$b$_c98  (Idle)
01:000112B0 $getValue$binary_class$predicate$(i,i,unsigned(o))$b$_c99  (Idle)
01:00011304 $getValue$binary_class$predicate$(i,i,integer64(o))$b$_c100  (Idle)
01:00011358 $getValue$binary_class$predicate$(i,i,integer(o))$b$_c101  (Idle)
01:000113AC $getValue$binary_class$predicate$(i,i,real(o))$b$_c102  (Idle)
01:00011400 $getValue$binary_class$predicate$(i,i,pointer(o))$b$_c103  (Idle)
01:00011454 $getValue$binary_class$predicate$(i,i,object(o))$b$_c104  (Idle)
01:000114A8 $getValue$binary_class$predicate$(i,i,char(o))$b$_c105  (Idle)
01:00011500 $getValue$binary_class$predicate$(i,i,string(o))$b$_c106  (Idle)
01:00011570 $getValue$binary_class$predicate$(i,i,localtimevalue(o))$b$_c107  (Idle)
01:000115C4 $getValue$binary_class$predicate$(i,i,gmttimevalue(o))$b$_c108  (Idle)
01:00011618 ?checkOffsetForSetGetValue@binary@@SAXPBUbinaryNonAtomic@@PBUbyteCount@@1@Z 
01:00011658 ?copyTailIfNeeded@binary@@SAXPBUbinaryNonAtomic@@PBUbyteCount@@101@Z 
01:000118C8 outputStream_binary?_initObject@@@QAGXQAV1@H@Z 
01:000118FC ?@create_object@outputStream_binary@@SGQAV1@@XZ 
01:00011918 outputStream_binary?_InternalFinalizer@@@QAGXQAV1@@Z 
01:00011BA4 inputStream_binary?_initObject@@@QAGXQAV1@H@Z 
01:00011BD8 ?@create_object@inputStream_binary@@SGQAV1@@XZ 
01:00011BF4 inputStream_binary?_InternalFinalizer@@@QAGXQAV1@@Z 
--- From 'Obj\filesystem.14FC0F0E.obj'
01:00011C10 ?create@outputStream_file@@SAXQAV1@@PB_W@Z  (Idle)
01:00011C34 ?create@outputStream_file@@SAXQAV1@@PB_WPAUmode_struct@stream@@@Z  (Idle)
01:00011C54 ?create@outputStream_file@@SAXQAV1@@PB_WPAUmode_struct@stream@@PAUaccessPermit_struct@fileSystem_api@@@Z  (Idle)
01:00011C68 ?create@outputStream_file@@SAXQAV1@@PB_WPAUmode_struct@stream@@PAUaccessPermit_struct@fileSystem_api@@PAU?$__packedList_struct@UfileAttributeAtom@@@@@Z 
01:00011CB0 ?create8@outputStream_file@@SAXQAV1@@PB_W@Z  (Idle)
01:00011CC4 ?create8@outputStream_file@@SAXQAV1@@PB_WPAUaccessPermit_struct@fileSystem_api@@@Z 
01:00011CF0 ?createUtf8@outputStream_file@@SAXQAV1@@PB_W@Z  (Idle)
01:00011D04 ?createUtf8@outputStream_file@@SAXQAV1@@PB_WPAUaccessPermit_struct@fileSystem_api@@@Z 
01:00011D30 ?createUtf8_bom@outputStream_file@@SAXQAV1@@PB_W@Z  (Idle)
01:00011D44 ?createUtf8_bom@outputStream_file@@SAXQAV1@@PB_WPAUaccessPermit_struct@fileSystem_api@@@Z 
01:00011D98 ?commonPartOfConstructors@outputStream_file@@SAXQAV1@@PBUfileHandle@@PAUmode_struct@stream@@@Z 
01:00011DF8 ?handleMode_create@outputStream_file@@SAXQAV1@@PAUmode_struct@stream@@@Z 
01:00011E48 ?openFile@outputStream_file@@SAXQAV1@@PB_W@Z  (Idle)
01:00011E68 ?openFile8@outputStream_file@@SAXQAV1@@PB_W@Z  (Idle)
01:00011E88 ?openFileUtf8@outputStream_file@@SAXQAV1@@PB_W@Z  (Idle)
01:00011EA8 ?openFile@outputStream_file@@SAXQAV1@@PB_WPAUmode_struct@stream@@@Z  (Idle)
01:00011EBC ?openFile@outputStream_file@@SAXQAV1@@PB_WPAUmode_struct@stream@@PAUaccessPermit_struct@fileSystem_api@@@Z 
01:00011F14 ?append@outputStream_file@@SAXQAV1@@PB_W@Z  (Idle)
01:00011F28 ?append8@outputStream_file@@SAXQAV1@@PB_W@Z  (Idle)
01:00011F3C ?appendUtf8@outputStream_file@@SAXQAV1@@PB_W@Z  (Idle)
01:00011F50 ?append@outputStream_file@@SAXQAV1@@PB_WPAUmode_struct@stream@@@Z 
01:00011FB8 ?newHandleFile@outputStream_file@@SAXQAV1@@PBUfileHandle@@PAUmode_struct@stream@@@Z  (Idle)
01:00011FF8 ?newHandle@outputStream_file@@SAXQAV1@@PBUfileHandle@@PAUmode_struct@stream@@@Z  (Idle)
01:00012000 ?skipUnicodeSignature@outputStream_file@@SAXQAV1@@PAUmode_struct@stream@@@Z 
01:00012064 ?skip@outputStream_file@@SAXQAV1@@HPBUbyteCount@@@Z 
01:000120D8 ?getCRLFconversion@outputStream_file@@SGPAUboolean_struct@_builtIn@@QAVstream@@@@Z 
01:00012108 ?setCRLFconversion@outputStream_file@@SGXQAVstream@@@PAUboolean_struct@_builtIn@@@Z 
01:0001216C ?getPosition@outputStream_file@@SGPBUfileSize@fileSystem_api@@QAVstream@@@@Z 
01:00012234 ?setPosition@outputStream_file@@SGXQAVstream@@@PBUfileSize@fileSystem_api@@@Z 
01:0001232C ?_checkMovingIsInsideBuffer@outputStream_file@@SAXQAV1@@PAPBUfileSize@fileSystem_api@@1PBUbyteCount@@AAU7@@Z 
01:000124C8 ?setMaxOffsetUsedInCurrentBuffer@outputStream_file@@SAXQAV1@@PBUbyteCount@@@Z 
01:000124EC ?close@outputStream_file@@SGXQAVstream@@@@Z 
01:00012520 ?flush@outputStream_file@@SAXQAVoutputStream@@@@Z 
01:00012544 ?bufferFullCallBack@outputStream_file@@SAXQAV1@@PBUbyteCount@@@Z  (Idle)
01:000125BC ?convertLFtoCRLF_IfNeeded@outputStream_file@@SAXQAV1@@PAXPBUbyteCount@@PAPAXAAU3@@Z 
01:00012618 ?convertToANSI_IfNeeded@outputStream_file@@SAXQAV1@@PAXPBUbyteCount@@PAPAXAAU3@@Z 
01:000126B4 ?getBuffer@outputStream_file@@SGXQAVbufferSupport@@@PAPAXAAUbyteCount@@@Z 
01:0001271C ?getBufferLocked@outputStream_file@@SGXQAVbufferSupport@@@PAPAXAAUbyteCount@@@Z 
01:00012738 ?_create@outputStream_file@@SAXPB_WPAPAVoutputStream@@@@Z 
01:00012760 ?_create@outputStream_file@@SAXPB_WPAUmode_struct@stream@@PAPAVoutputStream@@@@Z  (Idle)
01:0001278C ?_create@outputStream_file@@SAXPB_WPAUmode_struct@stream@@PAUaccessPermit_struct@fileSystem_api@@PAPAVoutputStream@@@@Z  (Idle)
01:000127BC ?_create@outputStream_file@@SAXPB_WPAUmode_struct@stream@@PAUaccessPermit_struct@fileSystem_api@@PAU?$__packedList_struct@UfileAttributeAtom@@@@PAPAVoutputStream@@@@Z  (Idle)
01:000127F0 ?_create8@outputStream_file@@SAXPB_WPAPAVoutputStream@@@@Z  (Idle)
01:00012818 ?_create8@outputStream_file@@SAXPB_WPAUaccessPermit_struct@fileSystem_api@@PAPAVoutputStream@@@@Z  (Idle)
01:00012844 ?_createUtf8@outputStream_file@@SAXPB_WPAPAVoutputStream@@@@Z  (Idle)
01:0001286C ?_createUtf8@outputStream_file@@SAXPB_WPAUaccessPermit_struct@fileSystem_api@@PAPAVoutputStream@@@@Z  (Idle)
01:00012898 ?_createUtf8_bom@outputStream_file@@SAXPB_WPAPAVoutputStream@@@@Z  (Idle)
01:000128C0 ?_createUtf8_bom@outputStream_file@@SAXPB_WPAUaccessPermit_struct@fileSystem_api@@PAPAVoutputStream@@@@Z  (Idle)
01:000128EC ?_openFile@outputStream_file@@SAXPB_WPAPAVoutputStream@@@@Z  (Idle)
01:00012914 ?_openFile@outputStream_file@@SAXPB_WPAUmode_struct@stream@@PAPAVoutputStream@@@@Z  (Idle)
01:00012940 ?_openFile@outputStream_file@@SAXPB_WPAUmode_struct@stream@@PAUaccessPermit_struct@fileSystem_api@@PAPAVoutputStream@@@@Z  (Idle)
01:00012970 ?_openFile8@outputStream_file@@SAXPB_WPAPAVoutputStream@@@@Z  (Idle)
01:00012998 ?_openFileUtf8@outputStream_file@@SAXPB_WPAPAVoutputStream@@@@Z  (Idle)
01:000129C0 ?_append@outputStream_file@@SAXPB_WPAPAVoutputStream@@@@Z  (Idle)
01:000129E8 ?_append@outputStream_file@@SAXPB_WPAUmode_struct@stream@@PAPAVoutputStream@@@@Z  (Idle)
01:00012A14 ?_append8@outputStream_file@@SAXPB_WPAPAVoutputStream@@@@Z  (Idle)
01:00012A3C ?_appendUtf8@outputStream_file@@SAXPB_WPAPAVoutputStream@@@@Z  (Idle)
01:00012A64 ?_newHandleFile@outputStream_file@@SAXPBUfileHandle@@PAUmode_struct@stream@@PAPAVoutputStream@@@@Z  (Idle)
01:00012A90 ?_newHandle@outputStream_file@@SAXPBUfileHandle@@PAUmode_struct@stream@@PAPAVoutputStream@@@@Z  (Idle)
01:00012ABC ?_object_facts_initializer@outputStream_file@@SGXQAV1@@@Z 
01:00012ADC ?append@messageFile@@SAXQAV1@@PB_W@Z  (Idle)
01:00012AF0 ?append@messageFile@@SAXQAV1@@PB_WPAUmode_struct@stream@@@Z 
01:00012B08 ?flush@messageFile@@SAXQAVoutputStream@@@@Z 
01:00012B10 ?anonymous$o0$1$write/0ep$messageFile@1@SAXPAUanonymous$o0$1$write/0ep$messageFilec_struct@1@QAVoutputStream@@@@Z 
01:00012B3C ?write@messageFile@@SAXQAVoutputStream@@@@Z 
01:00012BDC ?anonymous$o0$1$writef/1ep$messageFile@1@SAXPAUanonymous$o0$1$writef/1ep$messageFilec_struct@1@QAVoutputStream@@@@Z 
01:00012C14 ?writef@messageFile@@SAXQAVoutputStream@@@PB_W@Z 
01:00012CB8 ?anonymous$o0$1$writequoted/0ep$messageFile@1@SAXPAUanonymous$o0$1$writequoted/0ep$messageFilec_struct@1@QAVoutputStream@@@@Z 
01:00012CE4 ?writeQuoted@messageFile@@SAXQAVoutputStream@@@@Z 
01:00012D84 ?anonymous$o0$1$nl/0np$messageFile@1@SAXQAVoutputStream@@@@Z 
01:00012D94 ?nl@messageFile@@SAXQAVoutputStream@@@@Z 
01:00012DB0 ?anonymous$o0$1$writebytes/2np$messageFile@1@SAXPAUanonymous$o0$1$writebytes/2np$messageFilec_struct@1@QAVoutputStream@@@@Z 
01:00012DE8 ?writeBytes@messageFile@@SAXQAVoutputStream@@@PAXPBUbyteCount@@@Z 
01:00012E24 ?anonymous$o0$1$save/1np$messageFile@1@SAXPAUanonymous$o0$1$save/1np$messageFilec_struct@1@QAVoutputStream@@@@Z 
01:00012E48 ?save@messageFile@@SAXQAVoutputStream@@@PBUfactDB@@@Z 
01:00012E80 ?writeOperation@messageFile@@SAXQAV1@@X@Z 
01:00012F2C ?setMode@messageFile@@SGXQAVstream@@@PAUmode_struct@2@@Z 
01:00012F44 ?getMode@messageFile@@SGPAUmode_struct@stream@@QAV3@@@Z 
01:00012F5C ?getCRLFconversion@messageFile@@SGPAUboolean_struct@_builtIn@@QAVstream@@@@Z 
01:00012F74 ?setCRLFconversion@messageFile@@SGXQAVstream@@@PAUboolean_struct@_builtIn@@@Z 
01:00012F9C ?close@messageFile@@SGXQAVstream@@@@Z 
01:00012FAC ?getPosition@messageFile@@SGPBUfileSize@fileSystem_api@@QAVstream@@@@Z 
01:00012FC4 ?setPosition@messageFile@@SGXQAVstream@@@PBUfileSize@fileSystem_api@@@Z 
01:00012FDC ?_append@messageFile@@SAXPB_WPAPAVoutputStream@@@@Z  (Idle)
01:00013004 ?_append@messageFile@@SAXPB_WPAUmode_struct@stream@@PAPAVoutputStream@@@@Z  (Idle)
01:00013030 ?_object_facts_initializer@messageFile@@SGXQAV1@@@Z 
01:00013048 ?allowNullPointers@messageFile@@SGXQAVstream@@@PAUboolean_struct@_builtIn@@@Z 
01:00013058 ?allowNullPointers@messageFile@@SGPAUboolean_struct@_builtIn@@QAVstream@@@@Z 
01:00013064 ?openFile8@inputStream_file@@SAXQAV1@@PB_W@Z  (Idle)
01:00013078 ?openFileUtf8@inputStream_file@@SAXQAV1@@PB_W@Z  (Idle)
01:0001308C ?openFile@inputStream_file@@SAXQAV1@@PB_W@Z  (Idle)
01:000130A0 ?openFile@inputStream_file@@SAXQAV1@@PB_WPAUmode_struct@stream@@@Z 
01:000130B4 ?openFile@inputStream_file@@SAXQAV1@@PB_WPAUmode_struct@stream@@PAUaccessPermit_struct@fileSystem_api@@@Z 
01:000130CC ?openFile@inputStream_file@@SAXQAV1@@PB_WPAUmode_struct@stream@@PAUaccessPermit_struct@fileSystem_api@@PBUbyteCount@@@Z 
01:0001311C ?newHandle@inputStream_file@@SAXQAV1@@PBUfileHandle@@PAUmode_struct@stream@@@Z  (Idle)
01:00013130 ?newBlockedPipe@inputStream_file@@SAXQAV1@@PBUfileHandle@@PAUmode_struct@stream@@@Z  (Idle)
01:00013154 ?newHandleFile@inputStream_file@@SAXQAV1@@PBUfileHandle@@PAUmode_struct@stream@@@Z  (Idle)
01:00013184 ?_halfBufferSize@inputStream_file@@SAXQAV1@@AAUbyteCount@@@Z  (Idle)
01:0001319C ?commonPartOfConstructors@inputStream_file@@SAXQAV1@@PBUfileHandle@@PAUmode_struct@stream@@PAUboolean_struct@_builtIn@@@Z 
01:00013264 ?allocBuffer@inputStream_file@@SAXQAV1@@@Z 
01:000132BC ?skipUnicodeSignature@inputStream_file@@SAXQAV1@@PAUmode_struct@stream@@@Z 
01:00013320 ?skip@inputStream_file@@SAXQAV1@@HPBUbyteCount@@@Z 
01:00013394 ?handlingMode@inputStream_file@@SAXQAV1@@PAUmode_struct@stream@@@Z 
01:00013460 ?checkBufferSize@inputStream_file@@SAXPBUbyteCount@@@Z 
01:000134B4 ?getPosition@inputStream_file@@SGPBUfileSize@fileSystem_api@@QAVstream@@@@Z 
01:00013588 ?_handlingFileMode@inputStream_file@@SAXQAV1@@PAUmode_struct@stream@@PBUbyteCount@@2AAU5@@Z 
01:00013628 ?_handleTextMode@inputStream_file@@SAXQAV1@@PAUmode_struct@stream@@PBUbyteCount@@IAAU5@@Z 
01:000136BC ?_getPassedConv@inputStream_file@@SAXPAU?$__packedList_struct@UbyteCount@@@@IIPBU2@PAI@Z 
01:0001375C ?setPosition@inputStream_file@@SGXQAVstream@@@PBUfileSize@fileSystem_api@@@Z 
01:000138A0 ?_checkMovingIsInsideBuffer@inputStream_file@@SAXPAPBUfileSize@fileSystem_api@@0PBUbyteCount@@2AAU6@@Z 
01:00013A4C ?close@inputStream_file@@SGXQAVstream@@@@Z 
01:00013A74 ?getCRLFconversion@inputStream_file@@SGPAUboolean_struct@_builtIn@@QAVstream@@@@Z 
01:00013ABC ?setCRLFconversion@inputStream_file@@SGXQAVstream@@@PAUboolean_struct@_builtIn@@@Z 
01:00013B84 ?setMode@inputStream_file@@SGXQAVstream@@@PAUmode_struct@2@@Z 
01:00013C30 ?_checkModeAndPos@inputStream_file@@SAXQAV1@@PAUmode_struct@stream@@PAPBUfileSize@fileSystem_api@@PAAAU56@@Z 
01:00013D68 ?getBufferLocked@inputStream_file@@SGXQAVbufferSupport@@@PAPAXAAUbyteCount@@@Z 
01:00013D94 ?getBuffer@inputStream_file@@SGXQAVbufferSupport@@@PAPAXAAUbyteCount@@@Z 
01:00013DE8 ?_fillBuffer@inputStream_file@@SAXQAV1@@PAUmode_struct@stream@@AAUbyteCount@@@Z 
01:00013F30 ?_getChar8sToSave@inputStream_file@@SAXPBUcodePage@@PAXPBUbyteCount@@AAU3@@Z 
01:00013F9C ?_getChar8sToSave_utf8@inputStream_file@@SAXPAXPBUbyteCount@@AAU2@@Z 
01:00014020 ?_utf8CharLength@inputStream_file@@SAXPBUunsigned8@@AAUbyteCount@@@Z 
01:000141FC ?_convertToUnicode@inputStream_file@@SAXQAV1@@PBUbyteCount@@PBUcodePage@@PAXAAUcharCount@@@Z 
01:00014274 ?convertCRLFtoLF_ifNeeded@inputStream_file@@SAXQAV1@@PAUmode_struct@stream@@PBUbyteCount@@PAPAXAAU5@@Z 
01:0001433C ?handlingBufferLastChar@inputStream_file@@SAXQAV1@@PBUbyteCount@@PAPAXAAU3@@Z 
01:00014380 ?_readFromFile@inputStream_file@@SAXQAV1@@PAXPBUbyteCount@@AAU3@@Z 
01:000143C8 ?_openFile@inputStream_file@@SAXPB_WPAPAVinputStream@@@@Z  (Idle)
01:000143F0 ?_openFile@inputStream_file@@SAXPB_WPAUmode_struct@stream@@PAPAVinputStream@@@@Z  (Idle)
--- From 'Obj\exe_api.F27809B9.obj'
01:0001441C ?_openFile@inputStream_file@@SAXPB_WPAUmode_struct@stream@@PAUaccessPermit_struct@fileSystem_api@@PAPAVinputStream@@@@Z 
--- From 'Obj\filesystem.14FC0F0E.obj'
01:0001444C ?_openFile@inputStream_file@@SAXPB_WPAUmode_struct@stream@@PAUaccessPermit_struct@fileSystem_api@@PBUbyteCount@@PAPAVinputStream@@@@Z  (Idle)
01:00014480 ?_openFile8@inputStream_file@@SAXPB_WPAPAVinputStream@@@@Z  (Idle)
01:000144A8 ?_openFileUtf8@inputStream_file@@SAXPB_WPAPAVinputStream@@@@Z  (Idle)
01:000144D0 ?_newHandleFile@inputStream_file@@SAXPBUfileHandle@@PAUmode_struct@stream@@PAPAVinputStream@@@@Z  (Idle)
01:000144FC ?_newHandle@inputStream_file@@SAXPBUfileHandle@@PAUmode_struct@stream@@PAPAVinputStream@@@@Z  (Idle)
01:00014528 ?_newBlockedPipe@inputStream_file@@SAXPBUfileHandle@@PAUmode_struct@stream@@PAPAVinputStream@@@@Z  (Idle)
01:00014554 ?_object_facts_initializer@inputStream_file@@SGXQAV1@@@Z 
01:0001457C ?_tryVerQueryValue@fileVersion@@SAXQAEPB_WPAPAX@Z  (Idle)
01:000145C8 ?_getFileVersionInformation@fileVersion@@SAXQAEPB_W1PAPB_W@Z  (Idle)
01:00014668 ?_loadVersionInfo@fileVersion@@SAXPB_WQAPAE@Z  (Idle)
01:000147A0 ?_getLanguageAndCodePageKey@fileVersion@@SAXQAEPAPB_W@Z  (Idle)
01:00014830 ?_getVersionInfo@fileVersion@@SAXPB_WPAPAUversionInformation_struct@1@@Z  (Idle)
01:00014900 ?_getVersionBuildTime@fileVersion@@SAXPB_WPAPB_W@Z  (Idle)
01:00014958 ?_getProductVersion@fileVersion@@SAXPB_WPAPA_K@Z  (Idle)
01:000149BC ?_getRootKey@fileVersion@@SAXQAEPAPAUvs_fixedfileinfo_struct@1@@Z 
01:00014A08 ?_getFileVersionInfo@fileVersion@@SAXPB_WPAPAUfileVersionInformation_struct@1@@Z  (Idle)
01:00014ABC ?raise_fileAlreadyExists_explicit@fileSystem_exception@@SAXPAUprogramPoint_struct@core@@PB_W@Z  (Idle)
01:00014B30 ?raise_wrongAttribute_explicit@fileSystem_exception@@SAXPAUprogramPoint_struct@core@@I@Z  (Idle)
01:00014BA4 ?raise_fileTooBig_explicit@fileSystem_exception@@SAXPAUprogramPoint_struct@core@@PB_W@Z  (Idle)
01:00014C18 ?checkFileReadResult_explicit@fileSystem_exception@@SAXPAUprogramPoint_struct@core@@H@Z  (Idle)
01:00014C54 ?_getPath@filename@@SAXPB_WPAPB_W@Z  (Idle)
01:00014C74 ?_getPosLastSlash@filename@@SAXPB_WAAUcharCount@@@Z  (Idle)
01:00014CE0 ?_getNameWithExtension@filename@@SAXPB_WPAPB_W@Z  (Idle)
--- From 'Obj\exe.0BB6E1A4.obj'
01:00014D14 ?getPathAndName@filename@@SAXPB_WPAPB_W1@Z 
--- From 'Obj\filesystem.14FC0F0E.obj'
01:00014D5C ?_getName1@filename@@SAXPB_WPAPB_W@Z  (Idle)
01:00014D90 ?_getLastDirectory@filename@@SAXPB_WPAPB_W1@Z  (Idle)
01:00014DE8 ?_removeLastSlash@filename@@SAXPB_WPAPB_W@Z 
01:00014E68 ?_getName@filename@@SAXPB_WPAPB_W@Z  (Idle)
01:00014E90 ?_charGet@filename@@SAXPB_WPBUcharCountOptional@@AAU2@@Z  (Idle)
01:00014F0C ?_getExtension@filename@@SAXPB_WPAPB_W@Z  (Idle)
01:00014F64 ?_getExtension@filename@@SAXPB_WPAPB_W1@Z  (Idle)
01:00014FDC ?_setPath@filename@@SAXPB_W0PAPB_W@Z  (Idle)
01:00015008 ?_setName@filename@@SAXPB_W0PAPB_W@Z  (Idle)
01:00015064 ?_setExtension@filename@@SAXPB_W0PAPB_W@Z  (Idle)
01:0001516C ?_reduce@filename@@SAXPB_W0PAPB_W@Z  (Idle)
01:00015280 ?_reduceToShort@filename@@SAXPB_W0PAPB_W@Z  (Idle)
01:000152CC ?getFirstDirectory@filename@@SAXPB_WPAPB_W1@Z 
01:000153B4 ?getNetName@filename@@SAXPB_W0PAPB_W2@Z 
01:0001540C ?_setTrailSlash@filename@@SAXPB_WPAPB_W@Z 
01:0001545C ?_getSlashList@filename@@SAXPB_W_WPBUcharCount@@PAPAU?$__packedList_struct@U2@@@@Z  (Idle)
01:000154EC ?_tail@filename@@SAXPB_WPBUcharCount@@PAPB_W@Z 
01:0001550C ?_getOrderedList@filename@@SAXPAU?$__packedList_struct@UcharCount@@@@0PAPAU?$__packedList_struct@U2@@@@Z  (Idle)
01:000155C4 ?splitPathString@filename@@SAXPB_WPAU?$__packedList_struct@UcharCount@@@@PBU2@PAPAU?$__packedList_struct@Ustring@@@@AAU2@@Z  (Idle)
01:00015654 ?splitOntoPathAndName@filename@@SAXPB_WPAPAU?$__packedList_struct@Ustring@@@@PAPB_W@Z 
01:000156FC ?_splitFileExt@filename@@SAXPB_WPAPB_W@Z 
01:0001573C ?_splitFileName@filename@@SAXPB_WPAPB_W@Z 
01:00015788 ?_directoryCompare@filename@@SAXPAU?$__packedList_struct@Ustring@@@@0PAPB_W@Z 
01:0001580C ?_glueRest@filename@@SAXPAU?$__packedList_struct@Ustring@@@@0PAPB_W@Z 
01:0001585C ?splitPath@filename@@SAXPB_WPAPAU?$__packedList_struct@Ustring@@@@AAUcharCount@@@Z 
01:000158CC ?_nameConcat@filename@@SAXPB_W00PAPB_W@Z 
01:00015960 ?_createPath@filename@@SAXPB_W0PAPB_W@Z  (Idle)
01:000159D0 ?_reducePath@filename@@SAXPB_WPAPB_W@Z  (Idle)
01:00015A50 ?_createPath@filename@@SAX_WPB_W11PAPB_W@Z 
01:00015B10 ?_concatWithSlash@filename@@SAXPB_W0PAPB_W@Z 
01:00015BA8 ?_getTypeOfSlash@filename@@SAXPB_W0PAPB_W@Z 
01:00015C54 ?isSlash@filename@@SAX_W@Z 
01:00015C74 ?_checkSecondCharAfterSlash@filename@@SAXPB_W00PAPB_W@Z 
01:00015D40 ?_checkThirdCharAfterColon@filename@@SAXPB_W_W00PAPB_W@Z 
01:00015E14 ?_reducePath@filename@@SAX_WPB_WPAPB_W@Z 
01:00015E44 ?_applyFileName@filename@@SAXPB_WPAU?$__packedList_struct@Ustring@@@@PAPAU?$__packedList_struct@U2@@@@Z 
01:00015F54 ?stay_dir@filename@@SAXPB_W@Z  (Idle)
01:00015F94 ?up_dir@filename@@SAXPB_W@Z 
01:00015FDC ?_reducePath_reversed@filename@@SAXPAU?$__packedList_struct@Ustring@@@@PAPAU?$__packedList_struct@U2@@@@Z 
01:000160BC ?_upOneDir_reversed@filename@@SAXPAU?$__packedList_struct@Ustring@@@@PAPAU?$__packedList_struct@U2@@@@Z 
01:000161DC ?notDriveOrNetworkVolume@filename@@SAXPB_W@Z 
01:00016294 ?front_wc@filename@@SAXPB_WPBUcharCount@@PAPB_W2@Z 
01:000162C8 ?_normalize@filename@@SAXPB_WPAPB_W@Z  (Idle)
01:000163A4 ?_normalizeSl@filename@@SAXPB_WPAPB_W@Z 
01:000163F4 ?isAbsolutePath@filename@@SAXPB_W@Z  (Idle)
01:00016494 ?up_dir@filename@@SAXPAPB_W@Z 
01:000164A8 ?copy@file@@SAXPB_W0@Z  (Idle)
01:000164BC ?copy@file@@SAXPB_W0PAUoverwrite_struct@1@@Z 
01:00016528 ?move@file@@SAXPB_W0@Z  (Idle)
01:0001653C ?move@file@@SAXPB_W0PAUoverwrite_struct@1@@Z 
01:000165C0 ?delete@file@@SAXPB_W@Z  (Idle)
01:00016654 ?existExactFile@file@@SAXPB_W@Z  (Idle)
01:00016688 ?existFile@file@@SAXPB_W@Z  (Idle)
01:000167C0 ?tryGetFile@file@@SAXPBUsearchHandle@@PAUwin32_find_data_struct@fileSystem_native@@@Z 
01:00016864 ?_createUniqueName@file@@SAXPB_W0PAPB_W@Z 
01:0001696C ?_getPhysicalName@file@@SAXPB_WPAPB_W@Z  (Idle)
01:00016B74 ?setAttributes@file@@SAXPB_WPAU?$__packedList_struct@UfileAttributeAtom@@@@PAUboolean_struct@_builtIn@@@Z  (Idle)
01:00016DBC ?getFileProperties@file@@SAXPB_WPAPAU?$__packedList_struct@UfileAttributeAtom@@@@PAAAUfileSize@fileSystem_api@@PAAAUgmtTimeValue@@33@Z  (Idle)
01:00016E80 ?_tryGetLastChange@file@@SAXPB_WPAAAUgmtTimeValue@@@Z  (Idle)
01:00016EE4 ?setFileTime@file@@SAXPB_WPAPBUgmtTimeValue@@11@Z  (Idle)
01:00017120 ?moveToRecycleBin@file@@SAXPB_W@Z  (Idle)
01:0001725C ?_readBinary@file@@SAXPB_WQAPAE@Z  (Idle)
01:00017320 ?_readFile@file@@SAXPBUfileHandle@@PAXPBUbyteCount@@AAU3@@Z 
01:00017328 ?_readBinary@file@@SAXPB_WPAPBUfileSize@fileSystem_api@@PBUbyteCount@@QAPAE@Z  (Idle)
01:00017474 ?_readString@file@@SAXPB_WPAPB_W@Z  (Idle)
01:00017494 ?_readString@file@@SAXPB_WPAPAUboolean_struct@_builtIn@@PAPB_W@Z 
01:00017528 ?_readStringFromHandle@file@@SAXPBUfileHandle@@PAPAUboolean_struct@_builtIn@@PAPB_W@Z 
01:00017618 ?isUnicode@file@@SAXPB_W@Z  (Idle)
01:00017734 ?tryBOM@file@@SAXPAXPBUbyteCount@@PB_W1@Z  (Idle)
01:0001776C ?checkUnicode@file@@SAXPAXPBUbyteCount@@PAPAUmode_struct@stream@@AAU2@@Z 
01:0001782C ?_getString@file@@SAXPBUbyteCount@@PAXPAUmode_struct@stream@@0PAPB_W@Z 
01:00017888 ?_getString2@file@@SAXPBUbyteCount@@PAXPAUmode_struct@stream@@PAXPAPB_W@Z 
01:00017948 ?_getFileSize@file@@SAXPBUfileHandle@@PB_WAAUbyteCount@@@Z 
01:00017A1C ?writeBinary@file@@SAXPB_WQAE@Z  (Idle)
01:00017AC8 ?writeFile@file@@SAXPBUfileHandle@@PAXPBUbyteCount@@@Z 
01:00017AEC ?writeBinary@file@@SAXPB_WPAPBUfileSize@fileSystem_api@@QAE@Z  (Idle)
01:00017BB0 ?appendString@file@@SAXPB_W0PAUboolean_struct@_builtIn@@@Z  (Idle)
01:00017C00 ?writeString@file@@SAXPB_W0@Z  (Idle)
01:00017C2C ?writeString@file@@SAXPB_W0PAUboolean_struct@_builtIn@@@Z  (Idle)
01:00017C4C ?writeStringUtf8@file@@SAXPB_W0@Z  (Idle)
01:00017C74 ?writeStringUtf8_bom@file@@SAXPB_W0@Z  (Idle)
01:00017C9C ?writeString_codePage@file@@SAXPB_W0PBU2@@Z 
01:00017CDC ?writeStringAndClose@file@@SAXQAVoutputStream@@@PB_W@Z 
01:00017D68 ?checkResult@file@@SAXPBUhResult@@PB_W11PAUoverwrite_struct@1@@Z 
01:000180B8 ?fileExists_errorCode@file@@SAXPBUhResult@@@Z 
01:000180D8 ?hideUnicodeSignature@file@@SAXQAEPBUbyteCount@@PAPAXAAU2@@Z 
01:0001815C ?_setDestination@file@@SAXPB_W0PAPB_W@Z 
01:000181B4 ?_toApiAttributes@file@@SAXPAU?$__packedList_struct@UfileAttributeAtom@@@@PAI@Z 
01:000181DC ?checkOnLegal@file@@SAXI@Z 
01:00018210 ?_mixAttributes@file@@SAXPAUboolean_struct@_builtIn@@IIPAI@Z 
01:0001825C ?checkFileHandle@file@@SAXPBUfileHandle@@PB_W@Z 
01:0001828C ?_getStreamCheckUnicode@file@@SAXPB_WPAUboolean_struct@_builtIn@@PAPAVoutputStream@@@@Z  (Idle)
01:000182B4 ?save@file@@SAXPB_WPBUfactDB@@@Z  (Idle)
01:000182C8 ?save@file@@SAXPB_WPBUfactDB@@PAUboolean_struct@_builtIn@@@Z 
01:00018350 ?saveUtf8@file@@SAXPB_WPBUfactDB@@@Z  (Idle)
01:000183D8 ?_checkSignature@file@@SAXQAVinputStream@@@PAPAUboolean_struct@_builtIn@@@Z  (Idle)
01:0001853C ?consult@file@@SAXPB_WPBUfactDB@@@Z  (Idle)
01:0001855C ?consult@file@@SAXPB_WPBUfactDB@@PAPAUboolean_struct@_builtIn@@@Z 
01:000185F8 ?reconsult@file@@SAXPB_WPBUfactDB@@@Z  (Idle)
01:00018618 ?reconsult@file@@SAXPB_WPBUfactDB@@PAPAUboolean_struct@_builtIn@@@Z 
01:0001862C ?_trySearchFileInPath@file@@SAXPB_WPAPB_W@Z  (Idle)
01:00018670 ?writeCodedString@file@@SAXPB_W0PBUcodePage@@@Z  (Idle)
01:00018678 ?deleteDirectory@directory@@SAXPB_W@Z  (Idle)
01:00018680 ?makeDirectory@directory@@SAXPB_W@Z  (Idle)
01:00018694 ?makeDirectoryPath@directory@@SAXPB_W@Z  (Idle)
01:0001870C ?setCurrentDirectory@directory@@SAXPB_W@Z  (Idle)
--- From 'Obj\filesystem_api.EE6511E1.obj'
01:00018714 ?_getCurrentDirectory@directory@@SAXPAPB_W@Z 
--- From 'Obj\filesystem.14FC0F0E.obj'
01:0001871C ?moveDirectory@directory@@SAXPB_W0@Z  (Idle)
01:00018724 ?setVolumeLabel@directory@@SAXPB_W0@Z  (Idle)
01:0001872C ?existDirectory@directory@@SAXPB_W@Z 
01:0001887C ?existExactDirectory@directory@@SAXPB_W@Z 
01:000188AC ?isFirst@directory@@SAXPBUsearchHandle@fileSystem_native@@PAUwin32_find_data_struct@3@@Z  (Idle)
01:00018950 ?isEmpty@directory@@SAXPB_W@Z  (Idle)
01:00018B68 ?_dirWithoutBackslash@directory@@SAXPB_WPAPB_W@Z 
01:00018BB4 ?getDirectoryProperties@directory@@SAXPB_WPAPAU?$__packedList_struct@UfileAttributeAtom@@@@PAAAUgmtTimeValue@@22@Z  (Idle)
01:00018BDC ?getVolumeProperties@directory@@SAXPB_WPAPAUvolumeType_struct@1@PAAAUfileSize@fileSystem_api@@2PAPB_WPAI@Z  (Idle)
01:00018C34 ?_tryGetLogicalDirectory@directory@@SAXPBUdirectoryID@@PAPB_W@Z  (Idle)
01:00018C50 ?_getLogicalDirectory@directory@@SAXPBUdirectoryID@@PAPB_W@Z  (Idle)
01:00018C6C ?_getTemporaryDirectory@directory@@SAXPAPB_W@Z  (Idle)
01:00018C74 ?_tryCreateLogicalDirectory@directory@@SAXPBUdirectoryID@@PAPB_W@Z  (Idle)
01:00018C90 ?_getFilesInDirectory_nd@directory@@SAXPB_WPAPB_W@Z  (Idle)
01:00018CB0 ?_getFilesInDirectory_nd@directory@@SAXPB_W0PAPB_W@Z 
01:00018CCC ?_getFilesInDirectory_nd@directory@@SAXPB_W0PAUboolean_struct@_builtIn@@PAPB_W@Z 
01:00018CF4 ?_getSubDirectories_nd@directory@@SAXPB_WPAPB_W@Z  (Idle)
01:00018D14 ?_getSubDirectories_nd@directory@@SAXPB_W0PAPB_W@Z 
01:00018D38 ?_getAllSubDirectories_nd@directory@@SAXPB_WPAPB_W@Z  (Idle)
01:00018DA0 ?_getFilesInDirectoryAndSub_nd@directory@@SAXPB_WPAPB_W@Z  (Idle)
01:00018DC0 ?_getFilesInDirectoryAndSub_nd@directory@@SAXPB_W0PAPB_W@Z 
01:00018E4C ?_find@directory@@SAXPB_W0IPAUboolean_struct@_builtIn@@PAPB_W@Z 
01:00018FB4 ?_dirWithBackslash@directory@@SAXPB_WPAPB_W@Z 
01:00019030 ?checkHiddenOrSystem@directory@@SAXPB_WPAUboolean_struct@_builtIn@@@Z 
01:00019048 ?isNotHiddenOrSystem@directory@@SAXPB_W@Z 
01:00019070 ?isSlash@directory@@SAX_W@Z 
01:00019090 ?findNext@directory@@SAXPBUsearchHandle@fileSystem_native@@PAUwin32_find_data_struct@3@I@Z 
01:00019118 ?_findNext_nd@directory@@SAXPBUsearchHandle@fileSystem_native@@PAUwin32_find_data_struct@3@IPAPB_W@Z 
01:00019220 ?_createFullName@directory@@SAXPB_W0PAPB_W@Z 
01:000192CC ?_tryLogicalDirectoryBuff@directory@@SAXPBUdirectoryId@1@PAUboolean_struct@_builtIn@@PB_WPAPB_W@Z  (Idle)
01:00019424 ?_logicalDirectoryBuff@directory@@SAXPBUdirectoryId@1@PAUboolean_struct@_builtIn@@PB_WPAPB_W@Z  (Idle)
01:00019638 ?_tryLogicalDirectory@directory@@SAXPBUdirectoryId@1@PAUboolean_struct@_builtIn@@PAPB_W@Z 
01:00019670 ?_logicalDirectory@directory@@SAXPBUdirectoryId@1@PAUboolean_struct@_builtIn@@PAPB_W@Z 
01:000196A8 ?_addNeedCreateIfNecessary@directory@@SAXPBUdirectoryId@1@PAUboolean_struct@_builtIn@@AAU21@@Z 
01:000196D8 ?_convertToVolumeType@directory@@SAXHPAPAUvolumeType_struct@1@@Z 
01:00019758 ?_browseForFolder@directory@@SAXPBUhwnd@@PB_W1PAUboolean_struct@_builtIn@@PAPB_W@Z  (Idle)
01:000197FC ?_getBrowseForFolderFlags@directory@@SAXPAUboolean_struct@_builtIn@@PAI@Z 
01:00019820 ?browseForFolderCallback@directory@@SGHPBUhwnd@@IPBUlParam@@2@Z 
01:00019858 ?copyDirectory@directory@@SAXPB_W0PAUboolean_struct@_builtIn@@@Z  (Idle)
01:000198AC ?copyDir@directory@@SAXPB_W0PAUboolean_struct@_builtIn@@@Z 
01:000199D0 ?forAllFiles@directory@@SAXPB_WX@Z  (Idle)
01:000199F0 ?forAllFiles@directory@@SAXPB_WX0PAUboolean_struct@_builtIn@@@Z 
01:00019C94 outputStream_file?_initObject@@@QAGXQAV1@H@Z 
01:00019CC8 ?@create_object@outputStream_file@@SGQAV1@@XZ 
01:00019CE4 outputStream_file?_InternalFinalizer@@@QAGXQAV1@@Z 
01:00019CFC messageFile?_initObject@@@QAGXQAV1@H@Z 
01:00019D1C ?@create_object@messageFile@@SGQAV1@@XZ 
01:00019D38 messageFile?_InternalFinalizer@@@QAGXQAV1@@Z 
01:00019FD0 inputStream_file?_initObject@@@QAGXQAV1@H@Z 
01:0001A004 ?@create_object@inputStream_file@@SGQAV1@@XZ 
01:0001A020 inputStream_file?_InternalFinalizer@@@QAGXQAV1@@Z 
--- From 'Obj\exception.311FF4B8.obj'
01:0001A030 ?format_exceptionHandler_explicit@string_exception@@SAXPAUprogramPoint_struct@core@@PBUtraceId@5@PB_W@Z 
--- From 'Obj\string.79FC483E.obj'
01:0001A118 ?raise_emptyString_explicit@string_exception@@SAXPAUprogramPoint_struct@core@@@Z  (Idle)
01:0001A130 ?raise_outOfBoundaries_explicit@string_exception@@SAXPAUprogramPoint_struct@core@@PBUcharCount@@1@Z  (Idle)
01:0001A1F8 ?raise_oddOffset_explicit@string_exception@@SAXPAUprogramPoint_struct@core@@PBUbyteCount@@@Z 
01:0001A26C ?_create@string@@SAXPBUcharCount@@PB_WPAPB_W@Z 
--- From 'Obj\filesystem_api.EE6511E1.obj'
01:0001A2A4 ?_length@string@@SAXPB_WAAUcharCount@@@Z 
--- From 'Obj\string.79FC483E.obj'
01:0001A2BC ?_tryCreate@string@@SAXPBUcharCount@@PB_WPAPB_W@Z  (Idle)
--- From 'Obj\exe_api.F27809B9.obj'
01:0001A314 ?_createCopy@string@@SAXPB_WPAPB_W@Z 
--- From 'Obj\string.79FC483E.obj'
01:0001A394 ?hasSuffix@string@@SAXPB_W0PAPB_W@Z  (Idle)
01:0001A3F8 ?hasSuffix@string@@SAXPB_W0@Z  (Idle)
01:0001A454 ?hasPrefix@string@@SAXPB_W0PAPB_W@Z 
01:0001A47C ?_hasPrefixPtr@string@@SAXPAUpChar_struct@memory@@0PAPAU23@@Z 
01:0001A51C ?hasPrefixIgnoreCase@string@@SAXPB_W0PAPB_W@Z  (Idle)
01:0001A534 ?hasPrefixIgnoreCase@string@@SAXPB_W0PAPB_WPBUlcId@locale_native@@@Z 
01:0001A574 ?hasPrefixCaseNeutral@string@@SAXPB_W0PAPB_W@Z  (Idle)
--- From 'Obj\exception.311FF4B8.obj'
01:0001A588 ?_concat@string@@SAXPB_W0PAPB_W@Z 
--- From 'Obj\registry.750278BD.obj'
01:0001A5F8 ?_concat@string@@SAXPB_W00PAPB_W@Z 
--- From 'Obj\string.79FC483E.obj'
01:0001A694 ?_concat@string@@SAXPB_W000PAPB_W@Z  (Idle)
01:0001A6BC ?_concat@string@@SAXPB_W0000PAPB_W@Z  (Idle)
01:0001A6DC ?_concat@string@@SAXPB_W00000PAPB_W@Z 
01:0001A800 ?_concatList@string@@SAXPAU?$__packedList_struct@U1@@@PAPB_W@Z 
01:0001A890 ?_concatWithDelimiter@string@@SAXPAU?$__packedList_struct@U1@@@PB_WPAPB_W@Z  (Idle)
01:0001A9A8 ?concatListWithDelimiter_inner@string@@SAXPAXPAU?$__packedList_struct@U1@@@PAXPBUbyteCount@@PAU?$__packedList_struct@UcharCount@@@@@Z 
01:0001AA40 ?_copyDelimiterIfNeeded@string@@SAXPAXPAU?$__packedList_struct@U1@@@PAXPBUbyteCount@@PAPAX@Z 
01:0001AA74 ?getStringListInfo@string@@SAXPAU?$__packedList_struct@U1@@@PBUpositive@@1AAU3@3PAPAU?$__packedList_struct@UcharCount@@@@@Z 
01:0001AB10 ?concatStringList@string@@SAXPAXPAU?$__packedList_struct@U1@@@PAU?$__packedList_struct@UcharCount@@@@@Z 
--- From 'Obj\exception.311FF4B8.obj'
01:0001ABB0 ?equalCaseNeutral@string@@SAXPB_W0@Z 
--- From 'Obj\string.79FC483E.obj'
01:0001ABC4 ?_compareCaseNeutral@string@@SAXPB_W0PAPAUcompareResult_struct@_builtIn@@@Z  (Idle)
01:0001ABE0 ?equalIgnoreCase@string@@SAXPB_W0@Z  (Idle)
01:0001AC0C ?equalIgnoreCase@string@@SAXPB_W0PBUlcId@locale_native@@@Z 
01:0001AC3C ?_compareIgnoreCase@string@@SAXPB_W0PAPAUcompareResult_struct@_builtIn@@@Z 
01:0001AC60 ?_compareIgnoreCase@string@@SAXPB_W0PBUlcId@locale_native@@PAPAUcompareResult_struct@_builtIn@@@Z 
01:0001AC7C ?_compareString@string@@SAXPB_W0PAPAUcompareResult_struct@_builtIn@@@Z  (Idle)
01:0001ACA0 ?_compareString@string@@SAXPB_W0PBUlcId@locale_native@@PAPAUcompareResult_struct@_builtIn@@@Z 
01:0001ACBC ?_compareString@string@@SAXPB_W0PBUlcId@locale_native@@IPAPAUcompareResult_struct@_builtIn@@@Z 
01:0001AE64 ?_adjustRight@string@@SAXPB_WPBUcharCount@@PAPB_W@Z  (Idle)
01:0001AE84 ?_adjustRight@string@@SAXPB_WPBUcharCount@@0PAPB_W@Z 
01:0001AEA0 ?_adjustRight@string@@SAXPB_WPBUcharCount@@0PAUadjustBehaviour_struct@1@PAPB_W@Z 
01:0001AF10 ?_adjustLeft@string@@SAXPB_WPBUcharCount@@PAPB_W@Z  (Idle)
01:0001AF30 ?_adjustLeft@string@@SAXPB_WPBUcharCount@@0PAPB_W@Z 
01:0001AF4C ?_adjust@string@@SAXPB_WPBUcharCount@@PAUadjustSide_struct@1@PAPB_W@Z  (Idle)
01:0001AF74 ?_adjust@string@@SAXPB_WPBUcharCount@@0PAUadjustSide_struct@1@PAPB_W@Z  (Idle)
01:0001AF9C ?_adjust@string@@SAXPB_WPBUcharCount@@0PAUadjustBehaviour_struct@1@PAUadjustSide_struct@1@PAPB_W@Z  (Idle)
01:0001AFC4 ?_crop@string@@SAXPB_WPBUcharCount@@PAUadjustSide_struct@1@PAUadjustBehaviour_struct@1@PAPB_W@Z 
01:0001B058 ?_adjustLeft@string@@SAXPB_WPBUcharCount@@0PAUadjustBehaviour_struct@1@PAPB_W@Z 
01:0001B0B8 ?_split@string@@SAXPB_W0PAPAU?$__packedList_struct@U1@@@@Z  (Idle)
--- From 'Obj\filesystem_api.EE6511E1.obj'
01:0001B150 ?format@string@@SAPB_W0@Z 
--- From 'Obj\core.610F2EE0.obj'
01:0001B1B0 ?write@string@@SAPB_WXZ 
--- From 'Obj\string.79FC483E.obj'
01:0001B1C8 ?_rear@string@@SAXPB_WPBUcharCount@@PAPB_W@Z  (Idle)
--- From 'Obj\exe.0BB6E1A4.obj'
01:0001B21C ?_fromPosition@string@@SAXPB_WPBUcharCount@@PAPB_W@Z 
--- From 'Obj\string.79FC483E.obj'
01:0001B24C ?front_wc@string@@SAXPB_WPBUcharCount@@PAPB_W2@Z  (Idle)
01:0001B280 ?front@string@@SAXPB_WPBUcharCount@@PAPB_W2@Z 
01:0001B2C4 ?tryFront@string@@SAXPB_WPBUcharCount@@PAPB_W2@Z 
01:0001B300 ?checkPosition@string@@SAXPBUcharCount@@PB_W@Z 
01:0001B364 ?_frontChar@string@@SAXPB_WPA_W@Z 
01:0001B378 ?_tryFrontChar@string@@SAXPB_WPA_W@Z  (Idle)
01:0001B39C ?frontChar_wc@string@@SAXPB_WPA_WPAPB_W@Z  (Idle)
--- From 'Obj\exe.0BB6E1A4.obj'
01:0001B3BC ?frontChar@string@@SAXPB_WPA_WPAPB_W@Z 
--- From 'Obj\string.79FC483E.obj'
01:0001B3D4 ?_tryLastChar@string@@SAXPB_WPA_W@Z  (Idle)
01:0001B408 ?lastChar@string@@SAXPB_WPAPB_WPA_W@Z 
01:0001B458 ?_lastChar@string@@SAXPB_WPA_W@Z 
01:0001B498 ?_truncate@string@@SAXPB_WPBUcharCount@@PAPB_W@Z  (Idle)
01:0001B4D8 ?_toCharList@string@@SAXPB_WPAPAU?$__packedList_struct@Uchar@@@@@Z  (Idle)
01:0001B540 ?frontToken@string@@SAXPB_WPAPB_W1@Z 
--- From 'Obj\memory_api.066136AF.obj'
01:0001B560 ?isValidToRead@string@@SAXPB_W@Z 
--- From 'Obj\string.79FC483E.obj'
01:0001B574 ?isValidToRead@string@@SAXPB_WPBUcharCount@@@Z 
01:0001B594 ?_replaceFirst@string@@SAXPB_W00PAPB_W@Z  (Idle)
01:0001B5B0 ?_replaceFirst@string@@SAXPB_W00PAUcaseSensitivity_struct@1@PAPB_W@Z 
01:0001B5E4 ?_replaceAll@string@@SAXPB_W00PAPB_W@Z 
01:0001B600 ?_replaceAll@string@@SAXPB_W00PAUcaseSensitivity_struct@1@PAPB_W@Z 
01:0001B634 ?_replaceAll@string@@SAXPB_W00PAUcaseSensitivity_struct@1@PAIPAPB_W@Z  (Idle)
01:0001B66C ?_caseToInteger@string@@SAXPAUcaseSensitivity_struct@1@PAH@Z 
01:0001B69C ?_replacePart@string@@SAXPB_WPBUcharCount@@10PAPB_W@Z  (Idle)
01:0001B75C ?_tryReplacePart@string@@SAXPB_WPBUcharCount@@10PAPB_W@Z  (Idle)
01:0001B814 ?_search@string@@SAXPB_W0AAUcharCount@@@Z  (Idle)
01:0001B850 ?_search@string@@SAXPB_W0PAUcaseSensitivity_struct@1@AAUcharCount@@@Z 
01:0001B910 ?_searchLast@string@@SAXPB_W0PAUcaseSensitivity_struct@1@AAUcharCount@@@Z  (Idle)
01:0001B9D0 ?_subString@string@@SAXPB_WPBUcharCount@@1PAPB_W@Z 
01:0001BA1C ?_trySubString@string@@SAXPB_WPBUcharCount@@1PAPB_W@Z  (Idle)
01:0001BA60 ?_toUpperCase@string@@SAXPB_WPAPB_W@Z 
--- From 'Obj\reflection.87B371B1.obj'
01:0001BA84 ?_toLowerCase@string@@SAXPB_WPAPB_W@Z 
--- From 'Obj\string.79FC483E.obj'
01:0001BAA8 ?isUpperCase@string@@SAXPB_W@Z  (Idle)
01:0001BADC ?isLowerCase@string@@SAXPB_W@Z  (Idle)
01:0001BB10 ?hasDecimalDigits@string@@SAXPB_W@Z  (Idle)
01:0001BB2C ?isDecimalDigits@string@@SAXPB_W@Z 
01:0001BB7C ?decimalDigit@string@@SAX_W@Z 
01:0001BBA0 ?hasAlpha@string@@SAXPB_W@Z  (Idle)
01:0001BBC8 ?isWhiteSpace@string@@SAXPB_W@Z  (Idle)
01:0001BBD0 ?_split_delimiter@string@@SAXPB_W0PAPAU?$__packedList_struct@U1@@@@Z  (Idle)
01:0001BBFC ?_splitByString@string@@SAXPB_W0PBUcharCount@@PAPAU?$__packedList_struct@U1@@@@Z 
01:0001BCA0 ?_split_length@string@@SAXPB_WPAU?$__packedList_struct@UcharCount@@@@PAPAU?$__packedList_struct@U1@@@@Z  (Idle)
--- From 'Obj\registry.750278BD.obj'
01:0001BD34 ?_trim@string@@SAXPB_WPAPB_W@Z 
--- From 'Obj\string.79FC483E.obj'
01:0001BD58 ?_charToString@string@@SAX_WPAPB_W@Z  (Idle)
01:0001BD84 ?_charUpper@string@@SAX_WPA_W@Z  (Idle)
01:0001BDA0 ?_charLower@string@@SAX_WPA_W@Z  (Idle)
--- From 'Obj\reflection.87B371B1.obj'
01:0001BDBC ?splitStringBySeparators@string@@SAXPB_W0PAPB_WPA_W2@Z 
--- From 'Obj\string.79FC483E.obj'
01:0001BE1C ?_getMinPosition@string@@SAXPB_W0PBUcharCount@@AAU2@@Z 
01:0001BE8C ?isName@string@@SAXPB_W@Z  (Idle)
01:0001BEE0 ?isLegalFrontCharOfName@string@@SAX_W@Z 
01:0001BF0C ?isCorrectRemainderOfName@string@@SAXPB_W@Z 
01:0001BF5C ?isCorrectRemainderCharOfName@string@@SAX_W@Z 
01:0001BFAC ?isClassIdentifier@string@@SAXPB_W0@Z  (Idle)
01:0001C018 ?isObjectIdentifier@string@@SAXPB_W0@Z  (Idle)
01:0001C094 ?isCorrectMemberName@string@@SAXPB_W@Z 
01:0001C128 ?keywordString@string@@SAXPB_WPAPAUboolean_struct@_builtIn@@@Z 
01:0001C9DC ?isCorrectClassFrontChar@string@@SAX_W@Z 
--- From 'Obj\exe.0BB6E1A4.obj'
01:0001CA10 ?_searchChar@string@@SAXPB_W_WAAUcharCount@@@Z 
--- From 'Obj\string.79FC483E.obj'
01:0001CA34 ?_searchChar@string@@SAXPB_W_WPAUcaseSensitivity_struct@1@AAUcharCount@@@Z 
01:0001CAC0 ?_subChar@string@@SAXPB_WPBUcharCount@@PA_W@Z 
01:0001CAF8 ?_trySubchar@string@@SAXPB_WPBUcharCount@@PA_W@Z  (Idle)
01:0001CB2C ?_getCharValue@string@@SAX_WAAUunsigned16@@@Z  (Idle)
--- From 'Obj\string8.31126D59.obj'
01:0001CB40 ?_getCharFromValue@string@@SAXPBUunsigned16@@PA_W@Z 
--- From 'Obj\string.79FC483E.obj'
01:0001CB54 ?listToArray@string@@SAXPAU?$__packedList_struct@U1@@@PAPAXPAI@Z  (Idle)
01:0001CBB0 ?_arrayToList@string@@SAXPAXIPAPAU?$__packedList_struct@U1@@@@Z  (Idle)
01:0001CBBC ?fillArray@string@@SAXPAXPAU?$__packedList_struct@U1@@@@Z 
01:0001CC20 ?_fillList@string@@SAXPBUunsignedNative@@IPAPAU?$__packedList_struct@U1@@@@Z 
01:0001CC80 ?_createFromCharList@string@@SAXPAU?$__packedList_struct@Uchar@@@@PAPB_W@Z  (Idle)
01:0001CCC8 ?fillString@string@@SAXPAXPAU?$__packedList_struct@Uchar@@@@@Z 
01:0001CD28 isWhiteSpace_C 
01:0001CD68 isWhiteSpace_S 
01:0001CDBC ?getMetricPrefix@string@@SAXPANPAPANPAPB_W@Z  (Idle)
01:0001CF38 ?_toMetricPrefixForm@string@@SAXPBUpositive@@PANPAPB_W@Z  (Idle)
01:0001CFF8 ?getBinaryPrefix@string@@SAXPANPAPANPAPB_W@Z  (Idle)
01:0001D0E4 ?_toBinaryPrefixForm@string@@SAXPBUpositive@@PANPAPB_W@Z  (Idle)
01:0001D1A4 ?isWhiteSpace@string@@SAX_W@Z  (Idle)
01:0001D1AC ?keywordString@string@@SAXPB_WPAUboolean_struct@_builtIn@@@Z  (Idle)
01:0001DB34 ?keywordString@string@@SAXPAPB_WPAPAUboolean_struct@_builtIn@@@Z  (Idle)
01:0001E26C ?new@outputStream_string@@SAXQAV1@@@Z  (Idle)
01:0001E34C ?setMode@outputStream_string@@SGXQAVstream@@@PAUmode_struct@2@@Z 
01:0001E394 ?flush@outputStream_string@@SAXQAVoutputStream@@@@Z 
01:0001E39C ?resetString@outputStream_string@@SAXQAV1@@@Z 
01:0001E470 ?close@outputStream_string@@SGXQAVstream@@@@Z 
01:0001E488 ?bufferFullCallBack@outputStream_string@@SAXQAV1@@PAPB_WAAUbyteCount@@@Z  (Idle)
01:0001E504 ?get_buffer_from_db@outputStream_string@@SAXQAV1@@IPAPB_WAAUbyteCount@@@Z 
01:0001E56C ?_getStringLength@outputStream_string@@SAXQAV1@@AAUcharCount@core@@@Z 
01:0001E610 ?_getString@outputStream_string@@SAXQAV1@@PAPB_W@Z 
01:0001E740 ?writeBuffersToString@outputStream_string@@SAXQAV1@@PAX@Z 
01:0001E7D0 ?getPosition@outputStream_string@@SGPBUfileSize@fileSystem_api@@QAVstream@@@@Z 
01:0001E870 ?setPosition@outputStream_string@@SGXQAVstream@@@PBUfileSize@fileSystem_api@@@Z 
01:0001E8E0 ?checkOddness@outputStream_string@@SAXPAUmode_struct@stream@@PBUbyteCount@@@Z 
01:0001E948 ?handleSetOffset@outputStream_string@@SAXQAV1@@PBUbyteCount@@@Z 
01:0001E9D0 ?updateCurrentBuffer@outputStream_string@@SAXQAV1@@@Z 
01:0001EB3C ?findBufferForOffset@outputStream_string@@SAXQAV1@@PBUbyteCount@@PAIPAPB_WAAU3@4@Z 
01:0001EBC8 ?handleBiggerOffset@outputStream_string@@SAXQAV1@@PBUbyteCount@@@Z 
01:0001ED80 ?_newBuffer@outputStream_string@@SAXQAV1@@PBUbyteCount@@PAPB_W@Z 
01:0001EE18 ?_getSizeBefore@outputStream_string@@SAXQAV1@@AAUbyteCount@@@Z 
01:0001EEA8 ?bufferNotFound_exception@outputStream_string@@SAXI@Z 
01:0001EEE8 ?checkUsePrevBuff@outputStream_string@@SAXQAV1@@@Z  (Idle)
01:0001EF44 ?getBuffer@outputStream_string@@SGXQAVbufferSupport@@@PAPAXAAUbyteCount@@@Z 
01:0001EFF0 ?getBufferLocked@outputStream_string@@SGXQAVbufferSupport@@@PAPAXAAUbyteCount@@@Z 
01:0001F00C ?addContentsChangedListener@outputStream_string@@SAXQAV1@@X@Z 
01:0001F094 ?removeContentsChangedListener@outputStream_string@@SAXQAV1@@X@Z 
01:0001F148 ?onWrite@outputStream_string@@SAXQAV1@@QAVoutputSupport@@@@Z 
--- From 'Obj\exception.311FF4B8.obj'
01:0001F1C8 ?_getString@outputStream_string@@SAXXPAPB_W@Z 
--- From 'Obj\string.79FC483E.obj'
01:0001F21C ?anonymous$c0$1$getstring/2nf$outputStream_string@1@SAXPAUanonymous$c0$1$getstring/2nf$outputStream_stringc_struct@1@QAVoutputStream@@@@Z 
01:0001F250 ?_getString@outputStream_string@@SAXQAVrTypeLibrary@TypeLibraries@RunTime@VIP@@XPAXPAPB_W@Z 
01:0001F298 ?anonymous$c0$1$getstring/3nf$outputStream_string@1@SAXPAUanonymous$c0$1$getstring/3nf$outputStream_stringc_struct@1@QAVoutputStream@@@@Z 
01:0001F2D4 ?_getString@outputStream_string@@SAXQAVrTypeLibrary@TypeLibraries@RunTime@VIP@@0XPAXPAXPAPB_W@Z  (Idle)
01:0001F328 ?anonymous$c0$1$getstring/4nf$outputStream_string@1@SAXPAUanonymous$c0$1$getstring/4nf$outputStream_stringc_struct@1@QAVoutputStream@@@@Z 
01:0001F36C ?_getString@outputStream_string@@SAXQAVrTypeLibrary@TypeLibraries@RunTime@VIP@@00XPAXPAXPAXPAPB_W@Z  (Idle)
01:0001F3CC ?anonymous$c0$1$getstring/5nf$outputStream_string@1@SAXPAUanonymous$c0$1$getstring/5nf$outputStream_stringc_struct@1@QAVoutputStream@@@@Z 
01:0001F41C ?_getString@outputStream_string@@SAXQAVrTypeLibrary@TypeLibraries@RunTime@VIP@@000XPAXPAXPAXPAXPAPB_W@Z  (Idle)
01:0001F488 ?_new@outputStream_string@@SAXPAPAV1@@@Z 
01:0001F4B0 ?_object_facts_initializer@outputStream_string@@SGXQAV1@@@Z 
01:0001F4D0 ?new@inputStream_string@@SAXQAV1@@PB_W@Z  (Idle)
01:0001F524 ?setMode@inputStream_string@@SGXQAVstream@@@PAUmode_struct@2@@Z 
01:0001F56C ?close@inputStream_string@@SGXQAVstream@@@@Z 
01:0001F584 ?getCRLFconversion@inputStream_string@@SGPAUboolean_struct@_builtIn@@QAVstream@@@@Z 
01:0001F59C ?setCRLFconversion@inputStream_string@@SGXQAVstream@@@PAUboolean_struct@_builtIn@@@Z 
01:0001F5C4 ?getPosition@inputStream_string@@SGPBUfileSize@fileSystem_api@@QAVstream@@@@Z 
01:0001F5E8 ?setPosition@inputStream_string@@SGXQAVstream@@@PBUfileSize@fileSystem_api@@@Z 
01:0001F660 ?checkOddness@inputStream_string@@SAXPAUmode_struct@stream@@PBUbyteCount@core@@@Z 
01:0001F6C8 ?getBuffer@inputStream_string@@SGXQAVbufferSupport@@@PAPAXAAUbyteCount@@@Z 
01:0001F6E4 ?getBufferLocked@inputStream_string@@SGXQAVbufferSupport@@@PAPAXAAUbyteCount@@@Z 
01:0001F700 ?_new@inputStream_string@@SAXPB_WPAPAVinputStream@@@@Z  (Idle)
01:0001F728 ?_object_facts_initializer@inputStream_string@@SGXQAV1@@@Z 
01:0001F95C outputStream_string?_initObject@@@QAGXQAV1@H@Z 
01:0001F994 ?@create_object@outputStream_string@@SGQAV1@@XZ 
01:0001F9B0 outputStream_string?_InternalFinalizer@@@QAGXQAV1@@Z 
01:0001FC4C inputStream_string?_initObject@@@QAGXQAV1@H@Z 
01:0001FC80 ?@create_object@inputStream_string@@SGQAV1@@XZ 
01:0001FC9C inputStream_string?_InternalFinalizer@@@QAGXQAV1@@Z 
--- From 'Obj\filesystem_api.EE6511E1.obj'
01:0001FCB0 ?_toBooleanInt@boolean@@SAXPAUboolean_struct@_builtIn@@AAUbooleanInt@@@Z 
--- From 'Obj\gui_api.9DA8CF80.obj'
01:0001FCD4 ?_fromBooleanInt@boolean@@SAXPBUbooleanInt@@PAPAUboolean_struct@_builtIn@@@Z 
--- From 'Obj\boolean.223D1EF3.obj'
01:0001FCF8 ?_logicalNot@boolean@@SAXPAUboolean_struct@_builtIn@@PAPAU23@@Z 
01:0001FD1C ?_logicalAnd@boolean@@SAXPAUboolean_struct@_builtIn@@0PAPAU23@@Z 
01:0001FD58 ?_logicalOr@boolean@@SAXPAUboolean_struct@_builtIn@@0PAPAU23@@Z 
01:0001FD94 ?_logicalXor@boolean@@SAXPAUboolean_struct@_builtIn@@0PAPAU23@@Z 
01:0001FDBC ?_ifExp@boolean@@SAXQAVrTypeLibrary@TypeLibraries@RunTime@VIP@@PAUboolean_struct@_builtIn@@PAXPAXPAPAX@Z  (Idle)
--- From 'Obj\console.22208CC2.obj'
01:0001FDE0 ?new@inputSupport@@SAXQAV1@@QAVinputBuffer@@@PAUmode_struct@stream@@@Z 
--- From 'Obj\inputstreamsupport.B96A0569.obj'
01:0001FE14 ?setMode@inputSupport@@SGXQAV1@@PAUmode_struct@stream@@@Z 
01:0001FE48 ?getMode@inputSupport@@SGPAUmode_struct@stream@@QAV1@@@Z 
01:0001FE60 ?_readChar@inputSupport@@SAXQAV1@@PA_W@Z 
01:0001FE90 ?ungetChar@inputSupport@@SAXQAV1@@@Z 
01:0001FEB8 ?_readLine@inputSupport@@SAXQAV1@@PAPB_W@Z 
01:0001FEE8 ?_readLineCRLF@inputSupport@@SAXQAV1@@PAPB_W@Z 
01:0001FF18 ?_read@inputSupport@@SAXQAV1@@QAVrTypeLibrary@TypeLibraries@RunTime@VIP@@PAPAX@Z 
01:0001FF40 ?consult@inputSupport@@SAXQAV1@@PBUfactDB@@@Z 
01:0001FF6C ?reconsult@inputSupport@@SAXQAV1@@PBUfactDB@@@Z 
01:0001FF80 ?_readBytes@inputSupport@@SAXQAV1@@PBUbyteCount@@QAPAE@Z 
01:0001FFA0 ?_readString@inputSupport@@SAXQAV1@@PBUcharCount@@PAPB_W@Z 
01:0001FFD4 ?checkMode_text_explicit@inputSupport@@SAXQAV1@@PAUprogramPoint_struct@core@@@Z 
01:0001FFFC ?_convertMode@inputSupport@@SAXPAUmode_struct@stream@@AAUbooleanInt@core@@@Z 
01:00020024 ?endOfStream@inputSupport@@SAXQAV1@@@Z 
01:00020068 ?repeatToEndOfStream@inputSupport@@SAXQAV1@@@Z 
01:000200C4 ?allowNullPointersBufferSupport@inputSupport@@SGPAUboolean_struct@_builtIn@@QAV1@@@Z 
01:000200DC ?_new@inputSupport@@SAXQAVinputBuffer@@@PAUmode_struct@stream@@PAPAV1@@@Z  (Idle)
01:00020108 ?_object_facts_initializer@inputSupport@@SGXQAV1@@@Z 
01:00020120 ?inputBuffer@inputSupport@@SGXQAV1@@QAV0@@@Z 
01:00020130 ?inputBuffer@inputSupport@@SGQAV0@@QAV1@@@Z 
01:0002013C ?allowNullPointers@inputSupport@@SGXQAV1@@PAUboolean_struct@_builtIn@@@Z 
01:0002014C ?allowNullPointers@inputSupport@@SGPAUboolean_struct@_builtIn@@QAV1@@@Z 
--- From 'Obj\console.22208CC2.obj'
01:00020160 inputSupport?_initObject@@@QAGXQAV1@H@Z 
--- From 'Obj\inputstreamsupport.B96A0569.obj'
01:00020180 ?@create_object@inputSupport@@SGQAV1@@XZ 
--- From 'Obj\console.22208CC2.obj'
01:0002019C inputSupport?_InternalFinalizer@@@QAGXQAV1@@Z 
--- From 'Obj\outputstreamsupport.9F52D3AC.obj'
01:000201B0 ?_getFlushProcedure@outputSupport@@SAXQAV1@@PAUboolean_struct@_builtIn@@PAX@Z  (Idle)
01:000201F4 ?doFlush@outputSupport@@SAXQAV1@@0@Z 
01:00020200 ?doNotFlush@outputSupport@@SAXQAV1@@@Z 
--- From 'Obj\console.22208CC2.obj'
01:00020208 ?new@outputSupport@@SAXQAV1@@QAVoutputBuffer@@@PAUmode_struct@stream@@PAUboolean_struct@_builtIn@@@Z 
--- From 'Obj\outputstreamsupport.9F52D3AC.obj'
01:00020244 ?newEx@outputSupport@@SAXQAV1@@QAVoutputBuffer@@@PAUmode_struct@stream@@PAUoptional_struct@core@@X@Z 
01:00020284 ?setMode@outputSupport@@SGXQAVstream@@@PAUmode_struct@2@@Z 
01:000202B8 ?getMode@outputSupport@@SGPAUmode_struct@stream@@QAV3@@@Z 
01:000202D0 ?flush@outputSupport@@SAXQAVoutputStream@@@@Z 
01:000202E8 ?getPosition@outputSupport@@SGPBUfileSize@fileSystem_api@@QAVstream@@@@Z 
01:00020300 ?setPosition@outputSupport@@SGXQAVstream@@@PBUfileSize@fileSystem_api@@@Z 
01:00020318 ?getCRLFconversion@outputSupport@@SGPAUboolean_struct@_builtIn@@QAVstream@@@@Z 
01:00020330 ?setCRLFconversion@outputSupport@@SGXQAVstream@@@PAUboolean_struct@_builtIn@@@Z 
01:00020358 ?close@outputSupport@@SGXQAVstream@@@@Z 
01:00020368 ?write@outputSupport@@SAXQAVoutputStream@@@@Z 
01:000203B8 ?writeQuoted@outputSupport@@SAXQAVoutputStream@@@@Z 
01:00020418 ?writef@outputSupport@@SAXQAVoutputStream@@@PB_W@Z 
01:000204BC ?nl@outputSupport@@SAXQAVoutputStream@@@@Z 
01:000204F0 ?save@outputSupport@@SAXQAVoutputStream@@@PBUfactDB@@@Z 
01:0002054C ?writeBytes@outputSupport@@SAXQAVoutputStream@@@PAXPBUbyteCount@@@Z 
01:00020598 ?checkMode_text_explicit@outputSupport@@SAXQAV1@@PAUprogramPoint_struct@core@@@Z 
01:000205C0 ?allowNullPointersBufferSupport@outputSupport@@SGPAUboolean_struct@_builtIn@@QAV1@@@Z 
01:000205D8 ?_new@outputSupport@@SAXQAVoutputBuffer@@@PAUmode_struct@stream@@PAUboolean_struct@_builtIn@@PAPAV1@@@Z  (Idle)
01:00020608 ?_newEx@outputSupport@@SAXQAVoutputBuffer@@@PAUmode_struct@stream@@PAUoptional_struct@core@@XPAPAV1@@@Z  (Idle)
01:00020638 ?_object_facts_initializer@outputSupport@@SGXQAV1@@@Z 
01:00020650 ?allowNullPointers@outputSupport@@SGXQAVstream@@@PAUboolean_struct@_builtIn@@@Z 
01:00020660 ?allowNullPointers@outputSupport@@SGPAUboolean_struct@_builtIn@@QAVstream@@@@Z 
--- From 'Obj\console.22208CC2.obj'
01:00020674 outputSupport?_initObject@@@QAGXQAV1@H@Z 
--- From 'Obj\outputstreamsupport.9F52D3AC.obj'
01:00020698 ?@create_object@outputSupport@@SGQAV1@@XZ 
--- From 'Obj\console.22208CC2.obj'
01:000206B4 outputSupport?_InternalFinalizer@@@QAGXQAV1@@Z 
--- From 'Obj\exe.0BB6E1A4.obj'
01:000206C0 ?run@mainExe@@SAXX@Z  (Idle)
--- From 'Obj\console.22208CC2.obj'
01:000206D4 ?run@mainExe@@SAXXPAUrunMode_struct@exe_api@@@Z 
--- From 'Obj\exe.0BB6E1A4.obj'
01:000207BC ?_getCommandLine@mainExe@@SAXPAPB_W@Z  (Idle)
01:0002082C ?_parseCommandLine@mainExe@@SAXPB_W_W0PAPB_W@Z 
01:000208F0 ?_getPosition@mainExe@@SAXPB_W_WAAUcharCount@@@Z 
01:00020934 ?getFileName@mainExe@@SAXPAPB_W0@Z  (Idle)
01:00020970 ?_getFileName@mainExe@@SAXPAPB_W@Z 
--- From 'Obj\gui_api.9DA8CF80.obj'
01:0002098C ?_getCurrentHinstance@mainExe@@SAXAAUhModule@@@Z 
--- From 'Obj\exe.0BB6E1A4.obj'
01:000209A0 ?runCom@mainExe@@SAXX@Z  (Idle)
01:000209A8 ?runOle@mainExe@@SAXX@Z  (Idle)
01:000209B0 ?exceptionDumper@mainExe@@SGXX@Z  (Idle)
01:000209BC ?exceptionDumper@mainExe@@SGXXZ  (Idle)
--- From 'Obj\list.90A37E7A.obj'
01:000209D0 ?_anonymous$c0$1$comparelexically/1nf$list@1@SAXPAUanonymous$c0$1$comparelexically/1nf$listc_struct@1@PAU?$__packedList_struct@PAX@@1PAPAUcompareResult_struct@_builtIn@@@Z 
01:00020A28 ?_compareLexically@list@@SAXQAVrTypeLibrary@TypeLibraries@RunTime@VIP@@0XPAX@Z  (Idle)
01:00020A68 ?_compareLexically@list@@SAXQAVrTypeLibrary@TypeLibraries@RunTime@VIP@@0XPAU?$__packedList_struct@PAX@@3PAPAUcompareResult_struct@_builtIn@@@Z 
01:00020B0C ?_length2@list@@SAXQAVrTypeLibrary@TypeLibraries@RunTime@VIP@@PAU?$__packedList_struct@PAX@@PBUpositive@@AAU2@@Z  (Idle)
--- From 'Obj\memory.F1BE59D6.obj'
01:00020B44 ?_length@list@@SAXQAVrTypeLibrary@TypeLibraries@RunTime@VIP@@PAU?$__packedList_struct@PAX@@AAUpositive@@@Z 
--- From 'Obj\list.90A37E7A.obj'
01:00020B5C ?isMember@list@@SAXQAVrTypeLibrary@TypeLibraries@RunTime@VIP@@PAXPAU?$__packedList_struct@PAX@@@Z  (Idle)
01:00020BB0 ?isMemberEq@list@@SAXQAVrTypeLibrary@TypeLibraries@RunTime@VIP@@0XPAXPAU?$__packedList_struct@PAX@@@Z  (Idle)
01:00020C14 ?isMemberBy@list@@SAXQAVrTypeLibrary@TypeLibraries@RunTime@VIP@@0XPAXPAU?$__packedList_struct@PAX@@@Z  (Idle)
01:00020C40 ?anonymous$c0$1$comp2eq/1nf$list@1@SAXPAUanonymous$c0$1$comp2eq/1nf$listc_struct@1@PAXPAX@Z 
01:00020C80 ?_comp2eq@list@@SAXQAVrTypeLibrary@TypeLibraries@RunTime@VIP@@0XPAX@Z 
01:00020CC0 ?_tryGetMemberBy@list@@SAXQAVrTypeLibrary@TypeLibraries@RunTime@VIP@@0XPAXPAU?$__packedList_struct@PAX@@PAPAX@Z  (Idle)
01:00020CE8 ?_tryGetMemberEq@list@@SAXQAVrTypeLibrary@TypeLibraries@RunTime@VIP@@0XPAXPAU?$__packedList_struct@PAX@@PAPAX@Z 
01:00020D50 ?_getMember_nd@list@@SAXQAVrTypeLibrary@TypeLibraries@RunTime@VIP@@PAU?$__packedList_struct@PAX@@PAPAX@Z  (Idle)
01:00020D94 ?_getTupleMember_nd@list@@SAXQAVrTypeLibrary@TypeLibraries@RunTime@VIP@@0PAUtuple_struct@core@@PAU?$__packedList_struct@PAX@@PAU?$__packedList_struct@PAX@@PAPAU23@PAPAXPAPAX@Z  (Idle)
01:00020DC8 ?memberIndexAcc_nd@list@@SAXQAVrTypeLibrary@TypeLibraries@RunTime@VIP@@PAPAXAAUpositive@@PAU?$__packedList_struct@PAX@@PBU2@@Z  (Idle)
01:00020E28 ?memberIndex_nd@list@@SAXQAVrTypeLibrary@TypeLibraries@RunTime@VIP@@PAPAXAAUpositive@@PAU?$__packedList_struct@PAX@@@Z  (Idle)
01:00020E38 ?_zipHead_nd@list@@SAXQAVrTypeLibrary@TypeLibraries@RunTime@VIP@@0PAU?$__packedList_struct@PAX@@2PAPAUtuple_struct@core@@PAPAXPAPAX@Z  (Idle)
01:00020EC4 ?_zip_nd@list@@SAXQAVrTypeLibrary@TypeLibraries@RunTime@VIP@@0PAU?$__packedList_struct@PAX@@2PAPAUtuple_struct@core@@PAPAXPAPAX@Z 
01:00020F74 ?_zip_nd@list@@SAXQAVrTypeLibrary@TypeLibraries@RunTime@VIP@@00PAU?$__packedList_struct@PAX@@33PAPAUtuple_struct@core@@PAPAXPAPAXPAPAX@Z  (Idle)
01:000210AC ?_zip_nd@list@@SAXQAVrTypeLibrary@TypeLibraries@RunTime@VIP@@000PAU?$__packedList_struct@PAX@@444PAPAUtuple_struct@core@@PAPAXPAPAXPAPAXPAPAX@Z  (Idle)
01:000212D8 ?_zip_nd@list@@SAXQAVrTypeLibrary@TypeLibraries@RunTime@VIP@@0000PAU?$__packedList_struct@PAX@@5555PAPAUtuple_struct@core@@PAPAXPAPAXPAPAXPAPAXPAPAX@Z  (Idle)
01:0002157C ?_zip_nd@list@@SAXQAVrTypeLibrary@TypeLibraries@RunTime@VIP@@00000PAU?$__packedList_struct@PAX@@66666PAPAUtuple_struct@core@@PAPAXPAPAXPAPAXPAPAXPAPAXPAPAX@Z  (Idle)
01:00021894 ?_zip_nd@list@@SAXQAVrTypeLibrary@TypeLibraries@RunTime@VIP@@000000PAU?$__packedList_struct@PAX@@777777PAPAUtuple_struct@core@@PAPAXPAPAXPAPAXPAPAXPAPAXPAPAXPAPAX@Z  (Idle)
01:00021C24 ?_zip_nd@list@@SAXQAVrTypeLibrary@TypeLibraries@RunTime@VIP@@0000000PAU?$__packedList_struct@PAX@@8888888PAPAUtuple_struct@core@@PAPAXPAPAXPAPAXPAPAXPAPAXPAPAXPAPAXPAPAX@Z  (Idle)
01:00022048 ?_zip_nd@list@@SAXQAVrTypeLibrary@TypeLibraries@RunTime@VIP@@00000000PAU?$__packedList_struct@PAX@@99999999PAPAUtuple_struct@core@@PAPAXPAPAXPAPAXPAPAXPAPAXPAPAXPAPAXPAPAXPAPAX@Z  (Idle)
01:000224F8 ?_zip_nd@list@@SAXQAVrTypeLibrary@TypeLibraries@RunTime@VIP@@000000000PAU?$__packedList_struct@PAX@@101010101010101010PAPAUtuple_struct@core@@PAPAXPAPAXPAPAXPAPAXPAPAXPAPAXPAPAXPAPAXPAPAXPAPAX@Z  (Idle)
01:00022A38 ?_zip_nd@list@@SAXQAVrTypeLibrary@TypeLibraries@RunTime@VIP@@0000000000PAU?$__packedList_struct@PAX@@11111111111111111111PAPAUtuple_struct@core@@PAPAXPAPAXPAPAXPAPAXPAPAXPAPAXPAPAXPAPAXPAPAXPAPAXPAPAX@Z  (Idle)
01:0002300C ?_zip_nd@list@@SAXQAVrTypeLibrary@TypeLibraries@RunTime@VIP@@00000000000PAU?$__packedList_struct@PAX@@1212121212121212121212PAPAUtuple_struct@core@@PAPAXPAPAXPAPAXPAPAXPAPAXPAPAXPAPAXPAPAXPAPAXPAPAXPAPAXPAPAX@Z  (Idle)
01:00023680 ?_zipWith@list@@SAXQAVrTypeLibrary@TypeLibraries@RunTime@VIP@@00XPAU?$__packedList_struct@PAX@@4PAPAU?$__packedList_struct@PAPAX@@@Z  (Idle)
01:00023714 ?_zip@list@@SAXQAVrTypeLibrary@TypeLibraries@RunTime@VIP@@0PAU?$__packedList_struct@PAX@@2PAPAU?$__packedList_struct@PAPAUtuple_struct@core@@PAPAXPAPAX@@@Z  (Idle)
01:00023780 ?_zip@list@@SAXQAVrTypeLibrary@TypeLibraries@RunTime@VIP@@00PAU?$__packedList_struct@PAX@@33PAPAU?$__packedList_struct@PAPAUtuple_struct@core@@PAPAXPAPAXPAPAX@@@Z  (Idle)
01:000237F4 ?_zip@list@@SAXQAVrTypeLibrary@TypeLibraries@RunTime@VIP@@000PAU?$__packedList_struct@PAX@@444PAPAU?$__packedList_struct@PAPAUtuple_struct@core@@PAPAXPAPAXPAPAXPAPAX@@@Z  (Idle)
01:0002386C ?_zip@list@@SAXQAVrTypeLibrary@TypeLibraries@RunTime@VIP@@0000PAU?$__packedList_struct@PAX@@5555PAPAU?$__packedList_struct@PAPAUtuple_struct@core@@PAPAXPAPAXPAPAXPAPAXPAPAX@@@Z  (Idle)
01:000238EC ?_zip@list@@SAXQAVrTypeLibrary@TypeLibraries@RunTime@VIP@@00000PAU?$__packedList_struct@PAX@@66666PAPAU?$__packedList_struct@PAPAUtuple_struct@core@@PAPAXPAPAXPAPAXPAPAXPAPAXPAPAX@@@Z  (Idle)
01:00023970 ?_zip@list@@SAXQAVrTypeLibrary@TypeLibraries@RunTime@VIP@@000000PAU?$__packedList_struct@PAX@@777777PAPAU?$__packedList_struct@PAPAUtuple_struct@core@@PAPAXPAPAXPAPAXPAPAXPAPAXPAPAXPAPAX@@@Z  (Idle)
01:000239FC ?_zip@list@@SAXQAVrTypeLibrary@TypeLibraries@RunTime@VIP@@0000000PAU?$__packedList_struct@PAX@@8888888PAPAU?$__packedList_struct@PAPAUtuple_struct@core@@PAPAXPAPAXPAPAXPAPAXPAPAXPAPAXPAPAXPAPAX@@@Z  (Idle)
01:00023A8C ?_zip@list@@SAXQAVrTypeLibrary@TypeLibraries@RunTime@VIP@@00000000PAU?$__packedList_struct@PAX@@99999999PAPAU?$__packedList_struct@PAPAUtuple_struct@core@@PAPAXPAPAXPAPAXPAPAXPAPAXPAPAXPAPAXPAPAXPAPAX@@@Z  (Idle)
01:00023B24 ?_zip@list@@SAXQAVrTypeLibrary@TypeLibraries@RunTime@VIP@@000000000PAU?$__packedList_struct@PAX@@101010101010101010PAPAU?$__packedList_struct@PAPAUtuple_struct@core@@PAPAXPAPAXPAPAXPAPAXPAPAXPAPAXPAPAXPAPAXPAPAXPAPAX@@@Z  (Idle)
01:00023BC0 ?_zip@list@@SAXQAVrTypeLibrary@TypeLibraries@RunTime@VIP@@0000000000PAU?$__packedList_struct@PAX@@11111111111111111111PAPAU?$__packedList_struct@PAPAUtuple_struct@core@@PAPAXPAPAXPAPAXPAPAXPAPAXPAPAXPAPAXPAPAXPAPAXPAPAXPAPAX@@@Z  (Idle)
01:00023C64 ?_zip@list@@SAXQAVrTypeLibrary@TypeLibraries@RunTime@VIP@@00000000000PAU?$__packedList_struct@PAX@@1212121212121212121212PAPAU?$__packedList_struct@PAPAUtuple_struct@core@@PAPAXPAPAXPAPAXPAPAXPAPAXPAPAXPAPAXPAPAXPAPAXPAPAXPAPAXPAPAX@@@Z  (Idle)
01:00023D0C ?unzip@list@@SAXQAVrTypeLibrary@TypeLibraries@RunTime@VIP@@0PAU?$__packedList_struct@PAUtuple_struct@core@@PAXPAX@@PAPAU?$__packedList_struct@PAPAX@@3@Z  (Idle)
01:00023D9C ?unzip@list@@SAXQAVrTypeLibrary@TypeLibraries@RunTime@VIP@@00PAU?$__packedList_struct@PAUtuple_struct@core@@PAXPAXPAX@@PAPAU?$__packedList_struct@PAPAX@@44@Z  (Idle)
01:00023E64 ?unzip@list@@SAXQAVrTypeLibrary@TypeLibraries@RunTime@VIP@@000PAU?$__packedList_struct@PAUtuple_struct@core@@PAXPAXPAXPAX@@PAPAU?$__packedList_struct@PAPAX@@555@Z  (Idle)
01:00023F60 ?unzip@list@@SAXQAVrTypeLibrary@TypeLibraries@RunTime@VIP@@0000PAU?$__packedList_struct@PAUtuple_struct@core@@PAXPAXPAXPAXPAX@@PAPAU?$__packedList_struct@PAPAX@@6666@Z  (Idle)
01:00024094 ?unzip@list@@SAXQAVrTypeLibrary@TypeLibraries@RunTime@VIP@@00000PAU?$__packedList_struct@PAUtuple_struct@core@@PAXPAXPAXPAXPAXPAX@@PAPAU?$__packedList_struct@PAPAX@@77777@Z  (Idle)
01:000241FC ?unzip@list@@SAXQAVrTypeLibrary@TypeLibraries@RunTime@VIP@@000000PAU?$__packedList_struct@PAUtuple_struct@core@@PAXPAXPAXPAXPAXPAXPAX@@PAPAU?$__packedList_struct@PAPAX@@888888@Z  (Idle)
01:0002439C ?unzip@list@@SAXQAVrTypeLibrary@TypeLibraries@RunTime@VIP@@0000000PAU?$__packedList_struct@PAUtuple_struct@core@@PAXPAXPAXPAXPAXPAXPAXPAX@@PAPAU?$__packedList_struct@PAPAX@@9999999@Z  (Idle)
01:0002457C ?unzip@list@@SAXQAVrTypeLibrary@TypeLibraries@RunTime@VIP@@00000000PAU?$__packedList_struct@PAUtuple_struct@core@@PAXPAXPAXPAXPAXPAXPAXPAXPAX@@PAPAU?$__packedList_struct@PAPAX@@1010101010101010@Z  (Idle)
01:000247AC ?unzip@list@@SAXQAVrTypeLibrary@TypeLibraries@RunTime@VIP@@000000000PAU?$__packedList_struct@PAUtuple_struct@core@@PAXPAXPAXPAXPAXPAXPAXPAXPAXPAX@@PAPAU?$__packedList_struct@PAPAX@@111111111111111111@Z  (Idle)
01:00024A48 ?unzip@list@@SAXQAVrTypeLibrary@TypeLibraries@RunTime@VIP@@0000000000PAU?$__packedList_struct@PAUtuple_struct@core@@PAXPAXPAXPAXPAXPAXPAXPAXPAXPAXPAX@@PAPAU?$__packedList_struct@PAPAX@@12121212121212121212@Z  (Idle)
01:00024D34 ?unzip@list@@SAXQAVrTypeLibrary@TypeLibraries@RunTime@VIP@@00000000000PAU?$__packedList_struct@PAUtuple_struct@core@@PAXPAXPAXPAXPAXPAXPAXPAXPAXPAXPAXPAX@@PAPAU?$__packedList_struct@PAPAX@@1313131313131313131313@Z  (Idle)
01:00025070 ?_anonymous$c0$1$sortby/3nf$list@1@SAXPAUanonymous$c0$1$sortby/3nf$listc_struct@1@PAXPAXPAPAUcompareResult_struct@_builtIn@@@Z 
01:000250A0 ?_sortBy@list@@SAXQAVrTypeLibrary@TypeLibraries@RunTime@VIP@@XPAU?$__packedList_struct@PAX@@PAUsortOrder_struct@core@@PAPAU?$__packedList_struct@PAPAX@@@Z  (Idle)
01:000250FC ?_sortBy@list@@SAXQAVrTypeLibrary@TypeLibraries@RunTime@VIP@@XPAU?$__packedList_struct@PAX@@PAPAU?$__packedList_struct@PAPAX@@@Z 
01:00025128 ?_anonymous$c0$1$sort/1$list@1@SAXPAUanonymous$c0$1$sort/1$listc_struct@1@PAXPAXPAPAUcompareResult_struct@_builtIn@@@Z 
01:00025140 ?_sort@list@@SAXQAVrTypeLibrary@TypeLibraries@RunTime@VIP@@PAU?$__packedList_struct@PAX@@PAPAU?$__packedList_struct@PAPAX@@@Z  (Idle)
01:0002518C ?_anonymous$c0$1$sort/2nf$list@1@SAXPAUanonymous$c0$1$sort/2nf$listc_struct@1@PAXPAXPAPAUcompareResult_struct@_builtIn@@@Z 
01:000251C0 ?_sort@list@@SAXQAVrTypeLibrary@TypeLibraries@RunTime@VIP@@PAU?$__packedList_struct@PAX@@PAUsortOrder_struct@core@@PAPAU?$__packedList_struct@PAPAX@@@Z  (Idle)
01:00025228 ?_merge@list@@SAXQAVrTypeLibrary@TypeLibraries@RunTime@VIP@@XPAU?$__packedList_struct@PAU?$__packedList_struct@PAX@@@@PAPAU?$__packedList_struct@PAPAX@@@Z 
01:000252A4 ?mergeL@list@@SAXQAVrTypeLibrary@TypeLibraries@RunTime@VIP@@XPAU?$__packedList_struct@PAU?$__packedList_struct@PAX@@@@PAPAU?$__packedList_struct@PAPAU?$__packedList_struct@PAPAX@@@@@Z 
01:0002532C ?_merge2@list@@SAXQAVrTypeLibrary@TypeLibraries@RunTime@VIP@@XPAU?$__packedList_struct@PAX@@2PAPAU?$__packedList_struct@PAPAX@@@Z 
01:00025414 ?_mkRuns@list@@SAXQAVrTypeLibrary@TypeLibraries@RunTime@VIP@@XPAU?$__packedList_struct@PAX@@PAPAU?$__packedList_struct@PAPAU?$__packedList_struct@PAPAX@@@@@Z 
01:00025524 ?takeRun@list@@SAXQAVrTypeLibrary@TypeLibraries@RunTime@VIP@@XPAXPAU?$__packedList_struct@PAX@@PAPAU?$__packedList_struct@PAPAX@@4@Z 
01:00025600 ?takeRunDown@list@@SAXQAVrTypeLibrary@TypeLibraries@RunTime@VIP@@XPAXPAU?$__packedList_struct@PAX@@3PAPAU?$__packedList_struct@PAPAX@@5@Z 
01:000256CC ?_append@list@@SAXQAVrTypeLibrary@TypeLibraries@RunTime@VIP@@PAU?$__packedList_struct@PAX@@1PAPAU?$__packedList_struct@PAPAX@@@Z  (Idle)
01:000256EC ?_append1@list@@SAXQAVrTypeLibrary@TypeLibraries@RunTime@VIP@@PAU?$__packedList_struct@PAX@@1PAPAU?$__packedList_struct@PAPAX@@@Z 
01:0002574C ?_append@list@@SAXQAVrTypeLibrary@TypeLibraries@RunTime@VIP@@PAU?$__packedList_struct@PAX@@11PAPAU?$__packedList_struct@PAPAX@@@Z  (Idle)
01:00025780 ?_append@list@@SAXQAVrTypeLibrary@TypeLibraries@RunTime@VIP@@PAU?$__packedList_struct@PAX@@111PAPAU?$__packedList_struct@PAPAX@@@Z  (Idle)
01:000257B0 ?_append@list@@SAXQAVrTypeLibrary@TypeLibraries@RunTime@VIP@@PAU?$__packedList_struct@PAX@@1111PAPAU?$__packedList_struct@PAPAX@@@Z  (Idle)
01:000257E0 ?_appendList@list@@SAXQAVrTypeLibrary@TypeLibraries@RunTime@VIP@@PAU?$__packedList_struct@PAU?$__packedList_struct@PAX@@@@PAPAU?$__packedList_struct@PAPAX@@@Z  (Idle)
01:00025854 ?_reverse@list@@SAXQAVrTypeLibrary@TypeLibraries@RunTime@VIP@@PAU?$__packedList_struct@PAX@@PAPAU?$__packedList_struct@PAPAX@@@Z 
01:0002587C ?_reverse1@list@@SAXQAVrTypeLibrary@TypeLibraries@RunTime@VIP@@PAU?$__packedList_struct@PAX@@1PAPAU?$__packedList_struct@PAPAX@@@Z 
01:000258CC ?_remove@list@@SAXQAVrTypeLibrary@TypeLibraries@RunTime@VIP@@PAU?$__packedList_struct@PAX@@PAXPAPAU?$__packedList_struct@PAPAX@@@Z  (Idle)
01:0002595C ?_removeBy@list@@SAXQAVrTypeLibrary@TypeLibraries@RunTime@VIP@@0XPAU?$__packedList_struct@PAX@@PAXPAPAU?$__packedList_struct@PAPAX@@@Z  (Idle)
01:00025988 ?_removeEq@list@@SAXQAVrTypeLibrary@TypeLibraries@RunTime@VIP@@0XPAU?$__packedList_struct@PAX@@PAXPAPAU?$__packedList_struct@PAPAX@@@Z 
01:00025A2C ?_removeAll@list@@SAXQAVrTypeLibrary@TypeLibraries@RunTime@VIP@@PAU?$__packedList_struct@PAX@@PAXPAPAU?$__packedList_struct@PAPAX@@@Z  (Idle)
01:00025AC8 ?_removeAllBy@list@@SAXQAVrTypeLibrary@TypeLibraries@RunTime@VIP@@0XPAU?$__packedList_struct@PAX@@PAXPAPAU?$__packedList_struct@PAPAX@@@Z  (Idle)
01:00025AF4 ?_removeAllEq@list@@SAXQAVrTypeLibrary@TypeLibraries@RunTime@VIP@@0XPAU?$__packedList_struct@PAX@@PAXPAPAU?$__packedList_struct@PAPAX@@@Z 
01:00025B98 ?_removeDuplicates@list@@SAXQAVrTypeLibrary@TypeLibraries@RunTime@VIP@@PAU?$__packedList_struct@PAX@@PAPAU?$__packedList_struct@PAPAX@@@Z  (Idle)
01:00025BCC ?_removeDuplicatesBy@list@@SAXQAVrTypeLibrary@TypeLibraries@RunTime@VIP@@XPAU?$__packedList_struct@PAX@@PAPAU?$__packedList_struct@PAPAX@@@Z  (Idle)
01:00025C00 ?_removeDuplicates1@list@@SAXQAVrTypeLibrary@TypeLibraries@RunTime@VIP@@PAU?$__packedList_struct@PAX@@QAVsetM@@@PAXPAPAU?$__packedList_struct@PAPAX@@@Z 
01:00025CD4 ?_removeDuplicatesEq@list@@SAXQAVrTypeLibrary@TypeLibraries@RunTime@VIP@@XPAU?$__packedList_struct@PAX@@PAPAU?$__packedList_struct@PAPAX@@@Z  (Idle)
01:00025D74 ?_anonymous$c0$1$removeConsecutiveDuplicates/1$list@1@SAXPAUanonymous$c0$1$removeConsecutiveDuplicates/1$listc_struct@1@PAXPAXPAPAUcompareResult_struct@_builtIn@@@Z 
01:00025D8C ?_removeConsecutiveDuplicates@list@@SAXQAVrTypeLibrary@TypeLibraries@RunTime@VIP@@PAU?$__packedList_struct@PAX@@PAPAU?$__packedList_struct@PAPAX@@@Z  (Idle)
01:00025DD8 ?_removeConsecutiveDuplicatesEq@list@@SAXQAVrTypeLibrary@TypeLibraries@RunTime@VIP@@XPAU?$__packedList_struct@PAX@@PAPAU?$__packedList_struct@PAPAX@@@Z  (Idle)
01:00025EA4 ?_removeConsecutiveDuplicatesBy@list@@SAXQAVrTypeLibrary@TypeLibraries@RunTime@VIP@@XPAU?$__packedList_struct@PAX@@PAPAU?$__packedList_struct@PAPAX@@@Z 
01:00025F6C ?_difference@list@@SAXQAVrTypeLibrary@TypeLibraries@RunTime@VIP@@PAU?$__packedList_struct@PAX@@1PAPAU?$__packedList_struct@PAPAX@@@Z  (Idle)
01:00026010 ?_differenceBy@list@@SAXQAVrTypeLibrary@TypeLibraries@RunTime@VIP@@0XPAU?$__packedList_struct@PAX@@3PAPAU?$__packedList_struct@PAPAX@@@Z  (Idle)
01:0002603C ?_differenceEq@list@@SAXQAVrTypeLibrary@TypeLibraries@RunTime@VIP@@0XPAU?$__packedList_struct@PAX@@3PAPAU?$__packedList_struct@PAPAX@@@Z 
01:000260E8 ?_nDuplicates@list@@SAXQAVrTypeLibrary@TypeLibraries@RunTime@VIP@@PAXPBUpositive@@PAPAU?$__packedList_struct@PAPAX@@@Z  (Idle)
01:00026138 ?_tryGetIndex@list@@SAXQAVrTypeLibrary@TypeLibraries@RunTime@VIP@@PAXPAU?$__packedList_struct@PAX@@AAUpositive@@@Z  (Idle)
01:00026154 ?_tryGetIndex@list@@SAXQAVrTypeLibrary@TypeLibraries@RunTime@VIP@@PAXPAU?$__packedList_struct@PAX@@PBUpositive@@AAU2@@Z 
01:000261BC ?_tryGetIndexBy@list@@SAXQAVrTypeLibrary@TypeLibraries@RunTime@VIP@@0XPAXPAU?$__packedList_struct@PAX@@AAUpositive@@@Z  (Idle)
01:0002620C ?_tryGetIndexEq@list@@SAXQAVrTypeLibrary@TypeLibraries@RunTime@VIP@@0XPAXPAU?$__packedList_struct@PAX@@AAUpositive@@@Z  (Idle)
01:00026228 ?_tryGetIndexEq@list@@SAXQAVrTypeLibrary@TypeLibraries@RunTime@VIP@@0XPAXPAU?$__packedList_struct@PAX@@PBUpositive@@AAU2@@Z 
01:000262A4 ?_tryGetLast@list@@SAXQAVrTypeLibrary@TypeLibraries@RunTime@VIP@@PAU?$__packedList_struct@PAX@@PAPAX@Z  (Idle)
01:000262E4 ?_nth@list@@SAXQAVrTypeLibrary@TypeLibraries@RunTime@VIP@@PBUpositive@@PAU?$__packedList_struct@PAX@@PAPAX@Z 
01:00026354 ?_tryGetNth@list@@SAXQAVrTypeLibrary@TypeLibraries@RunTime@VIP@@PBUpositive@@PAU?$__packedList_struct@PAX@@PAPAX@Z 
01:000263B8 ?setNth@list@@SAXQAVrTypeLibrary@TypeLibraries@RunTime@VIP@@PBUpositive@@PAU?$__packedList_struct@PAX@@PAXPAPAU?$__packedList_struct@PAPAX@@@Z  (Idle)
01:000264AC ?split@list@@SAXQAVrTypeLibrary@TypeLibraries@RunTime@VIP@@PBUpositive@@PAU?$__packedList_struct@PAX@@PAPAU?$__packedList_struct@PAPAX@@3@Z  (Idle)
01:00026554 ?_take@list@@SAXQAVrTypeLibrary@TypeLibraries@RunTime@VIP@@PBUpositive@@PAU?$__packedList_struct@PAX@@PAPAU?$__packedList_struct@PAPAX@@@Z  (Idle)
01:00026578 ?_drop@list@@SAXQAVrTypeLibrary@TypeLibraries@RunTime@VIP@@PBUpositive@@PAU?$__packedList_struct@PAX@@PAPAU?$__packedList_struct@PAPAX@@@Z  (Idle)
01:000265D0 ?splitAfter@list@@SAXQAVrTypeLibrary@TypeLibraries@RunTime@VIP@@XPAU?$__packedList_struct@PAX@@PAPAU?$__packedList_struct@PAPAX@@3@Z  (Idle)
01:000266A0 ?_anonymous$c0$1$splitafter/2nf$list@1@SAXPAUanonymous$c0$1$splitafter/2nf$listc_struct@1@PAU?$__packedList_struct@PAX@@PAPAUtuple_struct@core@@PAPAU?$__packedList_struct@PAPAX@@PAPAU?$__packedList_struct@PAPAX@@@Z 
01:00026720 ?_splitAfter@list@@SAXQAVrTypeLibrary@TypeLibraries@RunTime@VIP@@XPAU?$__packedList_struct@PAX@@PAPAU?$__packedList_struct@PAPAU?$__packedList_struct@PAPAX@@@@@Z  (Idle)
01:000267AC ?_maximumBy@list@@SAXQAVrTypeLibrary@TypeLibraries@RunTime@VIP@@XPAU?$__packedList_struct@PAX@@PAPAX@Z  (Idle)
01:000267F8 ?_anonymous$c0$1$maximum/1$list@1@SAXPAUanonymous$c0$1$maximum/1$listc_struct@1@PAXPAXPAPAUcompareResult_struct@_builtIn@@@Z 
01:00026810 ?_maximum@list@@SAXQAVrTypeLibrary@TypeLibraries@RunTime@VIP@@PAU?$__packedList_struct@PAX@@PAPAX@Z  (Idle)
01:0002685C ?_anonymous$c0$1$minimumby/2nf$list@1@SAXPAUanonymous$c0$1$minimumby/2nf$listc_struct@1@PAXPAXPAPAUcompareResult_struct@_builtIn@@@Z 
01:0002688C ?_minimumBy@list@@SAXQAVrTypeLibrary@TypeLibraries@RunTime@VIP@@XPAU?$__packedList_struct@PAX@@PAPAX@Z  (Idle)
01:00026910 ?_anonymous$c0$1$minimum/1$list@1@SAXPAUanonymous$c0$1$minimum/1$listc_struct@1@PAXPAXPAPAUcompareResult_struct@_builtIn@@@Z 
01:00026928 ?_minimum@list@@SAXQAVrTypeLibrary@TypeLibraries@RunTime@VIP@@PAU?$__packedList_struct@PAX@@PAPAX@Z  (Idle)
01:00026974 ?_extremum@list@@SAXQAVrTypeLibrary@TypeLibraries@RunTime@VIP@@XPAXPAU?$__packedList_struct@PAX@@PAPAX@Z 
01:000269E8 ?_union@list@@SAXQAVrTypeLibrary@TypeLibraries@RunTime@VIP@@PAU?$__packedList_struct@PAX@@1PAPAU?$__packedList_struct@PAPAX@@@Z  (Idle)
01:00026A8C ?_unionBy@list@@SAXQAVrTypeLibrary@TypeLibraries@RunTime@VIP@@XPAU?$__packedList_struct@PAX@@2PAPAU?$__packedList_struct@PAPAX@@@Z  (Idle)
01:00026AB8 ?_unionEq@list@@SAXQAVrTypeLibrary@TypeLibraries@RunTime@VIP@@XPAU?$__packedList_struct@PAX@@2PAPAU?$__packedList_struct@PAPAX@@@Z 
01:00026B60 ?_intersection@list@@SAXQAVrTypeLibrary@TypeLibraries@RunTime@VIP@@PAU?$__packedList_struct@PAX@@1PAPAU?$__packedList_struct@PAPAX@@@Z  (Idle)
01:00026BFC ?_intersectionBy@list@@SAXQAVrTypeLibrary@TypeLibraries@RunTime@VIP@@XPAU?$__packedList_struct@PAX@@2PAPAU?$__packedList_struct@PAPAX@@@Z  (Idle)
01:00026C28 ?_intersectionEq@list@@SAXQAVrTypeLibrary@TypeLibraries@RunTime@VIP@@XPAU?$__packedList_struct@PAX@@2PAPAU?$__packedList_struct@PAPAX@@@Z 
01:00026CCC ?_filter@list@@SAXQAVrTypeLibrary@TypeLibraries@RunTime@VIP@@PAU?$__packedList_struct@PAX@@XPAPAU?$__packedList_struct@PAPAX@@@Z  (Idle)
01:00026D44 ?filter@list@@SAXQAVrTypeLibrary@TypeLibraries@RunTime@VIP@@PAU?$__packedList_struct@PAX@@XPAPAU?$__packedList_struct@PAPAX@@3@Z  (Idle)
01:00026E20 ?_decompose@list@@SAXQAVrTypeLibrary@TypeLibraries@RunTime@VIP@@0PAU?$__packedList_struct@PAX@@XPAPAU?$__packedList_struct@PAPAUtuple_struct@core@@PAPAXPAPAU?$__packedList_struct@PAPAX@@@@@Z  (Idle)
01:00026FB8 ?_interleave@list@@SAXQAVrTypeLibrary@TypeLibraries@RunTime@VIP@@PAU?$__packedList_struct@PAX@@PAXPAPAU?$__packedList_struct@PAPAX@@@Z  (Idle)
01:00027054 ?anonymous$c0$1$groupbyeq/2nf$list@1@SAXPAUanonymous$c0$1$groupbyeq/2nf$listc_struct@1@PAX@Z 
01:00027088 ?_groupByEq@list@@SAXQAVrTypeLibrary@TypeLibraries@RunTime@VIP@@XPAU?$__packedList_struct@PAX@@PAPAU?$__packedList_struct@PAPAU?$__packedList_struct@PAPAX@@@@@Z  (Idle)
01:00027144 ?_map@list@@SAXQAVrTypeLibrary@TypeLibraries@RunTime@VIP@@0PAU?$__packedList_struct@PAX@@XPAPAU?$__packedList_struct@PAPAX@@@Z  (Idle)
01:000271C0 ?_filteredMap@list@@SAXQAVrTypeLibrary@TypeLibraries@RunTime@VIP@@0PAU?$__packedList_struct@PAX@@XPAPAU?$__packedList_struct@PAPAX@@@Z  (Idle)
01:00027244 ?_fold@list@@SAXQAVrTypeLibrary@TypeLibraries@RunTime@VIP@@0PAU?$__packedList_struct@PAX@@XPAXPAPAX@Z  (Idle)
01:000272A8 ?_foldl@list@@SAXQAVrTypeLibrary@TypeLibraries@RunTime@VIP@@0PAU?$__packedList_struct@PAX@@XPAXPAPAX@Z  (Idle)
01:00027304 ?_anonymous$c0$1$foldr/3nf$list@1@SAXPAUanonymous$c0$1$foldr/3nf$listc_struct@1@PAXPAXPAPAX@Z 
01:00027334 ?_foldr@list@@SAXQAVrTypeLibrary@TypeLibraries@RunTime@VIP@@0PAU?$__packedList_struct@PAX@@XPAXPAPAX@Z  (Idle)
01:00027394 ?_unfold@list@@SAXQAVrTypeLibrary@TypeLibraries@RunTime@VIP@@0PAXXPAPAU?$__packedList_struct@PAPAX@@@Z 
01:00027414 ?forAll@list@@SAXQAVrTypeLibrary@TypeLibraries@RunTime@VIP@@PAU?$__packedList_struct@PAX@@X@Z  (Idle)
01:00027458 ?_exists@list@@SAXQAVrTypeLibrary@TypeLibraries@RunTime@VIP@@PAU?$__packedList_struct@PAX@@XPAPAX@Z  (Idle)
01:000274C0 ?exists@list@@SAXQAVrTypeLibrary@TypeLibraries@RunTime@VIP@@PAU?$__packedList_struct@PAX@@X@Z  (Idle)
01:000274E4 ?all@list@@SAXQAVrTypeLibrary@TypeLibraries@RunTime@VIP@@PAU?$__packedList_struct@PAX@@X@Z  (Idle)
01:00027528 ?exceptionDifferentLength_explicit@list@@SAXPAUprogramPoint_struct@core@@@Z 
01:0002755C ?exceptionEmpty_explicit@list@@SAXPAUprogramPoint_struct@core@@@Z 
--- From 'Obj\std.01821D38.obj'
01:00027590 ?_fromTo@std@@SAXHHPAH@Z 
01:000275D8 ?_downTo@std@@SAXHHPAH@Z 
01:00027620 ?_between@std@@SAXHHPAH@Z  (Idle)
01:000276C0 ?_fromToInStep@std@@SAXHHPBUpositive@@PAH@Z  (Idle)
01:0002770C ?_downToInStep@std@@SAXHHPBUpositive@@PAH@Z  (Idle)
01:00027758 ?_betweenInStep@std@@SAXHHPBUpositive@@PAH@Z  (Idle)
01:0002780C ?_countFrom@std@@SAXHPAH@Z  (Idle)
01:0002783C ?_countFromInStep@std@@SAXHPBUpositive@@PAH@Z  (Idle)
01:0002786C ?_countDownFrom@std@@SAXHPAH@Z  (Idle)
01:0002789C ?_countDownFromInStep@std@@SAXHPBUpositive@@PAH@Z  (Idle)
01:000278CC ?repeat@std@@SAXXZ  (Idle)
--- From 'Obj\exception.311FF4B8.obj'
01:000278E8 ?_cIterate@std@@SAXHPAH@Z 
--- From 'Obj\gui_api.9DA8CF80.obj'
01:00027918 ?_fromTo@std@@SAXPA_J0PAPA_J@Z 
--- From 'Obj\std.01821D38.obj'
01:000279F4 ?_fromTo@std@@SAXPBUintegerNative@@0AAU2@@Z  (Idle)
01:00027A40 ?_fromTo@std@@SAXIIPAI@Z  (Idle)
01:00027A88 ?_fromTo@std@@SAXPA_K0PAPA_K@Z  (Idle)
01:00027B64 ?_fromTo@std@@SAXPBUunsignedNative@@0AAU2@@Z  (Idle)
01:00027BB0 ?_downTo@std@@SAXPA_J0PAPA_J@Z  (Idle)
01:00027C8C ?_downTo@std@@SAXPBUintegerNative@@0AAU2@@Z  (Idle)
01:00027CD8 ?_downTo@std@@SAXIIPAI@Z  (Idle)
01:00027D20 ?_downTo@std@@SAXPA_K0PAPA_K@Z  (Idle)
01:00027DFC ?_downTo@std@@SAXPBUunsignedNative@@0AAU2@@Z  (Idle)
01:00027E48 ?_between@std@@SAXIIPAI@Z  (Idle)
01:00027EE8 ?_cIterate@std@@SAXHPAI@Z  (Idle)
01:00027F18 ?_cIterate@std@@SAXIPAI@Z  (Idle)
01:00027F48 ?_cIterate@std@@SAXIPAH@Z  (Idle)
--- From 'Obj\string8.31126D59.obj'
01:00027F80 ?isValidCodePage@string8@@SAXPBUcodePage@@@Z  (Idle)
01:00027F9C ?isValidToRead@string8@@SAXPAD@Z  (Idle)
01:00027FBC ?_fromUtf8@string8@@SAXPADPAPB_W@Z  (Idle)
01:00027FD8 ?_fromUtf8@string8@@SAXPADPBUbyteCountOptional@@PAPB_W@Z  (Idle)
01:00028000 ?_toUtf8@string8@@SAXPB_WPAPAD@Z  (Idle)
--- From 'Obj\multithread_api.53CE32BC.obj'
01:0002801C ?_mapFromString@string8@@SAXPB_WPAPAD@Z 
--- From 'Obj\string8.31126D59.obj'
01:00028038 ?_mapFromString@string8@@SAXPB_WPBUcodePage@@PAPAD@Z 
01:000280A4 ?_mapToString@string8@@SAXPADPAPB_W@Z  (Idle)
01:000280C0 ?_mapToString@string8@@SAXPADPBUcodePage@@PAPB_W@Z 
01:000280DC ?_mapToString@string8@@SAXPADPBUcodePage@@PBUbyteCountOptional@@PAPB_W@Z 
01:000281D4 ?_mapFromChar@string8@@SAX_WAAUchar8@@@Z  (Idle)
01:000281F0 ?_mapFromChar@string8@@SAX_WPBUcodePage@@AAUchar8@@@Z 
01:00028268 ?_mapToChar@string8@@SAXPBUchar8@@PA_W@Z  (Idle)
01:00028284 ?_mapToChar@string8@@SAXPBUchar8@@PBUcodePage@@PA_W@Z 
--- From 'Obj\memory_api.066136AF.obj'
01:00028300 ?_createCopy@string8@@SAXPADPAPAD@Z 
--- From 'Obj\string8.31126D59.obj'
01:00028360 ?_createCopy@string8@@SAXPADPBUbyteCount@@PAPAD@Z 
01:000283B0 ?_tryFrontChar@string8@@SAXPADPAPADPA_W@Z  (Idle)
01:000283CC ?_tryFrontChar@string8@@SAXPADPAPADPBUcodePage@@PA_W@Z 
01:000284A0 ?_tryFrontChar_utf8@string8@@SAXPADPAPADPA_W@Z 
01:000284FC ?_tryFrontChar_utf82@string8@@SAXPBUchar8@@PADPAPADPAI@Z 
01:000287DC ?_tryGetIntermediateUtf8@string8@@SAXIPADPAPADPAI@Z 
01:00028884 ?_tryGetFirstByte@string8@@SAXPADPAPADAAUchar8@@@Z 
--- From 'Obj\console.22208CC2.obj'
01:000288B0 ?toWideChar@string8_api@@SAXPBUcodePage@@PADPBUbyteCountOptional@@PB_WPBUcharCount@@@Z 
01:00028904 ?_lenWideChar@string8_api@@SAXPBUcodePage@@PADPBUbyteCountOptional@@AAUcharCount@@@Z 
01:00028974 ?toMultiByte@string8_api@@SAXPBUcodePage@@PB_WPBUcharCountOptional@@PADPBUbyteCount@@@Z 
01:000289CC ?_lenMultiByte@string8_api@@SAXPBUcodePage@@PB_WPBUcharCountOptional@@AAUbyteCount@@@Z 
--- From 'Obj\string8_api.876B157C.obj'
01:00028A40 ?_charNextExA@string8_api@@SAXPBUcodePage@@PADPAPAD@Z 
--- From 'Obj\math.8BE40BD3.obj'
01:00028A60 ?raise_asinOutOfBounds_explicit@math_exception@@SAXPAUprogramPoint_struct@core@@PAN@Z  (Idle)
01:00028AD4 ?raise_acoshOutOfBounds_explicit@math_exception@@SAXPAUprogramPoint_struct@core@@PAN@Z  (Idle)
01:00028B48 ?raise_atanhOutOfBounds_explicit@math_exception@@SAXPAUprogramPoint_struct@core@@PAN@Z  (Idle)
01:00028BBC ?raise_acotanhOutOfBounds_explicit@math_exception@@SAXPAUprogramPoint_struct@core@@PAN@Z  (Idle)
01:00028C30 ?raise_cotanhInfinityResult_explicit@math_exception@@SAXPAUprogramPoint_struct@core@@PAN@Z  (Idle)
01:00028CA4 ?isNaN@math@@SAXPAN@Z  (Idle)
01:00028D28 ?check_asin_nearBounds@math@@SAXPAPBUinCircle@@@Z  (Idle)
01:00028D6C ?_getBoundsForValue@math@@SAXPAPBUinCircle@@PAPAN@Z  (Idle)
01:00028DA0 ?_arcsin@math@@SAXPAPBUinCircle@@PAPAN@Z  (Idle)
01:00028F0C ?_sinh@math@@SAXPANPAPAN@Z  (Idle)
01:00028F88 ?_prepareResultForBigValue@math@@SAXPANPAAAUuReal@@@Z  (Idle)
01:0002910C ?_arcsinh@math@@SAXPANPAPAN@Z  (Idle)
01:00029160 ?_arccos@math@@SAXPAPBUinCircle@@PAPAN@Z  (Idle)
01:000291AC ?_cosh@math@@SAXPANPAAAUuReal@@@Z  (Idle)
01:00029240 ?_prepareResultForValue@math@@SAXPAPBUuReal@@PAAAU2@@Z  (Idle)
01:00029374 ?_arccosh@math@@SAXPAPBUuReal@@PAPAN@Z  (Idle)
01:000293EC ?_get_tanhBoundsForValue@math@@SAXPANPAAAUinCircle@@@Z  (Idle)
01:00029420 ?_tanh@math@@SAXPANPAAAUinCircle@@@Z  (Idle)
01:000294E4 ?_arctanh@math@@SAXPAPBUinCircle@@PAPAN@Z  (Idle)
01:000295A8 ?_cotanh@math@@SAXPANPAPAN@Z  (Idle)
01:00029674 ?_arccotanh@math@@SAXPANPAPAN@Z  (Idle)
01:0002973C ?_sqr@math@@SAXPANPAAAUuReal@@@Z 
01:00029778 ?_round@math@@SAXPANPAH@Z  (Idle)
--- From 'Obj\time_api.3BF8D4E6.obj'
01:000297B4 ?_roundToUnsigned@math@@SAXPANPAI@Z 
--- From 'Obj\math.8BE40BD3.obj'
01:000297F0 ?_roundToInteger64@math@@SAXPANPAPA_J@Z  (Idle)
01:0002984C ?_roundToUnsigned64@math@@SAXPANPAPA_K@Z  (Idle)
01:000298A8 ?_trunc@math@@SAXPANPAH@Z  (Idle)
01:000298E4 ?_fraction@math@@SAXPANPAPAN@Z  (Idle)
01:00029934 ?_ceil@math@@SAXPANPAH@Z 
01:0002996C ?_ceilToReal@math@@SAXPANPAPAN@Z 
01:00029A1C ?_floor@math@@SAXPANPAH@Z  (Idle)
01:00029A68 ?_floorToReal@math@@SAXPANPAPAN@Z  (Idle)
01:00029AD0 ?_max@math@@SAXHHPAH@Z 
01:00029AF4 ?_max@math@@SAXHHHPAH@Z  (Idle)
01:00029B1C ?_min@math@@SAXHHPAH@Z 
01:00029B40 ?_min@math@@SAXHHHPAH@Z  (Idle)
01:00029B68 ?_restrict@math@@SAXHHHPAH@Z  (Idle)
01:00029B9C ?divides_dt@math@@SAXHH@Z  (Idle)
01:00029BD8 ?_max@math@@SAXIIPAI@Z 
01:00029BFC ?_max@math@@SAXPANPANPAPAN@Z  (Idle)
01:00029C34 ?_max@math@@SAXMMPAM@Z  (Idle)
01:00029C9C ?_max@math@@SAXPA_J0PAPA_J@Z  (Idle)
01:00029CEC ?_max@math@@SAXPBUintegerNative@@0AAU2@@Z  (Idle)
01:00029D10 ?_max@math@@SAXPA_K0PAPA_K@Z  (Idle)
01:00029D60 ?_max@math@@SAXPBUunsignedNative@@0AAU2@@Z  (Idle)
01:00029D84 ?_max@math@@SAXIIIPAI@Z  (Idle)
01:00029DB4 ?_max@math@@SAXPANPANPANPAPAN@Z  (Idle)
01:00029DE4 ?_max@math@@SAXMMMPAM@Z  (Idle)
01:00029E20 ?_min@math@@SAXIIPAI@Z 
01:00029E44 ?_min@math@@SAXPANPANPAPAN@Z  (Idle)
01:00029E7C ?_min@math@@SAXMMPAM@Z  (Idle)
01:00029EE4 ?_min@math@@SAXPA_J0PAPA_J@Z  (Idle)
01:00029F34 ?_min@math@@SAXPBUintegerNative@@0AAU2@@Z  (Idle)
01:00029F58 ?_min@math@@SAXPA_K0PAPA_K@Z  (Idle)
01:00029FA8 ?_min@math@@SAXPBUunsignedNative@@0AAU2@@Z  (Idle)
01:00029FCC ?_min@math@@SAXIIIPAI@Z  (Idle)
01:00029FFC ?_min@math@@SAXPANPANPANPAPAN@Z  (Idle)
01:0002A02C ?_min@math@@SAXMMMPAM@Z  (Idle)
01:0002A068 ?_restrict@math@@SAXIIIPAI@Z  (Idle)
01:0002A09C ?_restrict@math@@SAXPANPANPANPAPAN@Z  (Idle)
01:0002A0D0 ?divides_dt@math@@SAXII@Z  (Idle)
--- From 'Obj\registry.750278BD.obj'
01:0002A0F0 ?raise_wrongValue_explicit@registry_exception@@SAXPAUprogramPoint_struct@core@@PBUhResult@@PAUrootKey_struct@registry@@PB_W3@Z  (Idle)
01:0002A284 ?raise_noPath_explicit@registry_exception@@SAXPAUprogramPoint_struct@core@@PBUhResult@@PAUrootKey_struct@registry@@PB_W3@Z  (Idle)
01:0002A418 ?raise_cannotCreateKey_explicit@registry_exception@@SAXPAUprogramPoint_struct@core@@PBUhResult@@PAUrootKey_struct@registry@@PB_W@Z  (Idle)
01:0002A558 ?_getSystemDescription@registry_exception@@SAXPBUhResult@@PAPB_W@Z 
01:0002A594 ?_getRootKeyName@registry_exception@@SAXPAUrootKey_struct@registry@@PAPB_W@Z 
01:0002A600 ?createKey@registry@@SAXPAUrootKey_struct@1@PB_W@Z  (Idle)
01:0002A614 ?createKey@registry@@SAXPAUrootKey_struct@1@PB_WPAUregistryView_struct@1@@Z 
01:0002A670 ?existKey@registry@@SAXPAUrootKey_struct@1@PB_W@Z  (Idle)
01:0002A684 ?existKey@registry@@SAXPAUrootKey_struct@1@PB_WPAUregistryView_struct@1@@Z 
01:0002A6D8 ?deleteKey@registry@@SAXPAUrootKey_struct@1@PB_W@Z  (Idle)
01:0002A6EC ?deleteKey@registry@@SAXPAUrootKey_struct@1@PB_WPAUregistryView_struct@1@@Z 
01:0002A7E4 ?is32on32@registry@@SAXI@Z 
01:0002A838 ?deleteKeyList@registry@@SAXPAUrootKey_struct@1@PB_WPAU?$__packedList_struct@Ustring@@@@PAUregistryView_struct@1@@Z 
01:0002A894 ?setValue@registry@@SAXPAUrootKey_struct@1@PB_WPAU?$__packedList_struct@UnamedValue@@@@@Z  (Idle)
01:0002A8A8 ?setValue@registry@@SAXPAUrootKey_struct@1@PB_WPAU?$__packedList_struct@UnamedValue@@@@PAUregistryView_struct@1@@Z 
01:0002A9CC ?setValuesToKey@registry@@SAXPBUhkey@@PAU?$__packedList_struct@UnamedValue@@@@@Z 
--- From 'Obj\runtime_api.AAF7A8D0.obj'
01:0002AA18 ?_getValue@registry@@SAXPAUrootKey_struct@1@PB_W1PAPAUvalue_struct@core@@@Z 
--- From 'Obj\registry.750278BD.obj'
01:0002AA34 ?_getValue@registry@@SAXPAUrootKey_struct@1@PB_W1PAUregistryView_struct@1@PAPAUvalue_struct@core@@@Z 
--- From 'Obj\runtime_api.AAF7A8D0.obj'
01:0002AAE8 ?_tryGetValue@registry@@SAXPAUrootKey_struct@1@PB_W1PAPAUvalue_struct@core@@@Z 
--- From 'Obj\registry.750278BD.obj'
01:0002AB04 ?_tryGetValue@registry@@SAXPAUrootKey_struct@1@PB_W1PAUregistryView_struct@1@PAPAUvalue_struct@core@@@Z 
01:0002AC08 ?removeValue@registry@@SAXPAUrootKey_struct@1@PB_WPAU?$__packedList_struct@Ustring@@@@@Z  (Idle)
01:0002AC1C ?removeValue@registry@@SAXPAUrootKey_struct@1@PB_WPAU?$__packedList_struct@Ustring@@@@PAUregistryView_struct@1@@Z 
01:0002ACCC ?removeListValues@registry@@SAXPBUhkey@@PAU?$__packedList_struct@Ustring@@@@@Z 
01:0002AD08 ?_getSubkeys@registry@@SAXPAUrootKey_struct@1@PB_WPAPAU?$__packedList_struct@Ustring@@@@@Z  (Idle)
01:0002AD24 ?_getSubkeys@registry@@SAXPAUrootKey_struct@1@PB_WPAUregistryView_struct@1@PAPAU?$__packedList_struct@Ustring@@@@@Z 
01:0002ADD4 ?_getAllValues@registry@@SAXPAUrootKey_struct@1@PB_WPAPAU?$__packedList_struct@UnamedValue@@@@@Z  (Idle)
01:0002ADF0 ?_getAllValues@registry@@SAXPAUrootKey_struct@1@PB_WPAUregistryView_struct@1@PAPAU?$__packedList_struct@UnamedValue@@@@@Z 
01:0002AEA0 ?_keyWrite@registry@@SAXPAUregistryView_struct@1@AAUregsAM@@@Z 
01:0002AEBC ?_keyRead@registry@@SAXPAUregistryView_struct@1@AAUregsAM@@@Z 
01:0002AED8 ?_applyView@registry@@SAXPAUregistryView_struct@1@PBUregsAM@@AAU4@@Z 
01:0002AF30 ?_getRootKeyHandle@registry@@SAXPAUrootKey_struct@1@AAUhkey@@@Z 
--- From 'Obj\runtime_api.AAF7A8D0.obj'
01:0002AFA0 ?getVersionEx@systemInformation_api@@SAXPAIPAIPAIPAIPAPB_WAAUunsigned16@@55AAUunsigned8@@@Z 
--- From 'Obj\systeminformation_api.720D241D.obj'
01:0002B0E0 ?_allocWithSize@systemInformation_api@@SAXPBUbyteCount@@PAPAX@Z 
--- From 'Obj\runtime_api.AAF7A8D0.obj'
01:0002B114 ?systemInfo@systemInformation_api@@SGPAUsystem_Info_struct@systemInformation_native@@XZ 
01:0002B148 ?nativeSystemInfo@systemInformation_api@@SGPAUsystem_Info_struct@systemInformation_native@@XZ 
--- From 'Obj\systeminformation_api.720D241D.obj'
01:0002B17C ?isWindows64@systemInformation_api@@SAXXZ  (Idle)
01:0002B1A0 ?_getUserName@systemInformation_api@@SAXPAPB_W@Z  (Idle)
01:0002B22C ?_getUserNameEx@systemInformation_api@@SAXPBUuserNameFormat@systemInformation_native@@PAPB_W@Z  (Idle)
01:0002B2B0 ?_getComputerName@systemInformation_api@@SAXPAPB_W@Z  (Idle)
01:0002B33C ?_getComputerNameEx@systemInformation_api@@SAXPBUcomputerNameFormat@systemInformation_native@@PAPB_W@Z  (Idle)
01:0002B3C0 ?systemParametersInfo@systemInformation_api@@SAXIIPAXI@Z  (Idle)
01:0002B404 ?systemParametersInfo_outInt@systemInformation_api@@SAXIIPAHI@Z  (Idle)
01:0002B448 ?_getNonclientMetrics@systemInformation_api@@SAXPAPAUnonclientMetrics_struct@systemInformation_native@@@Z  (Idle)
01:0002B498 ?_getNonclientMetricsXP@systemInformation_api@@SAXPAPAUnonclientMetricsXP_struct@systemInformation_native@@@Z  (Idle)
01:0002B4E8 ?majorOSversion@systemInformation_api@@SGIXZ 
--- From 'Obj\namedvalue.A8464E91.obj'
01:0002B550 ?_tryMapLookUp@namedValue@@SAXPAU?$__packedList_struct@U1@@@PB_WPAPAUvalue_struct@core@@@Z 
01:0002B5AC ?_tryMapLookUpIgnoreCase@namedValue@@SAXPAU?$__packedList_struct@U1@@@PB_WPAPAUvalue_struct@core@@@Z  (Idle)
01:0002B610 ?_mapLookUp@namedValue@@SAXPAU?$__packedList_struct@U1@@@PB_WPAPAUvalue_struct@core@@@Z  (Idle)
01:0002B718 ?_mapLookUp@namedValue@@SAXPAU?$__packedList_struct@U1@@@PB_WPAUvalue_struct@core@@PAPAU34@@Z  (Idle)
01:0002B754 ?_lookUp_nd@namedValue@@SAXPAU?$__packedList_struct@U1@@@PB_WPAPAUvalue_struct@core@@@Z  (Idle)
01:0002B7C0 ?_getNamed_integer@namedValue@@SAXPAU?$__packedList_struct@U1@@@PB_WPAH@Z  (Idle)
01:0002B848 ?_tryGetNamed_integer@namedValue@@SAXPAU?$__packedList_struct@U1@@@PB_WPAH@Z  (Idle)
01:0002B8A4 ?_getNamedDefault_integer@namedValue@@SAXPAU?$__packedList_struct@U1@@@PB_WHPAH@Z  (Idle)
01:0002B91C ?_getNamed_unsigned@namedValue@@SAXPAU?$__packedList_struct@U1@@@PB_WPAI@Z  (Idle)
01:0002B9A4 ?_tryGetNamed_unsigned@namedValue@@SAXPAU?$__packedList_struct@U1@@@PB_WPAI@Z  (Idle)
01:0002BA00 ?_getNamedDefault_unsigned@namedValue@@SAXPAU?$__packedList_struct@U1@@@PB_WIPAI@Z  (Idle)
01:0002BA78 ?_getNamed_real@namedValue@@SAXPAU?$__packedList_struct@U1@@@PB_WPAPAN@Z  (Idle)
01:0002BB00 ?_tryGetNamed_real@namedValue@@SAXPAU?$__packedList_struct@U1@@@PB_WPAPAN@Z  (Idle)
01:0002BB5C ?_getNamedDefault_real@namedValue@@SAXPAU?$__packedList_struct@U1@@@PB_WPANPAPAN@Z  (Idle)
01:0002BBD4 ?_getNamed_char@namedValue@@SAXPAU?$__packedList_struct@U1@@@PB_WPA_W@Z  (Idle)
01:0002BC5C ?_tryGetNamed_char@namedValue@@SAXPAU?$__packedList_struct@U1@@@PB_WPA_W@Z  (Idle)
01:0002BCB8 ?_getNamedDefault_char@namedValue@@SAXPAU?$__packedList_struct@U1@@@PB_W_WPA_W@Z  (Idle)
01:0002BD34 ?_getNamed_string@namedValue@@SAXPAU?$__packedList_struct@U1@@@PB_WPAPB_W@Z  (Idle)
--- From 'Obj\exception.311FF4B8.obj'
01:0002BDBC ?_tryGetNamed_string@namedValue@@SAXPAU?$__packedList_struct@U1@@@PB_WPAPB_W@Z 
--- From 'Obj\namedvalue.A8464E91.obj'
01:0002BE18 ?_getNamedDefault_string@namedValue@@SAXPAU?$__packedList_struct@U1@@@PB_W1PAPB_W@Z  (Idle)
01:0002BE90 ?_getNamed_boolean@namedValue@@SAXPAU?$__packedList_struct@U1@@@PB_WPAPAUboolean_struct@_builtIn@@@Z  (Idle)
01:0002BF04 ?_tryGetNamed_boolean@namedValue@@SAXPAU?$__packedList_struct@U1@@@PB_WPAPAUboolean_struct@_builtIn@@@Z  (Idle)
01:0002BF4C ?_getNamedDefault_boolean@namedValue@@SAXPAU?$__packedList_struct@U1@@@PB_WPAUboolean_struct@_builtIn@@PAPAU34@@Z  (Idle)
01:0002BFB4 ?_getNamed_binary@namedValue@@SAXPAU?$__packedList_struct@U1@@@PB_WQAPAE@Z  (Idle)
01:0002C050 ?_tryGetNamed_binary@namedValue@@SAXPAU?$__packedList_struct@U1@@@PB_WQAPAE@Z  (Idle)
01:0002C0AC ?_getNamedDefault_binary@namedValue@@SAXPAU?$__packedList_struct@U1@@@PB_WQAEQAPAE@Z  (Idle)
01:0002C134 ?_getNamed_object@namedValue@@SAXPAU?$__packedList_struct@U1@@@PB_WPAPAV3@@@Z  (Idle)
01:0002C1D0 ?_tryGetNamed_object@namedValue@@SAXPAU?$__packedList_struct@U1@@@PB_WPAPAV3@@@Z  (Idle)
01:0002C22C ?_getNamedDefault_object@namedValue@@SAXPAU?$__packedList_struct@U1@@@PB_WQAV3@@PAPAV3@@@Z  (Idle)
01:0002C2B4 ?_getNamed_pointer@namedValue@@SAXPAU?$__packedList_struct@U1@@@PB_WPAPAX@Z  (Idle)
01:0002C350 ?_tryGetNamed_pointer@namedValue@@SAXPAU?$__packedList_struct@U1@@@PB_WPAPAX@Z  (Idle)
01:0002C3AC ?_getNamedDefault_pointer@namedValue@@SAXPAU?$__packedList_struct@U1@@@PB_WPAXPAPAX@Z  (Idle)
01:0002C424 ?_getNamed_handle@namedValue@@SAXPAU?$__packedList_struct@U1@@@PB_WAAU3@@Z  (Idle)
01:0002C4C0 ?_tryGetNamed_handle@namedValue@@SAXPAU?$__packedList_struct@U1@@@PB_WAAU3@@Z  (Idle)
01:0002C51C ?_getNamedDefault_handle@namedValue@@SAXPAU?$__packedList_struct@U1@@@PB_WPBU3@AAU3@@Z  (Idle)
01:0002C594 ?_getNamed_gmtTimeValue@namedValue@@SAXPAU?$__packedList_struct@U1@@@PB_WPAAAU3@@Z  (Idle)
01:0002C61C ?_tryGetNamed_gmtTimeValue@namedValue@@SAXPAU?$__packedList_struct@U1@@@PB_WPAAAU3@@Z  (Idle)
01:0002C678 ?_getNamedDefault_gmtTimeValue@namedValue@@SAXPAU?$__packedList_struct@U1@@@PB_WPAPBU3@PAAAU3@@Z  (Idle)
01:0002C6F0 ?_getNamed_integer64@namedValue@@SAXPAU?$__packedList_struct@U1@@@PB_WPAPA_J@Z  (Idle)
01:0002C780 ?_tryGetNamed_integer64@namedValue@@SAXPAU?$__packedList_struct@U1@@@PB_WPAPA_J@Z  (Idle)
01:0002C7CC ?_getNamedDefault_integer64@namedValue@@SAXPAU?$__packedList_struct@U1@@@PB_WPA_JPAPA_J@Z  (Idle)
01:0002C844 ?_getNamed_unsigned64@namedValue@@SAXPAU?$__packedList_struct@U1@@@PB_WPAPA_K@Z  (Idle)
01:0002C8D4 ?_tryGetNamed_unsigned64@namedValue@@SAXPAU?$__packedList_struct@U1@@@PB_WPAPA_K@Z  (Idle)
01:0002C920 ?_getNamedDefault_unsigned64@namedValue@@SAXPAU?$__packedList_struct@U1@@@PB_WPA_KPAPA_K@Z  (Idle)
--- From 'Obj\reflection.87B371B1.obj'
01:0002C9A0 ?_getTypeLib@reflection_native@reflection@pfc@@SAXQAVrTypeLibrary@TypeLibraries@RunTime@VIP@@PAXPAPAVtypeLibrary@@32@@Z  (Idle)
01:0002C9A8 $$$reflection$GetTypeLib 
--- From 'Obj\exception.311FF4B8.obj'
01:0002C9B8 ?_getScopeDescriptor@reflection_native@reflection@pfc@@SAXPBUhScopeDescriptor@core@@PAPAVscopeDescriptor@@32@@Z 
--- From 'Obj\reflection.87B371B1.obj'
01:0002C9C8 ?_getPresenter@reflection_native@reflection@pfc@@SAXQAVrTypeLibrary@TypeLibraries@RunTime@VIP@@PAXPAX@Z  (Idle)
01:0002C9F4 ?isPointerNull@reflection_native@reflection@pfc@@SAXQAVrTypeLibrary@TypeLibraries@RunTime@VIP@@PAX@Z  (Idle)
01:0002CA1C ?isPointerNullEx@reflection_native@reflection@pfc@@SAXQAVtypeLibrary@@32@PBUboxedTerm@3@@Z 
01:0002CA44 ?_getFunctorName@reflection@1pfc@@SAXQAVrTypeLibrary@TypeLibraries@RunTime@VIP@@PAXPAPB_W@Z  (Idle)
01:0002CB10 ?_offsetof@reflection@1pfc@@SAXQAVrTypeLibrary@TypeLibraries@RunTime@VIP@@PAXIAAUbyteCount@core@@@Z  (Idle)
01:0002CD14 ?_getFunctorValue@reflection@1pfc@@SAXQAVrTypeLibrary@TypeLibraries@RunTime@VIP@@PAXAAUfunctor@@@Z  (Idle)
01:0002CD38 ?_pointerOfField@reflection@1pfc@@SAXQAVrTypeLibrary@TypeLibraries@RunTime@VIP@@PAXIPAPAX@Z  (Idle)
01:0002CD64 ?_deParameterizeName@reflection@1pfc@@SAXPB_WPAPB_W@Z  (Idle)
01:0002CDAC ?isEmbeddedClassName@reflection@1pfc@@SAXPB_W@Z  (Idle)
--- From 'Obj\memory_api.066136AF.obj'
01:0002CE40 ?globalMemoryStatusEx@memory_api@@SAXPAIPAPA_K111111@Z  (Idle)
01:0002CFD4 ?_alloc_memoryStatusEx@memory_api@@SAXIPAPAUmemoryStatusEx_struct@memory_native@@@Z 
01:0002D048 ?_globalAlloc@memory_api@@SAXIPBUbyteCount@@AAUhGlobal@windowsAPI@@@Z  (Idle)
01:0002D090 ?globalFree@memory_api@@SAXPBUhGlobal@windowsAPI@@@Z  (Idle)
01:0002D0CC ?_globalLock@memory_api@@SAXPBUhGlobal@windowsAPI@@PAPAX@Z  (Idle)
01:0002D10C ?globalUnlock@memory_api@@SAXPBUhGlobal@windowsAPI@@@Z  (Idle)
01:0002D128 ?_globalUnlock@memory_api@@SAXPBUhGlobal@windowsAPI@@PAPAUboolean_struct@_builtIn@@@Z 
01:0002D174 ?_globalSize@memory_api@@SAXPBUhGlobal@windowsAPI@@AAUbyteCount@@@Z  (Idle)
01:0002D1CC ?_mkGlobal_string@memory_api@@SAXPB_WAAUhGlobal@windowsAPI@@@Z  (Idle)
01:0002D224 ?_getGlobal_string@memory_api@@SAXPBUhGlobal@windowsAPI@@PAPB_W@Z  (Idle)
01:0002D318 ?_mkGlobal_string8@memory_api@@SAXPADAAUhGlobal@windowsAPI@@@Z  (Idle)
01:0002D360 ?_anonymous$c0$1$getglobal_string8/1nf$memory_api@1@SAXPAXPBUbyteCount@@PAPAD@Z 
01:0002D374 ?_getGlobal_string8@memory_api@@SAXPBUhGlobal@windowsAPI@@PAPAD@Z  (Idle)
01:0002D3AC ?_mkGlobal_binary@memory_api@@SAXQAEAAUhGlobal@windowsAPI@@@Z  (Idle)
01:0002D3E8 ?_getGlobal_binary@memory_api@@SAXPBUhGlobal@windowsAPI@@QAPAE@Z  (Idle)
01:0002D420 ?_mkGlobal_pointer@memory_api@@SAXPAXPBUbyteCount@@AAUhGlobal@windowsAPI@@@Z 
01:0002D4C0 ?_getGlobal_pointer@memory_api@@SAXQAVrTypeLibrary@TypeLibraries@RunTime@VIP@@PBUhGlobal@windowsAPI@@XPAPAX@Z 
01:0002D568 ?localFree@memory_api@@SAXQAVrTypeLibrary@TypeLibraries@RunTime@VIP@@PAX@Z 
--- From 'Obj\runtime_api.AAF7A8D0.obj'
01:0002D5B0 ?_determineOSV5@runtime_api@@SAXIIPBUunsigned16@@PAPB_W@Z  (Idle)
01:0002D858 ?_determineOSV4@runtime_api@@SAXIIPBUunsigned16@@PAPB_W@Z  (Idle)
01:0002D8F0 ?_determineOSV6@runtime_api@@SAXIIPBUunsigned16@@PAPB_W@Z  (Idle)
01:0002DB48 ?_determineMajorVersion@runtime_api@@SAXIIIPBUunsigned16@@PAPB_W@Z  (Idle)
01:0002DC14 ?_determineOSFamily@runtime_api@@SAXIPAPB_W@Z  (Idle)
--- From 'Obj\exception.311FF4B8.obj'
01:0002DDD4 ?getOSVersion@runtime_api@@SAXQAVoutputStream@@@@Z 
--- From 'Obj\runtime_api.AAF7A8D0.obj'
01:0002DEF0 ?_getSysInfoStr@runtime_api@@SAXPAPB_W@Z 
01:0002DF80 ?_getNativeSysInfo@runtime_api@@SAXPAPB_W@Z 
01:0002E010 ?_getRegInfo@runtime_api@@SAXPAPB_W@Z 
01:0002E0B4 ?_getRegInfoK@runtime_api@@SAXPB_WPAPB_W@Z 
01:0002E120 ?_printString@runtime_api@@SAXPAUvalue_struct@core@@PAPB_W@Z 
--- From 'Obj\event.5E0B1F78.obj'
01:0002E1A0 ?new@event7@@SAXQAV1@@PAXPAXPAXPAXPAXPAXPAXPAXQAVrTypeLibrary@TypeLibraries@RunTime@VIP@@1111111PAX@Z  (Idle)
01:0002E1B4 ?addListener@event7@@SAXQAV1@@PAXPAXPAXPAXPAXPAXPAXPAXX@Z 
01:0002E1DC ?anonymous$o0$1$addlistener/2np$event7{@Source,@Type1,@Type2,@Type3,@Type4,@Type5,@Type6,@Type7}@event7@@SAXPAUanonymous$o0$1$addlistener/2np$event7{@Source,@Type1,@Type2,@Type3,@Type4,@Type5,@Type6,@Type7}c_struct@1/8@PAX@Z 
01:0002E200 ?addListener@event7@@SAXQAV1@@PAXPAXPAXPAXPAXPAXPAXPAXQAVrTypeLibrary@TypeLibraries@RunTime@VIP@@XQAVevent0@@@PAX@Z 
01:0002E290 ?removeListener@event7@@SAXQAV1@@PAXPAXPAXPAXPAXPAXPAXPAXX@Z 
01:0002E330 ?removeAllListeners@event7@@SAXQAV1@@PAXPAXPAXPAXPAXPAXPAXPAX@Z 
01:0002E36C ?hasListeners@event7@@SAXQAV1@@PAXPAXPAXPAXPAXPAXPAXPAX@Z 
01:0002E38C ?notify@event7@@SAXQAV1@@PAXPAXPAXPAXPAXPAXPAXPAXPAXPAXPAXPAXPAXPAXPAX@Z 
01:0002E41C ?_new@event7@@SAXQAVrTypeLibrary@TypeLibraries@RunTime@VIP@@0000000PAXPAPAV1@@PAPAXPAPAXPAPAXPAPAXPAPAXPAPAXPAPAXPAPAX@Z  (Idle)
01:0002E474 ?_object_typelib_initializer@event7@@SGXQAV1@@PAXPAXPAXPAXPAXPAXPAXPAXQAVrTypeLibrary@TypeLibraries@RunTime@VIP@@1111111@Z 
01:0002E4B4 ?anonymous$o1$1$addlistener/2np$event7{@Source,@Type1,@Type2,@Type3,@Type4,@Type5,@Type6,@Type7}@event7@@SAXPAUanonymous$o1$1$addlistener/2np$event7{@Source,@Type1,@Type2,@Type3,@Type4,@Type5,@Type6,@Type7}c_struct@1/8@PAXPAX@Z 
01:0002E4D8 ?addListener@event7@@SAXQAV1@@PAXPAXPAXPAXPAXPAXPAXPAXQAVrTypeLibrary@TypeLibraries@RunTime@VIP@@1XQAVevent1@@@PAXPAX@Z 
01:0002E570 ?anonymous$o2$1$addlistener/2np$event7{@Source,@Type1,@Type2,@Type3,@Type4,@Type5,@Type6,@Type7}@event7@@SAXPAUanonymous$o2$1$addlistener/2np$event7{@Source,@Type1,@Type2,@Type3,@Type4,@Type5,@Type6,@Type7}c_struct@1/8@PAXPAXPAX@Z 
01:0002E594 ?addListener@event7@@SAXQAV1@@PAXPAXPAXPAXPAXPAXPAXPAXQAVrTypeLibrary@TypeLibraries@RunTime@VIP@@11XQAVevent2@@@PAXPAXPAX@Z 
01:0002E634 ?anonymous$o3$1$addlistener/2np$event7{@Source,@Type1,@Type2,@Type3,@Type4,@Type5,@Type6,@Type7}@event7@@SAXPAUanonymous$o3$1$addlistener/2np$event7{@Source,@Type1,@Type2,@Type3,@Type4,@Type5,@Type6,@Type7}c_struct@1/8@PAXPAXPAXPAX@Z 
01:0002E658 ?addListener@event7@@SAXQAV1@@PAXPAXPAXPAXPAXPAXPAXPAXQAVrTypeLibrary@TypeLibraries@RunTime@VIP@@111XQAVevent3@@@PAXPAXPAXPAX@Z 
01:0002E6FC ?anonymous$o4$1$addlistener/2np$event7{@Source,@Type1,@Type2,@Type3,@Type4,@Type5,@Type6,@Type7}@event7@@SAXPAUanonymous$o4$1$addlistener/2np$event7{@Source,@Type1,@Type2,@Type3,@Type4,@Type5,@Type6,@Type7}c_struct@1/8@PAXPAXPAXPAXPAX@Z 
01:0002E720 ?addListener@event7@@SAXQAV1@@PAXPAXPAXPAXPAXPAXPAXPAXQAVrTypeLibrary@TypeLibraries@RunTime@VIP@@1111XQAVevent4@@@PAXPAXPAXPAXPAX@Z 
01:0002E7CC ?anonymous$o5$1$addlistener/2np$event7{@Source,@Type1,@Type2,@Type3,@Type4,@Type5,@Type6,@Type7}@event7@@SAXPAUanonymous$o5$1$addlistener/2np$event7{@Source,@Type1,@Type2,@Type3,@Type4,@Type5,@Type6,@Type7}c_struct@1/8@PAXPAXPAXPAXPAXPAX@Z 
01:0002E7F0 ?addListener@event7@@SAXQAV1@@PAXPAXPAXPAXPAXPAXPAXPAXQAVrTypeLibrary@TypeLibraries@RunTime@VIP@@11111XQAVevent5@@@PAXPAXPAXPAXPAXPAX@Z 
01:0002E8A0 ?anonymous$o6$1$addlistener/2np$event7{@Source,@Type1,@Type2,@Type3,@Type4,@Type5,@Type6,@Type7}@event7@@SAXPAUanonymous$o6$1$addlistener/2np$event7{@Source,@Type1,@Type2,@Type3,@Type4,@Type5,@Type6,@Type7}c_struct@1/8@PAXPAXPAXPAXPAXPAXPAX@Z 
01:0002E8C4 ?addListener@event7@@SAXQAV1@@PAXPAXPAXPAXPAXPAXPAXPAXQAVrTypeLibrary@TypeLibraries@RunTime@VIP@@111111XQAVevent6@@@PAXPAXPAXPAXPAXPAXPAX@Z 
01:0002E97C ?anonymous$o7$1$addlistener/2np$event7{@Source,@Type1,@Type2,@Type3,@Type4,@Type5,@Type6,@Type7}@event7@@SAXPAUanonymous$o7$1$addlistener/2np$event7{@Source,@Type1,@Type2,@Type3,@Type4,@Type5,@Type6,@Type7}c_struct@1/8@PAXPAXPAXPAXPAXPAXPAXPAX@Z 
01:0002E9A0 ?addListener@event7@@SAXQAV1@@PAXPAXPAXPAXPAXPAXPAXPAXQAVrTypeLibrary@TypeLibraries@RunTime@VIP@@1111111X0@Z 
01:0002EA5C ?new@event6@@SAXQAV1@@PAXPAXPAXPAXPAXPAXPAXQAVrTypeLibrary@TypeLibraries@RunTime@VIP@@111111PAX@Z  (Idle)
01:0002EA70 ?addListener@event6@@SAXQAV1@@PAXPAXPAXPAXPAXPAXPAXX@Z 
01:0002EA98 ?anonymous$o0$1$addlistener/2np$event6{@Source,@Type1,@Type2,@Type3,@Type4,@Type5,@Type6}@event6@@SAXPAUanonymous$o0$1$addlistener/2np$event6{@Source,@Type1,@Type2,@Type3,@Type4,@Type5,@Type6}c_struct@1/7@PAX@Z 
01:0002EABC ?addListener@event6@@SAXQAV1@@PAXPAXPAXPAXPAXPAXPAXQAVrTypeLibrary@TypeLibraries@RunTime@VIP@@XQAVevent0@@@PAX@Z 
01:0002EB48 ?removeListener@event6@@SAXQAV1@@PAXPAXPAXPAXPAXPAXPAXX@Z 
01:0002EBE8 ?removeAllListeners@event6@@SAXQAV1@@PAXPAXPAXPAXPAXPAXPAX@Z 
01:0002EC24 ?hasListeners@event6@@SAXQAV1@@PAXPAXPAXPAXPAXPAXPAX@Z 
01:0002EC44 ?notify@event6@@SAXQAV1@@PAXPAXPAXPAXPAXPAXPAXPAXPAXPAXPAXPAXPAX@Z 
01:0002ECD0 ?_new@event6@@SAXQAVrTypeLibrary@TypeLibraries@RunTime@VIP@@000000PAXPAPAV1@@PAPAXPAPAXPAPAXPAPAXPAPAXPAPAXPAPAX@Z  (Idle)
01:0002ED24 ?_object_typelib_initializer@event6@@SGXQAV1@@PAXPAXPAXPAXPAXPAXPAXQAVrTypeLibrary@TypeLibraries@RunTime@VIP@@111111@Z 
01:0002ED60 ?anonymous$o1$1$addlistener/2np$event6{@Source,@Type1,@Type2,@Type3,@Type4,@Type5,@Type6}@event6@@SAXPAUanonymous$o1$1$addlistener/2np$event6{@Source,@Type1,@Type2,@Type3,@Type4,@Type5,@Type6}c_struct@1/7@PAXPAX@Z 
01:0002ED84 ?addListener@event6@@SAXQAV1@@PAXPAXPAXPAXPAXPAXPAXQAVrTypeLibrary@TypeLibraries@RunTime@VIP@@1XQAVevent1@@@PAXPAX@Z 
01:0002EE18 ?anonymous$o2$1$addlistener/2np$event6{@Source,@Type1,@Type2,@Type3,@Type4,@Type5,@Type6}@event6@@SAXPAUanonymous$o2$1$addlistener/2np$event6{@Source,@Type1,@Type2,@Type3,@Type4,@Type5,@Type6}c_struct@1/7@PAXPAXPAX@Z 
01:0002EE3C ?addListener@event6@@SAXQAV1@@PAXPAXPAXPAXPAXPAXPAXQAVrTypeLibrary@TypeLibraries@RunTime@VIP@@11XQAVevent2@@@PAXPAXPAX@Z 
01:0002EED4 ?anonymous$o3$1$addlistener/2np$event6{@Source,@Type1,@Type2,@Type3,@Type4,@Type5,@Type6}@event6@@SAXPAUanonymous$o3$1$addlistener/2np$event6{@Source,@Type1,@Type2,@Type3,@Type4,@Type5,@Type6}c_struct@1/7@PAXPAXPAXPAX@Z 
01:0002EEF8 ?addListener@event6@@SAXQAV1@@PAXPAXPAXPAXPAXPAXPAXQAVrTypeLibrary@TypeLibraries@RunTime@VIP@@111XQAVevent3@@@PAXPAXPAXPAX@Z 
01:0002EF98 ?anonymous$o4$1$addlistener/2np$event6{@Source,@Type1,@Type2,@Type3,@Type4,@Type5,@Type6}@event6@@SAXPAUanonymous$o4$1$addlistener/2np$event6{@Source,@Type1,@Type2,@Type3,@Type4,@Type5,@Type6}c_struct@1/7@PAXPAXPAXPAXPAX@Z 
01:0002EFBC ?addListener@event6@@SAXQAV1@@PAXPAXPAXPAXPAXPAXPAXQAVrTypeLibrary@TypeLibraries@RunTime@VIP@@1111XQAVevent4@@@PAXPAXPAXPAXPAX@Z 
01:0002F060 ?anonymous$o5$1$addlistener/2np$event6{@Source,@Type1,@Type2,@Type3,@Type4,@Type5,@Type6}@event6@@SAXPAUanonymous$o5$1$addlistener/2np$event6{@Source,@Type1,@Type2,@Type3,@Type4,@Type5,@Type6}c_struct@1/7@PAXPAXPAXPAXPAXPAX@Z 
01:0002F084 ?addListener@event6@@SAXQAV1@@PAXPAXPAXPAXPAXPAXPAXQAVrTypeLibrary@TypeLibraries@RunTime@VIP@@11111XQAVevent5@@@PAXPAXPAXPAXPAXPAX@Z 
01:0002F130 ?anonymous$o6$1$addlistener/2np$event6{@Source,@Type1,@Type2,@Type3,@Type4,@Type5,@Type6}@event6@@SAXPAUanonymous$o6$1$addlistener/2np$event6{@Source,@Type1,@Type2,@Type3,@Type4,@Type5,@Type6}c_struct@1/7@PAXPAXPAXPAXPAXPAXPAX@Z 
01:0002F154 ?addListener@event6@@SAXQAV1@@PAXPAXPAXPAXPAXPAXPAXQAVrTypeLibrary@TypeLibraries@RunTime@VIP@@111111X0@Z 
01:0002F204 ?new@event5@@SAXQAV1@@PAXPAXPAXPAXPAXPAXQAVrTypeLibrary@TypeLibraries@RunTime@VIP@@11111PAX@Z  (Idle)
01:0002F218 ?addListener@event5@@SAXQAV1@@PAXPAXPAXPAXPAXPAXX@Z 
01:0002F240 ?anonymous$o0$1$addlistener/2np$event5{@Source,@Type1,@Type2,@Type3,@Type4,@Type5}@event5@@SAXPAUanonymous$o0$1$addlistener/2np$event5{@Source,@Type1,@Type2,@Type3,@Type4,@Type5}c_struct@1/6@PAX@Z 
01:0002F264 ?addListener@event5@@SAXQAV1@@PAXPAXPAXPAXPAXPAXQAVrTypeLibrary@TypeLibraries@RunTime@VIP@@XQAVevent0@@@PAX@Z 
01:0002F2E8 ?removeListener@event5@@SAXQAV1@@PAXPAXPAXPAXPAXPAXX@Z 
01:0002F388 ?removeAllListeners@event5@@SAXQAV1@@PAXPAXPAXPAXPAXPAX@Z 
01:0002F3C4 ?hasListeners@event5@@SAXQAV1@@PAXPAXPAXPAXPAXPAX@Z 
01:0002F3E4 ?notify@event5@@SAXQAV1@@PAXPAXPAXPAXPAXPAXPAXPAXPAXPAXPAX@Z 
01:0002F46C ?_new@event5@@SAXQAVrTypeLibrary@TypeLibraries@RunTime@VIP@@00000PAXPAPAV1@@PAPAXPAPAXPAPAXPAPAXPAPAXPAPAX@Z  (Idle)
01:0002F4B8 ?_object_typelib_initializer@event5@@SGXQAV1@@PAXPAXPAXPAXPAXPAXQAVrTypeLibrary@TypeLibraries@RunTime@VIP@@11111@Z 
01:0002F4EC ?anonymous$o1$1$addlistener/2np$event5{@Source,@Type1,@Type2,@Type3,@Type4,@Type5}@event5@@SAXPAUanonymous$o1$1$addlistener/2np$event5{@Source,@Type1,@Type2,@Type3,@Type4,@Type5}c_struct@1/6@PAXPAX@Z 
01:0002F510 ?addListener@event5@@SAXQAV1@@PAXPAXPAXPAXPAXPAXQAVrTypeLibrary@TypeLibraries@RunTime@VIP@@1XQAVevent1@@@PAXPAX@Z 
01:0002F59C ?anonymous$o2$1$addlistener/2np$event5{@Source,@Type1,@Type2,@Type3,@Type4,@Type5}@event5@@SAXPAUanonymous$o2$1$addlistener/2np$event5{@Source,@Type1,@Type2,@Type3,@Type4,@Type5}c_struct@1/6@PAXPAXPAX@Z 
01:0002F5C0 ?addListener@event5@@SAXQAV1@@PAXPAXPAXPAXPAXPAXQAVrTypeLibrary@TypeLibraries@RunTime@VIP@@11XQAVevent2@@@PAXPAXPAX@Z 
01:0002F654 ?anonymous$o3$1$addlistener/2np$event5{@Source,@Type1,@Type2,@Type3,@Type4,@Type5}@event5@@SAXPAUanonymous$o3$1$addlistener/2np$event5{@Source,@Type1,@Type2,@Type3,@Type4,@Type5}c_struct@1/6@PAXPAXPAXPAX@Z 
01:0002F678 ?addListener@event5@@SAXQAV1@@PAXPAXPAXPAXPAXPAXQAVrTypeLibrary@TypeLibraries@RunTime@VIP@@111XQAVevent3@@@PAXPAXPAXPAX@Z 
01:0002F710 ?anonymous$o4$1$addlistener/2np$event5{@Source,@Type1,@Type2,@Type3,@Type4,@Type5}@event5@@SAXPAUanonymous$o4$1$addlistener/2np$event5{@Source,@Type1,@Type2,@Type3,@Type4,@Type5}c_struct@1/6@PAXPAXPAXPAXPAX@Z 
01:0002F734 ?addListener@event5@@SAXQAV1@@PAXPAXPAXPAXPAXPAXQAVrTypeLibrary@TypeLibraries@RunTime@VIP@@1111XQAVevent4@@@PAXPAXPAXPAXPAX@Z 
01:0002F7D4 ?anonymous$o5$1$addlistener/2np$event5{@Source,@Type1,@Type2,@Type3,@Type4,@Type5}@event5@@SAXPAUanonymous$o5$1$addlistener/2np$event5{@Source,@Type1,@Type2,@Type3,@Type4,@Type5}c_struct@1/6@PAXPAXPAXPAXPAXPAX@Z 
01:0002F7F8 ?addListener@event5@@SAXQAV1@@PAXPAXPAXPAXPAXPAXQAVrTypeLibrary@TypeLibraries@RunTime@VIP@@11111X0@Z 
01:0002F89C ?new@event4@@SAXQAV1@@PAXPAXPAXPAXPAXQAVrTypeLibrary@TypeLibraries@RunTime@VIP@@1111PAX@Z  (Idle)
01:0002F8B0 ?addListener@event4@@SAXQAV1@@PAXPAXPAXPAXPAXX@Z 
01:0002F8D8 ?anonymous$o0$1$addlistener/2np$event4{@Source,@Type1,@Type2,@Type3,@Type4}@event4@@SAXPAUanonymous$o0$1$addlistener/2np$event4{@Source,@Type1,@Type2,@Type3,@Type4}c_struct@1/5@PAX@Z 
01:0002F8FC ?addListener@event4@@SAXQAV1@@PAXPAXPAXPAXPAXQAVrTypeLibrary@TypeLibraries@RunTime@VIP@@XQAVevent0@@@PAX@Z 
01:0002F97C ?removeListener@event4@@SAXQAV1@@PAXPAXPAXPAXPAXX@Z 
01:0002FA1C ?removeAllListeners@event4@@SAXQAV1@@PAXPAXPAXPAXPAX@Z 
01:0002FA58 ?hasListeners@event4@@SAXQAV1@@PAXPAXPAXPAXPAX@Z 
01:0002FA78 ?notify@event4@@SAXQAV1@@PAXPAXPAXPAXPAXPAXPAXPAXPAX@Z 
01:0002FAFC ?_new@event4@@SAXQAVrTypeLibrary@TypeLibraries@RunTime@VIP@@0000PAXPAPAV1@@PAPAXPAPAXPAPAXPAPAXPAPAX@Z  (Idle)
01:0002FB44 ?_object_typelib_initializer@event4@@SGXQAV1@@PAXPAXPAXPAXPAXQAVrTypeLibrary@TypeLibraries@RunTime@VIP@@1111@Z 
01:0002FB74 ?anonymous$o1$1$addlistener/2np$event4{@Source,@Type1,@Type2,@Type3,@Type4}@event4@@SAXPAUanonymous$o1$1$addlistener/2np$event4{@Source,@Type1,@Type2,@Type3,@Type4}c_struct@1/5@PAXPAX@Z 
01:0002FB98 ?addListener@event4@@SAXQAV1@@PAXPAXPAXPAXPAXQAVrTypeLibrary@TypeLibraries@RunTime@VIP@@1XQAVevent1@@@PAXPAX@Z 
01:0002FC20 ?anonymous$o2$1$addlistener/2np$event4{@Source,@Type1,@Type2,@Type3,@Type4}@event4@@SAXPAUanonymous$o2$1$addlistener/2np$event4{@Source,@Type1,@Type2,@Type3,@Type4}c_struct@1/5@PAXPAXPAX@Z 
01:0002FC44 ?addListener@event4@@SAXQAV1@@PAXPAXPAXPAXPAXQAVrTypeLibrary@TypeLibraries@RunTime@VIP@@11XQAVevent2@@@PAXPAXPAX@Z 
01:0002FCD0 ?anonymous$o3$1$addlistener/2np$event4{@Source,@Type1,@Type2,@Type3,@Type4}@event4@@SAXPAUanonymous$o3$1$addlistener/2np$event4{@Source,@Type1,@Type2,@Type3,@Type4}c_struct@1/5@PAXPAXPAXPAX@Z 
01:0002FCF4 ?addListener@event4@@SAXQAV1@@PAXPAXPAXPAXPAXQAVrTypeLibrary@TypeLibraries@RunTime@VIP@@111XQAVevent3@@@PAXPAXPAXPAX@Z 
01:0002FD88 ?anonymous$o4$1$addlistener/2np$event4{@Source,@Type1,@Type2,@Type3,@Type4}@event4@@SAXPAUanonymous$o4$1$addlistener/2np$event4{@Source,@Type1,@Type2,@Type3,@Type4}c_struct@1/5@PAXPAXPAXPAXPAX@Z 
01:0002FDAC ?addListener@event4@@SAXQAV1@@PAXPAXPAXPAXPAXQAVrTypeLibrary@TypeLibraries@RunTime@VIP@@1111X0@Z 
01:0002FE44 ?anonymous$o5$1$addlistener/2np$event4{@Source,@Type1,@Type2,@Type3,@Type4}@event4@@SAXPAUanonymous$o5$1$addlistener/2np$event4{@Source,@Type1,@Type2,@Type3,@Type4}c_struct@1/5@PAXPAXPAXPAXPAXPAX@Z 
01:0002FE68 ?addListener@event4@@SAXQAV1@@PAXPAXPAXPAXPAXQAVrTypeLibrary@TypeLibraries@RunTime@VIP@@11111XQAVevent5@@@PAXPAXPAXPAXPAXPAX@Z 
01:0002FF08 ?new@event3@@SAXQAV1@@PAXPAXPAXPAXQAVrTypeLibrary@TypeLibraries@RunTime@VIP@@111PAX@Z  (Idle)
01:0002FF1C ?addListener@event3@@SAXQAV1@@PAXPAXPAXPAXX@Z 
01:0002FF44 ?anonymous$o0$1$addlistener/2np$event3{@Source,@Type1,@Type2,@Type3}@event3@@SAXPAUanonymous$o0$1$addlistener/2np$event3{@Source,@Type1,@Type2,@Type3}c_struct@1/4@PAX@Z 
01:0002FF68 ?addListener@event3@@SAXQAV1@@PAXPAXPAXPAXQAVrTypeLibrary@TypeLibraries@RunTime@VIP@@XQAVevent0@@@PAX@Z 
01:0002FFE0 ?removeListener@event3@@SAXQAV1@@PAXPAXPAXPAXX@Z 
01:00030080 ?removeAllListeners@event3@@SAXQAV1@@PAXPAXPAXPAX@Z 
01:000300BC ?hasListeners@event3@@SAXQAV1@@PAXPAXPAXPAX@Z 
01:000300DC ?notify@event3@@SAXQAV1@@PAXPAXPAXPAXPAXPAXPAX@Z 
01:00030160 ?_new@event3@@SAXQAVrTypeLibrary@TypeLibraries@RunTime@VIP@@000PAXPAPAV1@@PAPAXPAPAXPAPAXPAPAX@Z  (Idle)
01:000301A0 ?_object_typelib_initializer@event3@@SGXQAV1@@PAXPAXPAXPAXQAVrTypeLibrary@TypeLibraries@RunTime@VIP@@111@Z 
01:000301C8 ?anonymous$o1$1$addlistener/2np$event3{@Source,@Type1,@Type2,@Type3}@event3@@SAXPAUanonymous$o1$1$addlistener/2np$event3{@Source,@Type1,@Type2,@Type3}c_struct@1/4@PAXPAX@Z 
01:000301EC ?addListener@event3@@SAXQAV1@@PAXPAXPAXPAXQAVrTypeLibrary@TypeLibraries@RunTime@VIP@@1XQAVevent1@@@PAXPAX@Z 
01:0003026C ?anonymous$o2$1$addlistener/2np$event3{@Source,@Type1,@Type2,@Type3}@event3@@SAXPAUanonymous$o2$1$addlistener/2np$event3{@Source,@Type1,@Type2,@Type3}c_struct@1/4@PAXPAXPAX@Z 
01:00030290 ?addListener@event3@@SAXQAV1@@PAXPAXPAXPAXQAVrTypeLibrary@TypeLibraries@RunTime@VIP@@11XQAVevent2@@@PAXPAXPAX@Z 
01:00030318 ?anonymous$o3$1$addlistener/2np$event3{@Source,@Type1,@Type2,@Type3}@event3@@SAXPAUanonymous$o3$1$addlistener/2np$event3{@Source,@Type1,@Type2,@Type3}c_struct@1/4@PAXPAXPAXPAX@Z 
01:0003033C ?addListener@event3@@SAXQAV1@@PAXPAXPAXPAXQAVrTypeLibrary@TypeLibraries@RunTime@VIP@@111X0@Z 
01:000303C8 ?anonymous$o4$1$addlistener/2np$event3{@Source,@Type1,@Type2,@Type3}@event3@@SAXPAUanonymous$o4$1$addlistener/2np$event3{@Source,@Type1,@Type2,@Type3}c_struct@1/4@PAXPAXPAXPAXPAX@Z 
01:000303EC ?addListener@event3@@SAXQAV1@@PAXPAXPAXPAXQAVrTypeLibrary@TypeLibraries@RunTime@VIP@@1111XQAVevent4@@@PAXPAXPAXPAXPAX@Z 
01:00030480 ?anonymous$o5$1$addlistener/2np$event3{@Source,@Type1,@Type2,@Type3}@event3@@SAXPAUanonymous$o5$1$addlistener/2np$event3{@Source,@Type1,@Type2,@Type3}c_struct@1/4@PAXPAXPAXPAXPAXPAX@Z 
01:000304A4 ?addListener@event3@@SAXQAV1@@PAXPAXPAXPAXQAVrTypeLibrary@TypeLibraries@RunTime@VIP@@11111XQAVevent5@@@PAXPAXPAXPAXPAXPAX@Z 
01:0003053C ?new@event2@@SAXQAV1@@PAXPAXPAXQAVrTypeLibrary@TypeLibraries@RunTime@VIP@@11PAX@Z  (Idle)
01:00030550 ?addListener@event2@@SAXQAV1@@PAXPAXPAXX@Z 
01:00030578 ?anonymous$o0$1$addlistener/2np$event2{@Source,@Type1,@Type2}@event2@@SAXPAUanonymous$o0$1$addlistener/2np$event2{@Source,@Type1,@Type2}c_struct@1/3@PAX@Z 
01:0003059C ?addListener@event2@@SAXQAV1@@PAXPAXPAXQAVrTypeLibrary@TypeLibraries@RunTime@VIP@@XQAVevent0@@@PAX@Z 
01:00030610 ?removeListener@event2@@SAXQAV1@@PAXPAXPAXX@Z 
01:000306B0 ?removeAllListeners@event2@@SAXQAV1@@PAXPAXPAX@Z 
01:000306EC ?hasListeners@event2@@SAXQAV1@@PAXPAXPAX@Z 
01:0003070C ?notify@event2@@SAXQAV1@@PAXPAXPAXPAXPAX@Z 
01:0003078C ?_new@event2@@SAXQAVrTypeLibrary@TypeLibraries@RunTime@VIP@@00PAXPAPAV1@@PAPAXPAPAXPAPAX@Z  (Idle)
01:000307C8 ?_object_typelib_initializer@event2@@SGXQAV1@@PAXPAXPAXQAVrTypeLibrary@TypeLibraries@RunTime@VIP@@11@Z 
01:000307EC ?anonymous$o1$1$addlistener/2np$event2{@Source,@Type1,@Type2}@event2@@SAXPAUanonymous$o1$1$addlistener/2np$event2{@Source,@Type1,@Type2}c_struct@1/3@PAXPAX@Z 
01:00030810 ?addListener@event2@@SAXQAV1@@PAXPAXPAXQAVrTypeLibrary@TypeLibraries@RunTime@VIP@@1XQAVevent1@@@PAXPAX@Z 
01:0003088C ?anonymous$o2$1$addlistener/2np$event2{@Source,@Type1,@Type2}@event2@@SAXPAUanonymous$o2$1$addlistener/2np$event2{@Source,@Type1,@Type2}c_struct@1/3@PAXPAXPAX@Z 
01:000308B0 ?addListener@event2@@SAXQAV1@@PAXPAXPAXQAVrTypeLibrary@TypeLibraries@RunTime@VIP@@11X0@Z 
01:00030930 ?anonymous$o3$1$addlistener/2np$event2{@Source,@Type1,@Type2}@event2@@SAXPAUanonymous$o3$1$addlistener/2np$event2{@Source,@Type1,@Type2}c_struct@1/3@PAXPAXPAXPAX@Z 
01:00030954 ?addListener@event2@@SAXQAV1@@PAXPAXPAXQAVrTypeLibrary@TypeLibraries@RunTime@VIP@@111XQAVevent3@@@PAXPAXPAXPAX@Z 
01:000309DC ?anonymous$o4$1$addlistener/2np$event2{@Source,@Type1,@Type2}@event2@@SAXPAUanonymous$o4$1$addlistener/2np$event2{@Source,@Type1,@Type2}c_struct@1/3@PAXPAXPAXPAXPAX@Z 
01:00030A00 ?addListener@event2@@SAXQAV1@@PAXPAXPAXQAVrTypeLibrary@TypeLibraries@RunTime@VIP@@1111XQAVevent4@@@PAXPAXPAXPAXPAX@Z 
01:00030A8C ?anonymous$o5$1$addlistener/2np$event2{@Source,@Type1,@Type2}@event2@@SAXPAUanonymous$o5$1$addlistener/2np$event2{@Source,@Type1,@Type2}c_struct@1/3@PAXPAXPAXPAXPAXPAX@Z 
01:00030AB0 ?addListener@event2@@SAXQAV1@@PAXPAXPAXQAVrTypeLibrary@TypeLibraries@RunTime@VIP@@11111XQAVevent5@@@PAXPAXPAXPAXPAXPAX@Z 
01:00030B44 ?new@event1@@SAXQAV1@@PAXPAXQAVrTypeLibrary@TypeLibraries@RunTime@VIP@@1PAX@Z  (Idle)
01:00030B58 ?addListener@event1@@SAXQAV1@@PAXPAXX@Z 
01:00030B80 ?anonymous$o0$1$addlistener/2np$event1{@Source,@Type1}@event1@@SAXPAUanonymous$o0$1$addlistener/2np$event1{@Source,@Type1}c_struct@1/2@PAX@Z 
01:00030BA4 ?addListener@event1@@SAXQAV1@@PAXPAXQAVrTypeLibrary@TypeLibraries@RunTime@VIP@@XQAVevent0@@@PAX@Z 
01:00030C10 ?removeListener@event1@@SAXQAV1@@PAXPAXX@Z 
01:00030CB0 ?removeAllListeners@event1@@SAXQAV1@@PAXPAX@Z 
01:00030CEC ?hasListeners@event1@@SAXQAV1@@PAXPAX@Z 
01:00030D0C ?notify@event1@@SAXQAV1@@PAXPAXPAX@Z 
01:00030D88 ?_new@event1@@SAXQAVrTypeLibrary@TypeLibraries@RunTime@VIP@@0PAXPAPAV1@@PAPAXPAPAX@Z  (Idle)
01:00030DBC ?_object_typelib_initializer@event1@@SGXQAV1@@PAXPAXQAVrTypeLibrary@TypeLibraries@RunTime@VIP@@1@Z 
01:00030DD8 ?anonymous$o1$1$addlistener/2np$event1{@Source,@Type1}@event1@@SAXPAUanonymous$o1$1$addlistener/2np$event1{@Source,@Type1}c_struct@1/2@PAXPAX@Z 
01:00030DFC ?addListener@event1@@SAXQAV1@@PAXPAXQAVrTypeLibrary@TypeLibraries@RunTime@VIP@@1X0@Z 
01:00030E70 ?anonymous$o2$1$addlistener/2np$event1{@Source,@Type1}@event1@@SAXPAUanonymous$o2$1$addlistener/2np$event1{@Source,@Type1}c_struct@1/2@PAXPAXPAX@Z 
01:00030E94 ?addListener@event1@@SAXQAV1@@PAXPAXQAVrTypeLibrary@TypeLibraries@RunTime@VIP@@11XQAVevent2@@@PAXPAXPAX@Z 
01:00030F10 ?anonymous$o3$1$addlistener/2np$event1{@Source,@Type1}@event1@@SAXPAUanonymous$o3$1$addlistener/2np$event1{@Source,@Type1}c_struct@1/2@PAXPAXPAXPAX@Z 
01:00030F34 ?addListener@event1@@SAXQAV1@@PAXPAXQAVrTypeLibrary@TypeLibraries@RunTime@VIP@@111XQAVevent3@@@PAXPAXPAXPAX@Z 
01:00030FB4 ?anonymous$o4$1$addlistener/2np$event1{@Source,@Type1}@event1@@SAXPAUanonymous$o4$1$addlistener/2np$event1{@Source,@Type1}c_struct@1/2@PAXPAXPAXPAXPAX@Z 
01:00030FD8 ?addListener@event1@@SAXQAV1@@PAXPAXQAVrTypeLibrary@TypeLibraries@RunTime@VIP@@1111XQAVevent4@@@PAXPAXPAXPAXPAX@Z 
01:00031060 ?anonymous$o5$1$addlistener/2np$event1{@Source,@Type1}@event1@@SAXPAUanonymous$o5$1$addlistener/2np$event1{@Source,@Type1}c_struct@1/2@PAXPAXPAXPAXPAXPAX@Z 
01:00031084 ?addListener@event1@@SAXQAV1@@PAXPAXQAVrTypeLibrary@TypeLibraries@RunTime@VIP@@11111XQAVevent5@@@PAXPAXPAXPAXPAXPAX@Z 
01:00031110 ?new@event0@@SAXQAV1@@PAXQAVrTypeLibrary@TypeLibraries@RunTime@VIP@@PAX@Z  (Idle)
01:00031124 ?addListener@event0@@SAXQAV1@@PAXX@Z 
01:0003114C ?anonymous$o0$1$addlistener/2np$event0{@Source}@event0@@SAXPAUanonymous$o0$1$addlistener/2np$event0{@Source}c_struct@1/1@PAX@Z 
01:00031170 ?addListener@event0@@SAXQAV1@@PAXQAVrTypeLibrary@TypeLibraries@RunTime@VIP@@X0@Z 
01:000311D8 ?removeListener@event0@@SAXQAV1@@PAXX@Z 
01:00031278 ?removeAllListeners@event0@@SAXQAV1@@PAX@Z 
01:000312B4 ?hasListeners@event0@@SAXQAV1@@PAX@Z 
01:000312D4 ?notify@event0@@SAXQAV1@@PAX@Z 
--- From 'Obj\memory.F1BE59D6.obj'
01:0003134C ?_new@event0@@SAXQAVrTypeLibrary@TypeLibraries@RunTime@VIP@@PAXPAPAV1@@PAPAX@Z 
--- From 'Obj\event.5E0B1F78.obj'
01:0003137C ?_object_typelib_initializer@event0@@SGXQAV1@@PAXQAVrTypeLibrary@TypeLibraries@RunTime@VIP@@@Z 
01:00031394 ?anonymous$o1$1$addlistener/2np$event0{@Source}@event0@@SAXPAUanonymous$o1$1$addlistener/2np$event0{@Source}c_struct@1/1@PAXPAX@Z 
01:000313B8 ?addListener@event0@@SAXQAV1@@PAXQAVrTypeLibrary@TypeLibraries@RunTime@VIP@@1XQAVevent1@@@PAXPAX@Z 
01:00031428 ?anonymous$o2$1$addlistener/2np$event0{@Source}@event0@@SAXPAUanonymous$o2$1$addlistener/2np$event0{@Source}c_struct@1/1@PAXPAXPAX@Z 
01:0003144C ?addListener@event0@@SAXQAV1@@PAXQAVrTypeLibrary@TypeLibraries@RunTime@VIP@@11XQAVevent2@@@PAXPAXPAX@Z 
01:000314C0 ?anonymous$o3$1$addlistener/2np$event0{@Source}@event0@@SAXPAUanonymous$o3$1$addlistener/2np$event0{@Source}c_struct@1/1@PAXPAXPAXPAX@Z 
01:000314E4 ?addListener@event0@@SAXQAV1@@PAXQAVrTypeLibrary@TypeLibraries@RunTime@VIP@@111XQAVevent3@@@PAXPAXPAXPAX@Z 
01:00031560 ?anonymous$o4$1$addlistener/2np$event0{@Source}@event0@@SAXPAUanonymous$o4$1$addlistener/2np$event0{@Source}c_struct@1/1@PAXPAXPAXPAXPAX@Z 
01:00031584 ?addListener@event0@@SAXQAV1@@PAXQAVrTypeLibrary@TypeLibraries@RunTime@VIP@@1111XQAVevent4@@@PAXPAXPAXPAXPAX@Z 
01:00031604 ?anonymous$o5$1$addlistener/2np$event0{@Source}@event0@@SAXPAUanonymous$o5$1$addlistener/2np$event0{@Source}c_struct@1/1@PAXPAXPAXPAXPAXPAX@Z 
01:00031628 ?addListener@event0@@SAXQAV1@@PAXQAVrTypeLibrary@TypeLibraries@RunTime@VIP@@11111XQAVevent5@@@PAXPAXPAXPAXPAXPAX@Z 
01:000316B8 event7{@Source,@Type1,@Type2,@Type3,@Type4,@Type5,@Type6,@Type7}?_initObject@@@QAGXQAV1@H@Z 
01:000316F8 ?@create_object@event7@@SGQAV1@@PAXPAXPAXPAXPAXPAXPAXPAXQAVrTypeLibrary@TypeLibraries@RunTime@VIP@@0000000@Z 
01:00031738 event7{@Source,@Type1,@Type2,@Type3,@Type4,@Type5,@Type6,@Type7}?_InternalFinalizer@@@QAGXQAV1@@Z 
01:0003174C event6{@Source,@Type1,@Type2,@Type3,@Type4,@Type5,@Type6}?_initObject@@@QAGXQAV1@H@Z 
01:00031788 ?@create_object@event6@@SGQAV1@@PAXPAXPAXPAXPAXPAXPAXQAVrTypeLibrary@TypeLibraries@RunTime@VIP@@000000@Z 
01:000317C4 event6{@Source,@Type1,@Type2,@Type3,@Type4,@Type5,@Type6}?_InternalFinalizer@@@QAGXQAV1@@Z 
01:000317D8 event5{@Source,@Type1,@Type2,@Type3,@Type4,@Type5}?_initObject@@@QAGXQAV1@H@Z 
01:00031810 ?@create_object@event5@@SGQAV1@@PAXPAXPAXPAXPAXPAXQAVrTypeLibrary@TypeLibraries@RunTime@VIP@@00000@Z 
01:00031848 event5{@Source,@Type1,@Type2,@Type3,@Type4,@Type5}?_InternalFinalizer@@@QAGXQAV1@@Z 
01:0003185C event4{@Source,@Type1,@Type2,@Type3,@Type4}?_initObject@@@QAGXQAV1@H@Z 
01:00031890 ?@create_object@event4@@SGQAV1@@PAXPAXPAXPAXPAXQAVrTypeLibrary@TypeLibraries@RunTime@VIP@@0000@Z 
01:000318C4 event4{@Source,@Type1,@Type2,@Type3,@Type4}?_InternalFinalizer@@@QAGXQAV1@@Z 
01:000318D8 event3{@Source,@Type1,@Type2,@Type3}?_initObject@@@QAGXQAV1@H@Z 
01:00031908 ?@create_object@event3@@SGQAV1@@PAXPAXPAXPAXQAVrTypeLibrary@TypeLibraries@RunTime@VIP@@000@Z 
01:00031938 event3{@Source,@Type1,@Type2,@Type3}?_InternalFinalizer@@@QAGXQAV1@@Z 
01:0003194C event2{@Source,@Type1,@Type2}?_initObject@@@QAGXQAV1@H@Z 
01:00031978 ?@create_object@event2@@SGQAV1@@PAXPAXPAXQAVrTypeLibrary@TypeLibraries@RunTime@VIP@@00@Z 
01:000319A4 event2{@Source,@Type1,@Type2}?_InternalFinalizer@@@QAGXQAV1@@Z 
01:000319B8 event1{@Source,@Type1}?_initObject@@@QAGXQAV1@H@Z 
01:000319E0 ?@create_object@event1@@SGQAV1@@PAXPAXQAVrTypeLibrary@TypeLibraries@RunTime@VIP@@0@Z 
01:00031A08 event1{@Source,@Type1}?_InternalFinalizer@@@QAGXQAV1@@Z 
01:00031A1C event0{@Source}?_initObject@@@QAGXQAV1@H@Z 
01:00031A40 ?@create_object@event0@@SGQAV1@@PAXQAVrTypeLibrary@TypeLibraries@RunTime@VIP@@@Z 
01:00031A64 event0{@Source}?_InternalFinalizer@@@QAGXQAV1@@Z 
--- From 'Obj\time_api.3BF8D4E6.obj'
01:00031A70 _GetTickCount64@0  (Idle)
01:00031A94 _QueryUnbiasedInterruptTime@4  (Idle)
--- From 'Obj\exception.311FF4B8.obj'
01:00031AB8 ?_getSystemTimeAsFileTime@time_api@@SAXPAAAUgmtTimeValue@@@Z 
--- From 'Obj\time_api.3BF8D4E6.obj'
01:00031AF8 ?_gmtTimeToSystemTime@time_api@@SAXPAPBUgmtTimeValue@@PAPAUsystemTime_struct@time_native@@@Z  (Idle)
01:00031BB8 ?_systemTimeToGmtTime@time_api@@SAXPAUsystemTime_struct@time_native@@PAAAUgmtTimeValue@@@Z  (Idle)
--- From 'Obj\exception.311FF4B8.obj'
01:00031F10 ?_localTimeToSystemTime@time_api@@SAXPAPBUlocalTimeValue@@PAPAUsystemTime_struct@time_native@@@Z 
--- From 'Obj\time_api.3BF8D4E6.obj'
01:00031F24 ?_systemTimeToLocalTime@time_api@@SAXPAUsystemTime_struct@time_native@@PAAAUlocalTimeValue@@@Z  (Idle)
01:00031F48 ?_getTimeZoneInformation@time_api@@SAXPAPAUtimeZoneAPI_struct@time_native@@@Z  (Idle)
01:00031FA8 ?_systemTimeToTzSpecificLocalTime@time_api@@SAXPAUtimeZoneAPI_struct@time_native@@PAUsystemTime_struct@3@PAPAU43@@Z  (Idle)
01:00032008 ?_tzSpecificLocalTimeToSystemTime@time_api@@SAXPAUtimeZoneAPI_struct@time_native@@PAUsystemTime_struct@3@PAPAU43@@Z  (Idle)
--- From 'Obj\exception.311FF4B8.obj'
01:00032134 ?_gmtTimeToLocalTime@time_api@@SAXPAPBUgmtTimeValue@@PAAAUlocalTimeValue@@@Z 
--- From 'Obj\time_api.3BF8D4E6.obj'
01:00032150 ?_gmtTimeToLocalTime@time_api@@SAXPAPBUgmtTimeValue@@PAUtimeZoneAPI_struct@time_native@@PAAAUlocalTimeValue@@@Z 
01:00032274 ?_localTimeToGmtTime@time_api@@SAXPAPBUlocalTimeValue@@PAAAUgmtTimeValue@@@Z  (Idle)
01:00032290 ?_localTimeToGmtTime@time_api@@SAXPAPBUlocalTimeValue@@PAUtimeZoneAPI_struct@time_native@@PAAAUgmtTimeValue@@@Z 
01:000323B4 ?_gmtTimeToFileTime@time_api@@SAXPAPBUgmtTimeValue@@PAPAUfileTime_struct@time_native@@@Z 
01:000323D8 ?_fileTimeToGmtTime@time_api@@SAXPAUfileTime_struct@time_native@@PAAAUgmtTimeValue@@@Z 
01:000323E4 ?_formatDate@time_api@@SAXPAPBUlocalTimeValue@@PB_WPBUlcId@@PAPB_W@Z  (Idle)
01:00032430 ?_formatTime@time_api@@SAXPAPBUlocalTimeValue@@PB_WPBUlcId@@PAPB_W@Z  (Idle)
--- From 'Obj\exception.311FF4B8.obj'
01:0003247C ?_getDateFormat@time_api@@SAXPBUlcId@@IPAUsystemTime_struct@time_native@@PB_WPAPB_W@Z 
01:00032578 ?_getTimeFormat@time_api@@SAXPBUlcId@@IPAUsystemTime_struct@time_native@@PB_WPAPB_W@Z 
--- From 'Obj\time_api.3BF8D4E6.obj'
01:00032674 ?_getLocaleInfo_string@time_api@@SAXPBUlcId@@PBUlcType@@PAPB_W@Z  (Idle)
01:000326F8 ?_getLocaleInfo_integer@time_api@@SAXPBUlcId@@PBUlcType@@PAH@Z  (Idle)
01:00032748 ?_getFirstDayOfWeek@time_api@@SAXPBUlcId@@PAH@Z  (Idle)
01:00032764 ?_fromUnixTime@time_api@@SAXIPAAAUgmtTimeValue@@@Z  (Idle)
01:000327CC ?_toUnixTime@time_api@@SAXPAPBUgmtTimeValue@@PAI@Z  (Idle)
01:00032850 ?raise_cannotGetDateTimeFormat_explicit@time_api@@SAXPAUprogramPoint_struct@core@@IIIIIIIIIIPB_WPBUhResult@@@Z 
01:00032C60 ?raise_cannotGetLocaleInfo_explicit@time_api@@SAXPAUprogramPoint_struct@core@@IIPBUhResult@@@Z 
01:00032D7C ?_fromUnixTime@time_api@@SAXIPAAAUlocalTimeValue@@@Z  (Idle)
01:00032DE4 ?_toUnixTime@time_api@@SAXPAPBUlocalTimeValue@@PAI@Z  (Idle)
--- From 'Obj\locale_api.2F2FFAF4.obj'
01:00032E70 ?_makeLangId@locale_api@@SAXIIPAI@Z  (Idle)
01:00032E94 ?_primaryLangId@locale_api@@SAXIPAI@Z  (Idle)
01:00032EB0 ?_subLangId@locale_api@@SAXIPAI@Z  (Idle)
01:00032ECC ?_makeLcId@locale_api@@SAXIIAAUlcId@@@Z  (Idle)
01:00032EF0 ?_makeSortLcId@locale_api@@SAXIIIPAI@Z  (Idle)
01:00032F38 ?_langIdFromLcId@locale_api@@SAXIPAI@Z  (Idle)
01:00032F54 ?_sortIdFromLcId@locale_api@@SAXIPAI@Z  (Idle)
01:00032F7C ?_sortVersionFromLcId@locale_api@@SAXIPAI@Z  (Idle)
01:00032F98 ?_getNumberFormat@locale_api@@SAXPB_WPAPB_W@Z  (Idle)
01:00032FBC ?_getNumberFormat@locale_api@@SAXPB_WPBUlcId@@PAPB_W@Z 
01:00032FD8 ?_getNumberFormat@locale_api@@SAXPB_WPBUlcId@@PAUnumberfmt_struct@locale_native@@PAPB_W@Z 
01:00033030 ?_getLocaleInfo_integer@locale_api@@SAXPBUlcType@@PAH@Z  (Idle)
01:00033054 ?_getLocaleInfo_integer@locale_api@@SAXPBUlcType@@PBUlcId@@PAH@Z 
01:00033080 ?_getLocaleInfo_string@locale_api@@SAXPBUlcType@@PAPB_W@Z  (Idle)
01:000330A4 ?_getLocaleInfo_string@locale_api@@SAXPBUlcType@@PBUlcId@@PAPB_W@Z 
--- From 'Obj\gui_api.9DA8CF80.obj'
01:00033100 ?_createDialog@gui_native@@SAXPBUhModule@@HPBUhwnd@@XAAU3@@Z  (Idle)
01:00033120 ?_createDialogIndirect@gui_native@@SAXPBUhModule@@PAUdlgTemplate_struct@1@PBUhwnd@@XAAU5@@Z  (Idle)
01:00033140 ?_createDialog@gui_native@@SAXPBUhModule@@PB_WPBUhwnd@@XAAU3@@Z  (Idle)
01:00033160 ?_createDialogIndirect@gui_native@@SAXPBUhModule@@PAUdlgTemplateEx_struct@1@PBUhwnd@@XAAU5@@Z  (Idle)
01:00033180 _AddClipboardFormatListener@4  (Idle)
01:000331A4 _MenuItemFromPoint@16  (Idle)
01:000331C8 ?setScrollRange@gui_api@@SAXPBUhwnd@@HHHPAUboolean_struct@_builtIn@@@Z  (Idle)
01:00033224 ?getScrollRange@gui_api@@SAXPBUhwnd@@HPAHPAH@Z  (Idle)
01:00033268 ?_getScrollInfo@gui_api@@SAXPBUhwnd@@HIPAPAUscrollInfo_struct@1@@Z  (Idle)
01:00033330 ?_setScrollInfo@gui_api@@SAXPBUhwnd@@HPAUscrollInfo_struct@1@PAUboolean_struct@_builtIn@@IPAH@Z  (Idle)
01:000333B8 ?_scrollWindowEx@gui_api@@SAXPBUhwnd@@HHPAUrct_struct@vpiDomains@@3PBUhRgn@@PAPAU34@IPAH@Z  (Idle)
01:0003342C ?_scrollWindowEx@gui_api@@SAXPBUhwnd@@HHPAUrct_struct@vpiDomains@@3PBUhRgn@@IPAH@Z  (Idle)
01:00033480 ?_getUpdateRgn@gui_api@@SAXPBUhwnd@@PBUhRgn@@PAUboolean_struct@_builtIn@@PAH@Z  (Idle)
01:000334DC ?_tryGetUpdateRect@gui_api@@SAXPBUhwnd@@PAUboolean_struct@_builtIn@@PAPAUrct_struct@vpiDomains@@@Z  (Idle)
01:0003352C ?_makePoints@gui_api@@SAXPBUlParam@gui_native@@PAPAUpnt_struct@vpiDomains@@@Z  (Idle)
01:00033584 ?getInteger16@gui_api@@SAXPBUunsignedNative@@AAUinteger16@@1@Z  (Idle)
01:000335BC ?getUnsigned16@gui_api@@SAXPBUunsignedNative@@AAUunsigned16@@1@Z 
01:000335F8 ?_makeLParam@gui_api@@SAXPAUpnt_struct@vpiDomains@@AAUlParam@gui_native@@@Z  (Idle)
01:00033678 ?_getWindowPlacement@gui_api@@SAXPBUhwnd@@PAPAUwindowPlacement_struct@1@@Z  (Idle)
01:00033744 ?setWindowPlacement@gui_api@@SAXPBUhwnd@@PAUwindowPlacement_struct@1@@Z  (Idle)
01:000337F8 ?_getTextExtentPoint32@gui_api@@SAXPBUhDC@@PB_WPAPAUsize_struct@gui_native@@@Z  (Idle)
01:0003382C ?_getTextExtentPoint32@gui_api@@SAXPBUhDC@@PB_WPBUcharCount@@PAPAUsize_struct@gui_native@@@Z 
01:00033898 ?_getTextMetrics@gui_api@@SAXPBUhDC@@PAPAUtextmetric_struct@gui_native@@@Z  (Idle)
01:000338F0 ?_registerClassEx@gui_api@@SAXIXHHPBUhModule@@PBUhIcon@@PBUhCursor@@PBUhBrush@@PB_W85AAUatom@@@Z  (Idle)
01:000339E4 ?_createWindowEx@gui_api@@SAXIPB_W1IHHHHPBUhwnd@@PBUhMenu@@PBUhModule@@PAXAAU2@@Z  (Idle)
01:00033AA0 ?_mkDlgTemplate@gui_api@@SAXPAUdlgTemplate_struct@1@PAPAU2gui_native@@@Z  (Idle)
01:00034240 ?writeVarArray@gui_api@@SAXQAVoutputStream@@@PAUvarArray_struct@1@@Z 
01:0003436C ?align32@gui_api@@SAXQAVoutputStream@@@@Z 
01:00034430 ?_createDialogIndirectParam@gui_api@@SAXPBUhModule@@PAUdlgTemplate_struct@1@PBUhwnd@@XPBUlParam@@AAU5@@Z  (Idle)
01:00034490 ?_beginPaint@gui_api@@SAXPBUhwnd@@PAPAUpaintStruct_struct@gui_native@@AAUhDC@@@Z  (Idle)
01:000344EC ?endPaint@gui_api@@SAXPBUhwnd@@PAUpaintStruct_struct@gui_native@@@Z  (Idle)
01:00034500 ?_getClientRect@gui_api@@SAXPBUhwnd@@PAPAUrct_struct@vpiDomains@@@Z  (Idle)
01:00034558 ?_getWindow_handle@gui_api@@SAXPBUhwnd@@HAAU3@@Z  (Idle)
01:00034658 ?_setWindow_handle@gui_api@@SAXPBUhwnd@@HPBU3@AAU3@@Z  (Idle)
01:000346AC ?_getWindow_integer@gui_api@@SAXPBUhwnd@@HPAH@Z  (Idle)
01:000346DC ?_setWindow_integer@gui_api@@SAXPBUhwnd@@HHPAH@Z  (Idle)
01:00034724 ?_getWindow_unsigned@gui_api@@SAXPBUhwnd@@HPAI@Z  (Idle)
01:00034754 ?_setWindow_unsigned@gui_api@@SAXPBUhwnd@@HIPAI@Z  (Idle)
01:0003479C ?_getWindow_style@gui_api@@SAXPBUhwnd@@PAI@Z  (Idle)
01:000347B8 ?setWindow_style@gui_api@@SAXPBUhwnd@@I@Z  (Idle)
01:000347D8 ?_getWindow_exstyle@gui_api@@SAXPBUhwnd@@PAI@Z  (Idle)
01:000347F4 ?setWindow_exstyle@gui_api@@SAXPBUhwnd@@I@Z  (Idle)
01:00034814 ?_getWindow_wndProc@gui_api@@SAXPBUhwnd@@PAX@Z  (Idle)
01:0003483C ?_setWindow_wndProc@gui_api@@SAXPBUhwnd@@XPAX@Z  (Idle)
01:00034864 ?_getClass_handle@gui_api@@SAXPBUhwnd@@HAAU3@@Z  (Idle)
01:000348B4 ?_setClass_handle@gui_api@@SAXPBUhwnd@@HPBU3@AAU3@@Z  (Idle)
01:00034908 ?_getClass_integer@gui_api@@SAXPBUhwnd@@HPAH@Z  (Idle)
01:00034938 ?_setClass_integer@gui_api@@SAXPBUhwnd@@HHPAH@Z  (Idle)
01:00034980 ?_getClass_unsigned@gui_api@@SAXPBUhwnd@@HPAI@Z  (Idle)
01:000349B0 ?_setClass_unsigned@gui_api@@SAXPBUhwnd@@HIPAI@Z  (Idle)
01:000349F8 ?extTextOut@gui_api@@SAXPBUhDC@@HHIPAUrct_struct@vpiDomains@@PB_W@Z  (Idle)
01:00034A24 ?extTextOut@gui_api@@SAXPBUhDC@@HHIPAUrct_struct@vpiDomains@@PB_WPAX@Z  (Idle)
01:00034A58 ?extTextOut@gui_api@@SAXPBUhDC@@HHIPAUrct_struct@vpiDomains@@PB_WPBUcharCount@@PAX@Z 
01:00034AA8 ?invalidateRect@gui_api@@SAXPBUhwnd@@PAUrct_struct@vpiDomains@@PBUbooleanInt@@@Z  (Idle)
01:00034AEC ?invalidate@gui_api@@SAXPBUhwnd@@PBUbooleanInt@@@Z  (Idle)
01:00034B04 ?bringWindowToTop@gui_api@@SAXPBUhwnd@@@Z  (Idle)
01:00034B40 ?_tryGetForegroundWindow@gui_api@@SAXAAUhwnd@@@Z  (Idle)
01:00034B60 ?_setForegroundWindow@gui_api@@SAXPBUhwnd@@PAPAUboolean_struct@_builtIn@@@Z  (Idle)
01:00034B90 ?_setFocus@gui_api@@SAXPBUhwnd@@AAU2@@Z  (Idle)
01:00034BD4 ?_getParent@gui_api@@SAXPBUhwnd@@AAU2@@Z  (Idle)
01:00034C18 ?_tryGetParent@gui_api@@SAXPBUhwnd@@AAU2@@Z  (Idle)
01:00034C38 ?_setParent@gui_api@@SAXPBUhwnd@@0AAU2@@Z  (Idle)
01:00034C7C ?_clientToScreen@gui_api@@SAXPBUhwnd@@PAUpnt_struct@vpiDomains@@PAPAU34@@Z  (Idle)
01:00034CDC ?_screenToClient@gui_api@@SAXPBUhwnd@@PAUpnt_struct@vpiDomains@@PAPAU34@@Z  (Idle)
01:00034D3C ?_alloc_pnt@gui_api@@SAXHHPAPAUpnt_struct@vpiDomains@@@Z 
01:00034D68 ?adjustWindowRectEx@gui_api@@SAXPAUrct_struct@vpiDomains@@IPAUboolean_struct@_builtIn@@I@Z  (Idle)
01:00034DC0 ?deleteObject@gui_api@@SAXPBUhandle@@@Z  (Idle)
01:00034DD0 ?_deleteObject@gui_api@@SAXPBUhandle@@PAPAUboolean_struct@_builtIn@@@Z  (Idle)
01:00034DE8 ?_selectObject@gui_api@@SAXPBUhDC@@PBUhandle@@AAU3@@Z  (Idle)
01:00034E48 ?_selectObject_region@gui_api@@SAXPBUhDC@@PBUhandle@@PAI@Z  (Idle)
01:00034EB4 ?selectObjectDeleteOld@gui_api@@SAXPBUhDC@@PBUhandle@@@Z  (Idle)
01:00034EDC ?_createFontIndirect@gui_api@@SAXPAUlogfont_struct@gui_native@@AAUhFont@@@Z  (Idle)
01:00034F2C ?_createAcceleratorTable@gui_api@@SAXPAU?$__packedList_struct@Uaccel@gui_native@@@@AAUhandle@@@Z  (Idle)
01:00034FBC ?fillAccelTable@gui_api@@SAXPAXPAU?$__packedList_struct@Uaccel@gui_native@@@@@Z 
01:00035018 ?_allocMsg@gui_api@@SAXPAPAUmsg_struct@gui_native@@@Z  (Idle)
01:00035044 ?_getMessage_update@gui_api@@SAXPAUmsg_struct@gui_native@@PAPAUboolean_struct@_builtIn@@@Z  (Idle)
01:00035068 ?_getMessage_update@gui_api@@SAXPAUmsg_struct@gui_native@@PBUhwnd@@PAPAUboolean_struct@_builtIn@@@Z  (Idle)
01:00035088 ?_getMessage_update@gui_api@@SAXPAUmsg_struct@gui_native@@PBUhwnd@@IIPAPAUboolean_struct@_builtIn@@@Z 
01:000350F0 ?releaseDC@gui_api@@SAXPBUhwnd@@PBUhDC@@@Z  (Idle)
01:00035104 ?_releaseDC_result@gui_api@@SAXPBUhwnd@@PBUhDC@@PAPAUboolean_struct@_builtIn@@@Z  (Idle)
01:00035128 ?_tryGetDC@gui_api@@SAXPBUhwnd@@AAUhDC@@@Z  (Idle)
01:00035148 ?_getDC@gui_api@@SAXPBUhwnd@@AAUhDC@@@Z  (Idle)
01:000351C0 ?_getMenu@gui_api@@SAXPBUhwnd@@AAUhMenu@@@Z  (Idle)
01:0003523C ?_tryGetMenu@gui_api@@SAXPBUhwnd@@AAUhMenu@@@Z 
01:0003528C ?_getMenuItemCount@gui_api@@SAXPBUhMenu@@AAUpositive@@@Z  (Idle)
01:00035304 ?_getMenuItemInfo_index@gui_api@@SAXPBUhMenu@@PBUpositive@@PAPAUmenuItemInfo_struct@gui_native@@@Z  (Idle)
01:00035320 ?_getMenuItemInfo_index@gui_api@@SAXPBUhMenu@@PBUpositive@@IPAPAUmenuItemInfo_struct@gui_native@@@Z 
01:00035354 ?_getMenuItemInfo_id@gui_api@@SAXPBUhMenu@@IPAPAUmenuItemInfo_struct@gui_native@@@Z  (Idle)
01:00035370 ?_getMenuItemInfo_id@gui_api@@SAXPBUhMenu@@IIPAPAUmenuItemInfo_struct@gui_native@@@Z 
01:00035398 ?_getMenuItemInfo2@gui_api@@SAXPBUhMenu@gui_native@@IPBUbooleanInt@@IPAPAUmenuItemInfo_struct@3@@Z 
01:0003550C ?_getMenuItemString_index@gui_api@@SAXPBUhMenu@@PBUpositive@@PAPB_W@Z  (Idle)
01:00035538 ?_getMenuItemString_id@gui_api@@SAXPBUhMenu@@IPAPB_W@Z  (Idle)
01:00035564 ?insertMenuItem_first@gui_api@@SAXPBUhMenu@gui_native@@PAUmenuItemInfo_struct@3@@Z  (Idle)
01:00035580 ?insertMenuItem_last@gui_api@@SAXPBUhMenu@gui_native@@PAUmenuItemInfo_struct@3@@Z  (Idle)
01:0003559C ?insertMenuItem_beforeIndex@gui_api@@SAXPBUhMenu@gui_native@@PBUpositiveOptional@@PAUmenuItemInfo_struct@3@@Z 
01:000355C4 ?insertMenuItem_beforeId@gui_api@@SAXPBUhMenu@gui_native@@IPAUmenuItemInfo_struct@3@@Z  (Idle)
01:000355E0 ?insertMenuItem2@gui_api@@SAXPBUhMenu@gui_native@@IPBUbooleanInt@@PAUmenuItemInfo_struct@3@@Z 
01:0003563C ?endMenu@gui_api@@SAXXZ  (Idle)
01:00035674 ?moveWindow@gui_api@@SAXPBUhwnd@@HHHHPAUboolean_struct@_builtIn@@@Z  (Idle)
01:000356D0 ?_mkW@gui_api@@SAXHAAUwParam@@@Z  (Idle)
01:000356E0 ?_mkL@gui_api@@SAXHAAUlParam@@@Z 
01:000356F0 ?_mkR@gui_api@@SAXHAAUlResult@@@Z  (Idle)
01:00035700 ?_makeIntResource@gui_api@@SAXIPAPB_W@Z  (Idle)
01:00035724 ?isCtrlColorMsg@gui_api@@SAXI@Z  (Idle)
01:0003577C ?openClipboard@gui_api@@SAXPBUhwnd@@@Z  (Idle)
01:000357B8 ?closeClipboard@gui_api@@SAXXZ  (Idle)
01:000357F0 ?_getClipboardOwner@gui_api@@SAXAAUhwnd@@@Z  (Idle)
01:00035830 ?_setClipboardViewer@gui_api@@SAXPBUhwnd@@AAU2@@Z  (Idle)
01:00035870 ?_getClipboardViewer@gui_api@@SAXAAUhwnd@@@Z  (Idle)
01:000358B0 ?_changeClipboardChain@gui_api@@SAXPBUhwnd@@0PAPAUboolean_struct@_builtIn@@@Z  (Idle)
01:000358D4 ?setClipboardData@gui_api@@SAXIPBUhandle@@@Z  (Idle)
01:00035914 ?_getClipboardData@gui_api@@SAXIAAUhandle@@@Z  (Idle)
01:00035954 ?_registerClipboardFormat@gui_api@@SAXPB_WPAI@Z  (Idle)
01:00035994 ?_countClipboardFormats@gui_api@@SAXPAH@Z  (Idle)
01:000359D4 ?_enumClipboardFormats@gui_api@@SAXIPAI@Z  (Idle)
01:00035A14 ?_getClipboardFormatName@gui_api@@SAXIPAPB_W@Z  (Idle)
01:00035A70 ?emptyClipboard@gui_api@@SAXXZ  (Idle)
01:00035AA8 ?isClipboardFormatAvailable@gui_api@@SAXI@Z  (Idle)
01:00035AC4 ?_getPriorityClipboardFormat@gui_api@@SAXPAXHPAH@Z  (Idle)
01:00035B08 ?_getOpenClipboardWindow@gui_api@@SAXAAUhwnd@@@Z  (Idle)
01:00035B48 ?destroyWindow@gui_api@@SAXPBUhwnd@@@Z  (Idle)
01:00035B84 ?_getText@gui_api@@SAXPBUhwnd@@PAPB_W@Z  (Idle)
01:00035C10 ?setText@gui_api@@SAXPBUhwnd@@PB_W@Z  (Idle)
01:00035C44 ?_getWindowRect@gui_api@@SAXPBUhwnd@@PAPAUrct_struct@vpiDomains@@@Z  (Idle)
01:00035CA0 ?_loadImage_file@gui_api@@SAXPB_WIPBUpositive@@2IAAUhandle@@@Z  (Idle)
01:00035D28 ?_loadImage_oem@gui_api@@SAXPBUresid@vpiDomains@@IPBUpositive@@2IAAUhandle@@@Z  (Idle)
01:00035D8C ?_loadImage_resId@gui_api@@SAXPBUresid@vpiDomains@@IPBUpositive@@2IAAUhandle@@@Z  (Idle)
01:00035E08 ?_loadImage_resId@gui_api@@SAXPBUhModule@@PBUresid@vpiDomains@@IPBUpositive@@3IAAUhandle@@@Z  (Idle)
01:00035E68 ?_loadImage@gui_api@@SAXPBUhModule@@PB_WIPBUpositive@@3IPAUvalue_struct@core@@AAUhandle@@@Z 
01:00035F04 ?_getWindowThreadProcessId@gui_api@@SAXPBUhwnd@@PAI@Z  (Idle)
01:00035F24 ?_getWindowThreadProcessId@gui_api@@SAXPBUhwnd@@PAIPAI@Z 
01:00035F68 ?attachThreadInput@gui_api@@SAXIIPAUboolean_struct@_builtIn@@@Z  (Idle)
01:00035FBC ?_setActiveWindow@gui_api@@SAXPBUhwnd@@AAU2@@Z  (Idle)
01:00035FFC ?rectangle@gui_api@@SAXPBUhDC@@HHHH@Z  (Idle)
01:00036044 ?drawFocusRect@gui_api@@SAXPBUhDC@@PAUrct_struct@vpiDomains@@@Z  (Idle)
01:00036084 ?trackMouseEvent@gui_api@@SAXPAUtrackMouseEvent_struct@gui_native@@@Z  (Idle)
01:000360C0 ?trackMouseHover@gui_api@@SAXPBUhwnd@@@Z  (Idle)
01:000360F8 ?trackMouseLeave@gui_api@@SAXPBUhwnd@@@Z  (Idle)
01:00036130 ?setWindowPos@gui_api@@SAXPBUhwnd@@0HHHHI@Z  (Idle)
01:00036180 ?updateLayeredWindow@gui_api@@SAXPBUhwnd@@PBUhDC@@PAUpnt_struct@vpiDomains@@PAUsize_struct@gui_native@@12PBUcolor@5@PAUblendFunction_struct@7@I@Z  (Idle)
01:000361D4 ?_getStockObject@gui_api@@SAXHAAUhandle@@@Z  (Idle)
01:0003624C ?_monitorFromPoint@gui_api@@SAXPAUpnt_struct@vpiDomains@@IAAUhMonitor@@@Z  (Idle)
01:0003626C ?_monitorFromRect@gui_api@@SAXPAUrct_struct@vpiDomains@@IAAUhMonitor@@@Z  (Idle)
01:00036284 ?_monitorFromWindow@gui_api@@SAXPBUhwnd@@IAAUhMonitor@@@Z  (Idle)
01:0003629C ?_getMonitorInfo@gui_api@@SAXPBUhMonitor@@PAPAUmonitorInfo_struct@1@@Z  (Idle)
01:000363CC ?_getDummy@gui_api@@SAXPAH@Z 
01:000363E0 ?_mkKeyDown@gui_api@@SAXPBUunsigned16@@PAPAUinput_struct@gui_native@@@Z  (Idle)
01:00036410 ?_mkKeyUp@gui_api@@SAXPBUunsigned16@@PAPAUinput_struct@gui_native@@@Z  (Idle)
01:00036444 ?_mkKeyInputStructure@gui_api@@SAXPBUunsigned16@@0IIPBUlParam@gui_native@@PAPAUinput_struct@5@@Z 
01:000364E8 ?anonymous$c0$1$sendinput/1np$gui_api@1@SAXPAUanonymous$c0$1$sendinput/1np$gui_apic_struct@1@PAXPAUinput_struct@gui_native@@@Z 
01:00036504 ?sendInput@gui_api@@SAXPAU?$__packedList_struct@Uinput@gui_native@@@@@Z  (Idle)
01:00036654 ?_getMenuItemRect@gui_api@@SAXPBUhwnd@@PBUhmenu@gui_native@@PBUpositive@@PAPAUrct_struct@vpiDomains@@@Z  (Idle)
01:000366B8 ?_setTimer@gui_api@@SAXPBUunsignedNative@@PBUpositive@@XAAU2@@Z  (Idle)
01:000366F0 ?setTimer@gui_api@@SAXPBUhwnd@@PBUunsignedNative@@PBUpositive@@X@Z  (Idle)
01:00036714 ?_setTimer@gui_api@@SAXPBUhwnd@@PBUunsignedNative@@PBUpositive@@XAAU3@@Z 
01:00036764 ?killTimer@gui_api@@SAXPBUhwnd@@PBUunsignedNative@@@Z  (Idle)
01:000367A4 ?_getIconInfo@gui_api@@SAXPBUhIcon@@PAPAUiconInfo_struct@gui_native@@@Z  (Idle)
01:00036850 ?destroyIcon@gui_api@@SAXPBUhIcon@@@Z  (Idle)
01:0003688C ?_enableWindow@gui_api@@SAXPBUhwnd@@PAUboolean_struct@_builtIn@@PAPAU34@@Z  (Idle)
01:000368C4 ?tryTranslateAccelerator@gui_api@@SAXPBUhwnd@@PBUhandle@@PAUmsg_struct@gui_native@@@Z  (Idle)
01:000368E4 ?isDialogMessage@gui_api@@SAXPBUhwnd@@PAUmsg_struct@gui_native@@@Z  (Idle)
01:00036904 ?_getForegroundWindow@gui_api@@SAXAAUhwnd@@@Z  (Idle)
01:00036918 ?tryGetMessageUpdate@gui_api@@SAXPAUmsg_struct@gui_native@@PBUhwnd@@II@Z  (Idle)
01:0003694C ?_tryGetMessage@gui_api@@SAXPBUhwnd@@IIPAPAUmsg_struct@gui_native@@@Z  (Idle)
01:0003698C gui_api_getParam 
01:0003699C ?getInteger16@gui_api@@SAXPBUintegerNative@@AAUinteger16@@1@Z  (Idle)
01:000369D4 ?getInteger16@gui_api@@SAXPBUwParam@@AAUinteger16@@1@Z  (Idle)
01:00036A0C ?getInteger16@gui_api@@SAXPBUlParam@@AAUinteger16@@1@Z 
01:00036A44 ?getInteger16@gui_api@@SAXPBUlResult@@AAUinteger16@@1@Z  (Idle)
01:00036A7C ?getUnsigned16@gui_api@@SAXPBUintegerNative@@AAUunsigned16@@1@Z 
01:00036AB8 ?getUnsigned16@gui_api@@SAXPBUwParam@@AAUunsigned16@@1@Z 
01:00036AF4 ?getUnsigned16@gui_api@@SAXPBUlParam@@AAUunsigned16@@1@Z 
01:00036B30 ?getUnsigned16@gui_api@@SAXPBUlResult@@AAUunsigned16@@1@Z 
01:00036B6C ?_createWindowEx@gui_api@@SAXIPBUatom@gui_native@@PB_WIHHHHPBUhwnd@@PBUhMenu@@PBUhModule@@PAXAAU4@@Z  (Idle)
01:00036C30 ?_createFontIndirect@gui_api@@SAXPBUfont@vpiDomains@@AAUhFont@@@Z  (Idle)
01:00036C80 ?_mkW@gui_api@@SAXIAAUwParam@@@Z 
01:00036C90 ?_mkL@gui_api@@SAXIAAUlParam@@@Z 
01:00036CA0 ?_mkR@gui_api@@SAXIAAUlResult@@@Z  (Idle)
--- From 'Obj\vpidomains.97964869.obj'
01:00036CB0 ?_toFont_logfont@vpiDomains@@SAXPAUlogfont_struct@gui_native@@AAU4@@Z  (Idle)
01:00036D58 ?_fromFont_logfont@vpiDomains@@SAXPBU2@PAPAUlogfont_struct@gui_native@@@Z  (Idle)
--- From 'Obj\exception.311FF4B8.obj'
01:00036D70 _runtimeExceptionRaiser 
01:00036EE4 ?_exceptionFromExceptionCode@runtime_exception@@SAXIPAPAUexception_struct@core@@@Z 
01:00036F54 ?_exceptionFromErrorCode@runtime_exception@@SAXIPAPAUexception_struct@core@@@Z 
01:000376C4 ?raise_externalError_explicit@exception_exception@@SAXPAUprogramPoint_struct@core@@PBUerrorCode@programControl@@PAU?$__packedList_struct@UnamedValue@@@@@Z  (Idle)
01:00037734 ?_tryGetDescriptor@exception@@SAXPBUtraceId@@PAUexception_struct@core@@PAPAUdescriptor_struct@1@@Z  (Idle)
01:000377C4 ?findException@exception@@SAXPBUtraceId@@PAU?$__packedList_struct@U1@@@@Z  (Idle)
01:00037824 ?_getDescriptor_nd@exception@@SAXPBUtraceId@@PAPAUdescriptor_struct@1@@Z 
01:0003784C ?_getDescriptorChain_nd@exception@@SAXQAVerrorDescriptorInformation@@@PAPAUdescriptor_struct@1@@Z 
01:000378A4 ?_getDescriptorChain1_nd@exception@@SAXQAVerrorDescriptorInformation@@@PAPAUdescriptor_struct@1@@Z 
01:00037984 ?_getDescriptorChainFromPacked_nd@exception@@SAXPAU?$__packedList_struct@UnamedValue@@@@PAPAUdescriptor_struct@1@@Z 
01:00037A24 ?_getTraceInfo@exception@@SAXPBUtraceId@@PAPAUtraceInfo_struct@1@@Z 
01:00037B20 ?_getStackInfo_nd@exception@@SAXQAVtrapInformationObject@@@PAPAUlineInfo_struct@1@@Z 
01:00037C5C ?_getModuleHandleByAddress@exception@@SAXPAXAAUhModule@@@Z  (Idle)
01:00037CAC ?_getModuleNameByAddress@exception@@SAXPAXPAPB_W@Z  (Idle)
01:00037D04 ?_tryGetLineInfo@exception@@SAXPAXPAPAUlineInfo_struct@1@@Z 
01:00037DB4 ?_tryGetExtraInfo@exception@@SAXPAUdescriptor_struct@1@PB_WPAPAUvalue_struct@core@@@Z  (Idle)
01:00037DCC ?_searchInfoList@exception@@SAXPAU?$__packedList_struct@UnamedValue@@@@PB_WPAPAUvalue_struct@core@@@Z 
01:00037E30 ?_getErrorCode@exception@@SAXPBUtraceId@@PAI@Z 
01:00037E78 ?_tryGetErrorDescriptorInformation@exception@@SAXPBUtraceId@@PAPAVerrorDescriptorInformation@@@@Z 
01:00037EA0 ?_tryGetErrorDescriptorInformation1@exception@@SAXQAVtrapInformationObject@@@PAPAVerrorDescriptorInformation@@@@Z 
01:00037EC4 ?_getTrapInformationObject@exception@@SAXPBUtraceId@@PAPAVtrapInformationObject@@@@Z  (Idle)
01:00037F94 ?_tryGetTrapInformationObject@exception@@SAXPBUtraceId@@PAPAVtrapInformationObject@@@@Z 
01:00038034 ?raiseDetailed_explicit@exception@@SAXPAUprogramPoint_struct@core@@PAUexception_struct@3@PAU?$__packedList_struct@UnamedValue@@@@@Z 
--- From 'Obj\stream.99E3A2B3.obj'
01:00038050 ?raise_explicit@exception@@SAXPAUprogramPoint_struct@core@@PAUexception_struct@3@@Z 
--- From 'Obj\filesystem_api.EE6511E1.obj'
01:00038068 ?raise_explicit@exception@@SAXPAUprogramPoint_struct@core@@PAUexception_struct@3@PAU?$__packedList_struct@UnamedValue@@@@@Z 
--- From 'Obj\stream.99E3A2B3.obj'
01:000381A8 ?raise_error_explicit@exception@@SAXPAUprogramPoint_struct@core@@@Z 
--- From 'Obj\exception.311FF4B8.obj'
01:00038228 ?raise_exception_explicit@exception@@SAXPAUprogramPoint_struct@core@@PAUexception_struct@3@@Z  (Idle)
01:000382A8 ?raise_user_explicit@exception@@SAXPAUprogramPoint_struct@core@@PB_W@Z  (Idle)
01:000382C0 ?raise_user_explicit@exception@@SAXPAUprogramPoint_struct@core@@PB_WPAU?$__packedList_struct@UnamedValue@@@@@Z 
01:000382E0 ?raise_user_explicit@exception@@SAXPAUprogramPoint_struct@core@@PAUexception_struct@3@PB_WPAU?$__packedList_struct@UnamedValue@@@@@Z 
01:00038350 ?raise_definiteUser_explicit@exception@@SAXPAUprogramPoint_struct@core@@PB_W@Z  (Idle)
01:00038368 ?raise_definiteUser_explicit@exception@@SAXPAUprogramPoint_struct@core@@PB_WPAU?$__packedList_struct@UnamedValue@@@@@Z 
--- From 'Obj\filesystem_api.EE6511E1.obj'
01:00038388 ?raise_definiteUser_explicit@exception@@SAXPAUprogramPoint_struct@core@@PAUexception_struct@3@PB_WPAU?$__packedList_struct@UnamedValue@@@@@Z 
--- From 'Obj\exception.311FF4B8.obj'
01:0003840C ?raise_packed_explicit@exception@@SAXPAUprogramPoint_struct@core@@PAUtraceInfo_struct@1@@Z  (Idle)
01:000384F0 ?raise_errorf_explicit@exception@@SAXPAUprogramPoint_struct@core@@PB_W@Z 
01:000385B4 ?raise_couldNotCreate_explicit@exception@@SAXPAUprogramPoint_struct@core@@PAU?$__packedList_struct@UnamedValue@@@@@Z  (Idle)
01:000385D0 ?raise_removeListener_explicit@exception@@SAXPAUprogramPoint_struct@core@@PB_W@Z  (Idle)
--- From 'Obj\filesystem_api.EE6511E1.obj'
01:00038644 ?raise_nativeCallException_explicit@exception@@SAXPAUprogramPoint_struct@core@@PB_WPBUhResult@@PAU?$__packedList_struct@UnamedValue@@@@@Z 
--- From 'Obj\multithread_api.53CE32BC.obj'
01:00038678 ?raise_nativeCallException_explicit@exception@@SAXPAUprogramPoint_struct@core@@PB_WPBUhResult@@1PAU?$__packedList_struct@UnamedValue@@@@@Z 
--- From 'Obj\exception.311FF4B8.obj'
01:00038818 ?raise_unsupportedPredicate_explicit@exception@@SAXPAUprogramPoint_struct@core@@@Z 
01:00038830 ?raise_overloadingExpected_explicit@exception@@SAXPAUprogramPoint_struct@core@@@Z  (Idle)
01:00038848 ?continueDetailed_explicit@exception@@SAXPAUprogramPoint_struct@core@@PBUtraceId@@PAUexception_struct@3@@Z  (Idle)
01:00038864 ?continueDetailed_explicit@exception@@SAXPAUprogramPoint_struct@core@@PBUtraceId@@PAUexception_struct@3@PAU?$__packedList_struct@UnamedValue@@@@@Z  (Idle)
01:00038880 ?continue_explicit@exception@@SAXPAUprogramPoint_struct@core@@PBUtraceId@@PAUexception_struct@3@PAU?$__packedList_struct@UnamedValue@@@@@Z 
01:000388B0 ?continue1_explicit@exception@@SAXPAUprogrampoint_struct@core@@QAVtrapInformationObject@@@PAUexception_struct@3@PAU?$__packedList_struct@UnamedValue@@@@@Z 
01:00038A2C ?continue_exceptionInListener_explicit@exception@@SAXPAUprogramPoint_struct@core@@PBUtraceId@@PB_W@Z  (Idle)
--- From 'Obj\console.22208CC2.obj'
01:00038AA0 ?continue_unknown_explicit@exception@@SAXPAUprogramPoint_struct@core@@PBUtraceId@@@Z 
--- From 'Obj\exception.311FF4B8.obj'
01:00038B24 ?continue_user_explicit@exception@@SAXPAUprogramPoint_struct@core@@PBUtraceId@@PB_W@Z  (Idle)
01:00038B40 ?continue_user_explicit@exception@@SAXPAUprogramPoint_struct@core@@PBUtraceId@@PB_WPAU?$__packedList_struct@UnamedValue@@@@@Z 
01:00038B64 ?continue_user_explicit@exception@@SAXPAUprogramPoint_struct@core@@PBUtraceId@@PAUexception_struct@3@PB_WPAU?$__packedList_struct@UnamedValue@@@@@Z 
01:00038BD8 ?continue_definiteUser_explicit@exception@@SAXPAUprogramPoint_struct@core@@PBUtraceId@@PB_W@Z  (Idle)
01:00038BF4 ?continue_definiteUser_explicit@exception@@SAXPAUprogramPoint_struct@core@@PBUtraceId@@PB_WPAU?$__packedList_struct@UnamedValue@@@@@Z 
01:00038C18 ?continue_definiteUser_explicit@exception@@SAXPAUprogramPoint_struct@core@@PBUtraceId@@PAUexception_struct@3@PB_WPAU?$__packedList_struct@UnamedValue@@@@@Z 
01:00038CA0 ?isDefiniteUserError@exception@@SAXPBUtraceId@@@Z  (Idle)
--- From 'Obj\filesystem_api.EE6511E1.obj'
01:00038CDC ?_getLastErrorDescription@exception@@SAXPBUhResult@@PAPB_W@Z 
--- From 'Obj\exception.311FF4B8.obj'
01:00038D18 ?new@errorDescriptorInformation@@SAXQAV1@@PAUprogramPoint_struct@core@@PAUexception_struct@4@PAUkind_struct@exception@@PAU?$__packedList_struct@UnamedValue@@@@PAPBUgmtTimeValue@@PBUthreadId@multiThread_native@@@Z  (Idle)
01:00038DA0 ?gmtTimeFormatted@errorDescriptorInformation@@SGPB_WQAV1@@@Z 
01:00038DD0 ?_tryGetContinueException@errorDescriptorInformation@@SAXQAV1@@PAPAV1@@@Z 
01:00038DF4 ?setContinueException@errorDescriptorInformation@@SAXQAV1@@0@Z 
01:00038E1C ?_create@errorDescriptorInformation@@SAXPAUprogramPoint_struct@core@@PAUexception_struct@3@PAUkind_struct@exception@@PAU?$__packedList_struct@UnamedValue@@@@PAPAV1@@@Z 
01:00038E60 ?exceptionDescription@errorDescriptorInformation@@SGPB_WQAV1@@@Z 
01:00038E80 ?_formatDateTime@errorDescriptorInformation@@SAXPAPBUgmtTimeValue@core@@PAPB_W@Z 
01:00038F0C ?_new@errorDescriptorInformation@@SAXPAUprogramPoint_struct@core@@PAUexception_struct@3@PAUkind_struct@exception@@PAU?$__packedList_struct@UnamedValue@@@@PAPBUgmtTimeValue@@PBUthreadId@multiThread_native@@PAPAV1@@@Z 
01:00038F44 ?exception@errorDescriptorInformation@@SGPAUexception_struct@core@@QAV1@@@Z 
01:00038F50 ?programPointDescriptor@errorDescriptorInformation@@SGPAUprogramPointDescriptor_struct@exception@@QAV1@@@Z 
01:00038F5C ?kind@errorDescriptorInformation@@SGPAUkind_struct@exception@@QAV1@@@Z 
01:00038F68 ?extraInfo@errorDescriptorInformation@@SGXQAV1@@PAU?$__packedList_struct@UnamedValue@@@@@Z 
01:00038F78 ?extraInfo@errorDescriptorInformation@@SGPAU?$__packedList_struct@UnamedValue@@@@QAV1@@@Z 
01:00038F84 ?_gmtTime@errorDescriptorInformation@@SAXQAV1@@PAAAUgmtTimeValue@@@Z 
01:00038F98 ?threadId@errorDescriptorInformation@@SGPBU0multiThread_native@@QAV1@@@Z 
01:00038FAC errorDescriptorInformation?_initObject@@@QAGXQAV1@H@Z 
01:00038FC0 ?@create_object@errorDescriptorInformation@@SGQAV1@@XZ 
01:00038FDC errorDescriptorInformation?_InternalFinalizer@@@QAGXQAV1@@Z 
--- From 'Obj\programcontrol.D3F4CEF5.obj'
01:00038FF0 ?_setRuntimeExceptionRaiser@programControl@@SAXXPAX@Z 
01:0003902C ?setRuntimeExceptionRaiser@programControl@@SAXXPAX@Z  (Idle)
--- From 'Obj\multithread_api.53CE32BC.obj'
01:00039030 _Wow64GetThreadSelectorEntry@12 
01:00039054 _GetThreadId@4  (Idle)
01:00039078 ?_createEvent@multiThread_api@@SAXPB_WPAUboolean_struct@_builtIn@@1AAUsyncHandle@windowsAPI@@@Z  (Idle)
01:0003918C ?_openEvent@multiThread_api@@SAXPB_WAAUsyncHandle@windowsAPI@@@Z  (Idle)
01:000391D0 ?setEvent@multiThread_api@@SAXPBUsyncHandle@windowsAPI@@@Z  (Idle)
01:00039264 ?error@multiThread_api@@SAXPBUsyncHandle@windowsAPI@@PB_W@Z  (Idle)
01:000392E0 ?resetEvent@multiThread_api@@SAXPBUsyncHandle@windowsAPI@@@Z  (Idle)
01:00039308 ?pulseEvent@multiThread_api@@SAXPBUsyncHandle@windowsAPI@@@Z  (Idle)
01:0003939C ?_createMutex@multiThread_api@@SAXPB_WPAUboolean_struct@_builtIn@@AAUsyncHandle@windowsAPI@@@Z  (Idle)
01:00039448 ?_openMutex@multiThread_api@@SAXPB_WAAUsyncHandle@windowsAPI@@@Z  (Idle)
01:0003948C ?releaseMutex@multiThread_api@@SAXPBUsyncHandle@windowsAPI@@@Z  (Idle)
01:000394B4 ?_createSemaphore@multiThread_api@@SAXPB_WIIAAUsyncHandle@windowsAPI@@@Z  (Idle)
01:000395C0 ?_openSemaphore@multiThread_api@@SAXPB_WAAUsyncHandle@windowsAPI@@@Z  (Idle)
01:00039604 ?_releaseSemaphore@multiThread_api@@SAXPBUsyncHandle@windowsAPI@@IPAI@Z  (Idle)
01:000396F0 ?_createWaitableTimer@multiThread_api@@SAXPB_WPAUboolean_struct@_builtIn@@AAUsyncHandle@windowsAPI@@@Z  (Idle)
01:000397B0 ?_openWaitableTimer@multiThread_api@@SAXPB_WAAUsyncHandle@windowsAPI@@@Z  (Idle)
01:000397F4 ?setWaitableTimer@multiThread_api@@SAXPBUsyncHandle@windowsAPI@@PAPBUtimeIntervalValue@@HPAUboolean_struct@_builtIn@@@Z  (Idle)
01:00039814 ?setWaitableTimer@multiThread_api@@SAXPBUsyncHandle@windowsAPI@@PAPBUtimeIntervalValue@@HXPAXPAUboolean_struct@_builtIn@@@Z 
01:000399C0 ?cancelWaitableTimer@multiThread_api@@SAXPBUsyncHandle@windowsAPI@@@Z  (Idle)
01:000399E8 ?isWow64Process@multiThread_api@@SAXPBUprocessHandle@windowsAPI@@@Z 
01:00039A9C ?dummyWow64Func@multiThread_api@@SGPBUbooleanInt@@PBUhandle@@AAU2@@Z 
01:00039AB8 ?_handlingNullString@multiThread_api@@SAXPB_WPAPB_W@Z  (Idle)
01:00039AFC ?checkHandle@multiThread_api@@SAXPBUsyncHandle@windowsAPI@@PB_W1PAU?$__packedList_struct@UnamedValue@@@@@Z 
01:00039B94 ?checkAlreadyExist@multiThread_api@@SAXPBUhandle@@PB_W@Z 
01:00039C5C ?getThreadContext@multiThread_api@@SAXPBUthreadHandle@multiThread_native@@PAX@Z  (Idle)
01:00039CF0 ?setThreadContext@multiThread_api@@SAXPBUthreadHandle@multiThread_native@@PAX@Z  (Idle)
01:00039D84 ?_getThreadSelectorEntry@multiThread_api@@SAXPBUthreadHandle@multiThread_native@@IPAPAUselectorEntry_struct@3@@Z  (Idle)
01:00039E88 ?_wow64GetThreadSelectorEntry@multiThread_api@@SAXPBUthreadHandle@multiThread_native@@IPAPAUselectorEntry_struct@3@@Z  (Idle)
01:00039F8C ?_mkInheritable@multiThread_api@@SAXPBUhandle@@AAU2@@Z  (Idle)
01:00039FA8 ?_mkInheritable@multiThread_api@@SAXPBUhandle@@PAUboolean_struct@_builtIn@@AAU2@@Z 
01:00039FE4 ?setProcessAffinityMask@multiThread_api@@SAXPBUunsignedNative@@@Z  (Idle)
01:00039FFC ?setProcessAffinityMask@multiThread_api@@SAXPBUunsignedNative@@PBUprocessHandle@windowsAPI@@@Z 
--- From 'Obj\windowsapi.9B3D04D6.obj'
01:0003A040 ?_toMsStringSeq@windowsAPI@@SAXPAU?$__packedList_struct@Ustring@@@@AAUmsStringSeq@@@Z  (Idle)
01:0003A088 ?_totalLength@windowsAPI@@SAXPAU?$__packedList_struct@Ustring@@@@PBUcharCount@core@@AAU34@@Z 
01:0003A0F4 ?fill@windowsAPI@@SAXPAU?$__packedList_struct@Ustring@@@@PBUmsStringSeq@@@Z 
01:0003A19C ?_fromMsStringSeq@windowsAPI@@SAXPBUmsStringSeq@@PAPAU?$__packedList_struct@Ustring@@@@@Z  (Idle)
01:0003A214 ?_getString_nd@windowsAPI@@SAXPBUmsStringSeq@@PAPB_W@Z 
--- From 'Obj\console.22208CC2.obj'
01:0003A2F0 ?handle@outputStream_console@@SGPBU0@QAV1@@@Z 
01:0003A334 ?newCurrent@outputStream_console@@SAXQAV1@@I@Z  (Idle)
01:0003A390 ?new@outputStream_console@@SAXQAV1@@I@Z 
01:0003A400 ?write@outputStream_console@@SAXQAVoutputStream@@@@Z 
01:0003A458 ?writeQuoted@outputStream_console@@SAXQAVoutputStream@@@@Z 
01:0003A4B0 ?writef@outputStream_console@@SAXQAVoutputStream@@@PB_W@Z 
01:0003A50C ?nl@outputStream_console@@SAXQAVoutputStream@@@@Z 
01:0003A540 ?save@outputStream_console@@SAXQAVoutputStream@@@PBUfactDB@@@Z 
01:0003A598 ?writeBytes@outputStream_console@@SAXQAVoutputStream@@@PAXPBUbyteCount@@@Z 
01:0003A5F4 ?errorHandler@outputStream_console@@SAXQAV1@@PBUtraceId@exception@@@Z 
01:0003A630 ?getCRLFconversion@outputStream_console@@SGPAUboolean_struct@_builtIn@@QAVstream@@@@Z 
01:0003A660 ?setCRLFconversion@outputStream_console@@SGXQAVstream@@@PAUboolean_struct@_builtIn@@@Z 
01:0003A6B4 ?bufferFullCB@outputStream_console@@SAXQAV1@@PAPAXAAUbyteCount@@@Z  (Idle)
01:0003A734 ?convertLF2CRLF_ifNeeded@outputStream_console@@SAXQAV1@@PAXPBUbyteCount@@PAPAXAAU3@@Z 
01:0003A790 ?writeToStdDevice@outputStream_console@@SAXPAUmode_struct@stream@@PBUfileHandle@@PAXPBUbyteCount@@@Z 
01:0003A824 ?convert_ifAnsi@outputStream_console@@SAXPAUmode_struct@stream@@PAXPBUbyteCount@@PAPAXAAU4@@Z 
01:0003A8DC ?setPosition@outputStream_console@@SGXQAVstream@@@PBUfileSize@fileSystem_api@@@Z 
01:0003A8EC ?getPosition@outputStream_console@@SGPBUfileSize@fileSystem_api@@QAVstream@@@@Z 
01:0003A904 ?close@outputStream_console@@SGXQAVstream@@@@Z 
01:0003A914 ?getBuffer@outputStream_console@@SGXQAVbufferSupport@@@PAPAXAAUbyteCount@@@Z 
01:0003A938 ?getBufferLocked@outputStream_console@@SGXQAVbufferSupport@@@PAPAXAAUbyteCount@@@Z 
01:0003A954 ?_new@outputStream_console@@SAXIPAPAVoutputStream@@@@Z  (Idle)
01:0003A97C ?_newCurrent@outputStream_console@@SAXIPAPAVoutputStream@@@@Z  (Idle)
01:0003A9A4 ?_object_facts_initializer@outputStream_console@@SGXQAV1@@@Z 
01:0003A9BC ?new@inputStream_console@@SAXQAV1@@@Z  (Idle)
01:0003AA40 ?getCRLFconversion@inputStream_console@@SGPAUboolean_struct@_builtIn@@QAVstream@@@@Z 
01:0003AA70 ?setCRLFconversion@inputStream_console@@SGXQAVstream@@@PAUboolean_struct@_builtIn@@@Z 
01:0003AAC4 ?setMode@inputStream_console@@SGXQAVstream@@@PAUmode_struct@2@@Z 
01:0003AB70 ?exTextBufferCB@inputStream_console@@SAXQAV1@@PAPAXAAUbyteCount@@@Z  (Idle)
01:0003ABCC ?exTextBufferCBLock@inputStream_console@@SAXQAV1@@PAPAXAAUbyteCount@@@Z  (Idle)
01:0003AC20 ?handlingBufferLastChar@inputStream_console@@SAXQAV1@@PBUbyteCount@@PAPAXAAU3@@Z  (Idle)
01:0003AC64 ?converCRLF2LF_ifNeeded@inputStream_console@@SAXQAV1@@PBUbyteCount@@PAPAXAAU3@@Z 
01:0003ACE4 ?_readFromStdIn@inputStream_console@@SAXQAV1@@PAUmode_struct@stream@@PBUfileHandle@@AAUbyteCount@@@Z 
01:0003AE04 ?_readFromFile@inputStream_console@@SAXPBUfileHandle@@PAXPBUbyteCount@@AAU3@@Z 
01:0003AE54 ?setPosition@inputStream_console@@SGXQAVstream@@@PBUfileSize@fileSystem_api@@@Z 
01:0003AE64 ?getPosition@inputStream_console@@SGPBUfileSize@fileSystem_api@@QAVstream@@@@Z 
01:0003AE7C ?close@inputStream_console@@SGXQAVstream@@@@Z 
01:0003AEB0 ?getBuffer@inputStream_console@@SGXQAVbufferSupport@@@PAPAXAAUbyteCount@@@Z 
01:0003AED4 ?getBufferLocked@inputStream_console@@SGXQAVbufferSupport@@@PAPAXAAUbyteCount@@@Z 
01:0003AEF8 ?_new@inputStream_console@@SAXPAPAVinputStream@@@@Z  (Idle)
01:0003AF20 ?_object_facts_initializer@inputStream_console@@SGXQAV1@@@Z 
01:0003AF40 ?_readChar@console@@SAXPA_W@Z  (Idle)
01:0003AF74 ?_readLine@console@@SAXPAPB_W@Z  (Idle)
01:0003AFA8 ?_read@console@@SAXQAVrTypeLibrary@TypeLibraries@RunTime@VIP@@PAPAX@Z  (Idle)
01:0003AFE8 ?write@console@@SAXXZ  (Idle)
01:0003B01C ?writef@console@@SAXPB_W@Z  (Idle)
01:0003B05C ?nl@console@@SAXXZ  (Idle)
01:0003B084 ?isModeLine@console@@SAXXZ  (Idle)
01:0003B0B0 ?setModeLine@console@@SAXPAUboolean_struct@_builtIn@@@Z  (Idle)
01:0003B0F0 ?isModeEcho@console@@SAXXZ  (Idle)
01:0003B11C ?setModeEcho@console@@SAXPAUboolean_struct@_builtIn@@@Z  (Idle)
01:0003B15C ?isModeProcessed@console@@SAXXZ  (Idle)
01:0003B1A8 ?setModeProcessed@console@@SAXPAUboolean_struct@_builtIn@@@Z  (Idle)
01:0003B1FC ?isModeWrap@console@@SAXXZ  (Idle)
01:0003B228 ?setModeWrap@console@@SAXPAUboolean_struct@_builtIn@@@Z  (Idle)
01:0003B258 ?checkConsoleMode@console@@SAXPBUfileHandle@@I@Z 
01:0003B294 ?setConsoleMode@console@@SAXPAUboolean_struct@_builtIn@@PBUfileHandle@@I@Z 
01:0003B2FC ?_toApiMode@console@@SAXPAUboolean_struct@_builtIn@@IIPAI@Z 
01:0003B344 ?clearInput@console@@SAXXZ  (Idle)
01:0003B3A8 ?clearOutput@console@@SAXXZ  (Idle)
01:0003B468 ?_getLocation@console@@SAXPAPAUcoord_struct@console_native@@@Z  (Idle)
01:0003B490 ?setLocation@console@@SAXPAUcoord_struct@console_native@@@Z 
01:0003B4E4 ?_getConsoleInputStream@console@@SAXPAPAVinputStream@@@@Z 
01:0003B554 ?_getConsoleOutputStream@console@@SAXPAPAVoutputStream@@@@Z 
01:0003B5C8 ?_getErrorStream@console@@SAXPAPAVoutputStream@@@@Z  (Idle)
01:0003B63C ?close@console@@SAXXZ  (Idle)
01:0003B674 ?_getConsoleWidth@console@@SAXAAUunsigned16@@@Z  (Idle)
01:0003B698 ?_getConsoleTitle@console@@SAXPAPB_W@Z  (Idle)
01:0003B704 ?setConsoleTitle@console@@SAXPB_W@Z  (Idle)
01:0003B740 ?_getConsoleMode@console@@SAXPBUfileHandle@@PAI@Z 
01:0003B780 ?_getConsoleScreenBufferInfo@console@@SAXPAPAUconsoleScreenBufferInfo_struct@console_native@@@Z 
01:0003B7F0 ?setTextAttribute@console@@SAXI@Z  (Idle)
01:0003B804 ?setTextAttribute@console@@SAXII@Z 
01:0003B834 ?_getTextAttribute@console@@SAXPAI@Z  (Idle)
01:0003B88C ?init@console@@SAXPAUmode_struct@stream@@@Z  (Idle)
01:0003B8F0 ?init@console@@SAXXZ  (Idle)
01:0003B900 ?init8@console@@SAXXZ  (Idle)
01:0003B914 ?init8@console@@SAXPBUcodePage@@@Z 
01:0003B93C ?initUtf8@console@@SAXXZ  (Idle)
01:0003B94C ?run@console@@SAXX@Z  (Idle)
01:0003B960 ?run@console@@SAXXPAUmode_struct@stream@@@Z 
01:0003B974 ?anonymous$c0$1$run/3np$console@1@SAXPAUanonymous$c0$1$run/3np$consolec_struct@1@@Z 
01:0003B9A0 ?run@console@@SAXXPAUmode_struct@stream@@PAUrunMode_struct@exe_api@@@Z 
01:0003B9E4 ?run8@console@@SAXX@Z  (Idle)
01:0003B9F8 ?run8@console@@SAXXPBUcodePage@@@Z 
--- From 'Obj\main.A22FE9BF.obj'
01:0003BA20 ?runUtf8@console@@SAXX@Z 
--- From 'Obj\console.22208CC2.obj'
01:0003BA34 ?runInner@console@@SAXXPAUmode_struct@stream@@@Z 
01:0003BAD0 ?codePage@console@@SGXPBU0@@Z  (Idle)
01:0003BAFC ?mode@console@@SGXPAUmode_struct@stream@@@Z 
01:0003BBA0 ?checkConsolePresence@console@@SAXXZ 
01:0003BBF8 ?_readEvents@console@@SAXPAPAU?$__packedList_struct@Uevent@@@@@Z  (Idle)
01:0003BDB8 ?_makeEvent@console@@SAXIPAXPAPAUevent_struct@1@@Z  (Idle)
01:0003C150 ?_getEventQueue@console@@SAXPAPAU?$__packedList_struct@Uevent@@@@@Z  (Idle)
01:0003C288 ?_getEvent_nd@console@@SAXPAXIIPAPAUevent_struct@1@@Z 
01:0003C560 outputStream_console?_initObject@@@QAGXQAV1@H@Z 
01:0003C594 ?@create_object@outputStream_console@@SGQAV1@@XZ 
01:0003C5B0 outputStream_console?_InternalFinalizer@@@QAGXQAV1@@Z 
01:0003C84C inputStream_console?_initObject@@@QAGXQAV1@H@Z 
01:0003C880 ?@create_object@inputStream_console@@SGQAV1@@XZ 
01:0003C89C inputStream_console?_InternalFinalizer@@@QAGXQAV1@@Z 
--- From 'Obj\core.610F2EE0.obj'
01:0003C8B0 ?_mapSome@core@@SAXQAVrTypeLibrary@TypeLibraries@RunTime@VIP@@0PAUoptional_struct@1@PAXXPAPAU21@PAPAX@Z  (Idle)
01:0003C908 ?_tryGetSome@core@@SAXQAVrTypeLibrary@TypeLibraries@RunTime@VIP@@PAUoptional_struct@1@PAXPAPAX@Z  (Idle)
01:0003C93C ?_getSome@core@@SAXQAVrTypeLibrary@TypeLibraries@RunTime@VIP@@PAUoptional_struct@1@PAXPAXPAPAX@Z 
01:0003C960 ?_makeOptional@core@@SAXQAVrTypeLibrary@TypeLibraries@RunTime@VIP@@XPAPAUoptional_struct@1@PAPAX@Z  (Idle)
01:0003C9D4 ?_toUnsigned64@core@@SAXPAUunsigned64_struct_struct@1@PAPA_K@Z 
01:0003C9E0 ?_fromUnsigned64@core@@SAXPA_KPAPAUunsigned64_struct_struct@1@@Z 
01:0003C9F0 ?_toInteger64@core@@SAXPAUinteger64_struct_struct@1@PAPA_J@Z 
01:0003C9FC ?_fromInteger64@core@@SAXPA_JPAPAUinteger64_struct_struct@1@@Z 
01:0003CA0C ?_value2String@core@@SAXPAUvalue_struct@1@PAPB_W@Z 
01:0003CC88 ?nothing@core@@SAXXZ  (Idle)
--- From 'Obj\stream.99E3A2B3.obj'
01:0003CC90 ?raise_endOfStream_explicit@stream_exception@@SAXPAUprogramPoint_struct@core@@@Z 
01:0003CCA8 ?raise_notSupportedProperty_explicit@stream_exception@@SAXPAUprogramPoint_struct@core@@@Z 
01:0003CCC0 ?raise_noCRLFconversion_explicit@stream_exception@@SAXPAUprogramPoint_struct@core@@@Z 
01:0003CCD8 ?raise_wrongMode_explicit@stream_exception@@SAXPAUprogramPoint_struct@core@@PB_W@Z 
01:0003CD4C ?raise_noStream_explicit@stream_exception@@SAXPAUprogramPoint_struct@core@@@Z  (Idle)
01:0003CD64 ?_tryGetInputStream@stdioState@@SAXQAV1@@PAPAVinputStream@@@@Z 
01:0003CD9C ?_tryGetOutputStream@stdioState@@SAXQAV1@@PAPAVoutputStream@@@@Z 
01:0003CDD4 ?_tryGetErrorStream@stdioState@@SAXQAV1@@PAPAVoutputStream@@@@Z 
01:0003CE0C ?setInputStream@stdioState@@SAXQAV1@@QAVinputStream@@@@Z 
01:0003CE20 ?_getInputStream@stdioState@@SAXQAV1@@PAPAVinputStream@@@@Z 
01:0003CE48 ?setOutputStream@stdioState@@SAXQAV1@@QAVoutputStream@@@@Z 
01:0003CE5C ?_getOutputStream@stdioState@@SAXQAV1@@PAPAVoutputStream@@@@Z 
01:0003CE84 ?setErrorStream@stdioState@@SAXQAV1@@QAVoutputStream@@@@Z 
01:0003CE98 ?_getErrorStream@stdioState@@SAXQAV1@@PAPAVoutputStream@@@@Z 
01:0003CEC0 ?new@stdioState@@SAXQAV1@@@Z  (Idle)
01:0003CEC8 ?_new@stdioState@@SAXPAPAV1@@@Z  (Idle)
01:0003CEEC ?_object_facts_initializer@stdioState@@SGXQAV1@@@Z 
01:0003CF0C ?inputStream@stdioState@@SGXQAV1@@QAV0@@@Z 
01:0003CF1C ?inputStream@stdioState@@SGQAV0@@QAV1@@@Z 
01:0003CF3C ?outputStream@stdioState@@SGXQAV1@@QAV0@@@Z 
01:0003CF4C ?outputStream@stdioState@@SGQAV0@@QAV1@@@Z 
01:0003CF6C ?errorStream@stdioState@@SGXQAV1@@QAVoutputStream@@@@Z 
01:0003CF7C ?errorStream@stdioState@@SGQAVoutputStream@@@QAV1@@@Z 
01:0003CF9C ?inputStream@stdio@@SGQAV0@@XZ 
01:0003CFBC ?inputStream@stdio@@SGXQAV0@@@Z 
01:0003CFDC ?_tryGetInputStream@stdio@@SAXPAPAVinputStream@@@@Z  (Idle)
01:0003D004 ?outputStream@stdio@@SGQAV0@@XZ 
01:0003D024 ?outputStream@stdio@@SGXQAV0@@@Z 
01:0003D048 ?_tryGetOutputStream@stdio@@SAXPAPAVoutputStream@@@@Z 
01:0003D070 ?errorStream@stdio@@SGQAVoutputStream@@@XZ 
01:0003D090 ?errorStream@stdio@@SGXQAVoutputStream@@@@Z 
01:0003D0B4 ?_tryGetErrorStream@stdio@@SAXPAPAVoutputStream@@@@Z 
01:0003D0DC ?write@stdio@@SAXXZ  (Idle)
01:0003D118 ?writef@stdio@@SAXPB_W@Z  (Idle)
01:0003D15C ?writeBytes@stdio@@SAXPAXPBUbyteCount@@@Z  (Idle)
01:0003D1A0 ?writeQuoted@stdio@@SAXXZ  (Idle)
01:0003D1DC ?nl@stdio@@SAXXZ  (Idle)
01:0003D208 ?save@stdio@@SAXPBUfactDB@@@Z  (Idle)
01:0003D244 ?flush@stdio@@SAXXZ  (Idle)
01:0003D270 ?write_error@stdio@@SAXXZ  (Idle)
01:0003D2AC ?writef_error@stdio@@SAXPB_W@Z  (Idle)
01:0003D2F0 ?writeBytes_error@stdio@@SAXPAXPBUbyteCount@@@Z  (Idle)
01:0003D334 ?writeQuoted_error@stdio@@SAXXZ  (Idle)
01:0003D370 ?nl_error@stdio@@SAXXZ  (Idle)
01:0003D39C ?save_error@stdio@@SAXPBUfactDB@@@Z  (Idle)
01:0003D3D8 ?flush_error@stdio@@SAXXZ  (Idle)
01:0003D404 ?_read@stdio@@SAXQAVrTypeLibrary@TypeLibraries@RunTime@VIP@@PAPAX@Z  (Idle)
01:0003D448 ?_readChar@stdio@@SAXPA_W@Z  (Idle)
01:0003D484 ?ungetChar@stdio@@SAXXZ  (Idle)
01:0003D4B0 ?_readLine@stdio@@SAXPAPB_W@Z  (Idle)
01:0003D4EC ?_readString@stdio@@SAXPBUcharCount@@PAPB_W@Z  (Idle)
01:0003D530 ?_readBytes@stdio@@SAXPBUbyteCount@@QAPAE@Z  (Idle)
01:0003D574 ?consult@stdio@@SAXPBUfactDB@@@Z  (Idle)
01:0003D5B0 ?endOfStream@stdio@@SAXXZ  (Idle)
01:0003D5DC ?_getOutputStreamPP_explicit@stdio@@SAXPAUprogramPoint_struct@core@@PAPAVoutputStream@@@@Z 
01:0003D620 ?_getErrorStreamPP_explicit@stdio@@SAXPAUprogramPoint_struct@core@@PAPAVoutputStream@@@@Z 
01:0003D664 ?_getInputStreamPP_explicit@stdio@@SAXPAUprogramPoint_struct@core@@PAPAVinputStream@@@@Z 
01:0003D6A8 ?setInputStream@stdio@@SAXQAVinputStream@@@@Z  (Idle)
01:0003D6B8 ?_getInputStream@stdio@@SAXPAPAVinputStream@@@@Z  (Idle)
01:0003D6CC ?setOutputStream@stdio@@SAXQAVoutputStream@@@@Z  (Idle)
01:0003D6DC ?_getOutputStream@stdio@@SAXPAPAVoutputStream@@@@Z  (Idle)
01:0003D6F0 ?setErrorStream@stdio@@SAXQAVoutputStream@@@@Z  (Idle)
01:0003D700 ?_getErrorStream@stdio@@SAXPAPAVoutputStream@@@@Z  (Idle)
01:0003D714 ?_class_facts_initializer@stdio@@SGXXZ 
01:0003D73C ?stdioState@stdio@@SGXQAV0@@@Z  (Idle)
01:0003D748 ?stdioState@stdio@@SGQAV0@@XZ  (Idle)
01:0003D750 ?new@outputStream_null@@SAXQAV1@@@Z  (Idle)
01:0003D758 ?getPosition@outputStream_null@@SGPBUfileSize@fileSystem_api@@QAVstream@@@@Z 
01:0003D770 ?setPosition@outputStream_null@@SGXQAVstream@@@PBUfileSize@fileSystem_api@@@Z 
01:0003D780 ?getCRLFconversion@outputStream_null@@SGPAUboolean_struct@_builtIn@@QAVstream@@@@Z 
01:0003D798 ?setCRLFconversion@outputStream_null@@SGXQAVstream@@@PAUboolean_struct@_builtIn@@@Z 
01:0003D7A8 ?close@outputStream_null@@SGXQAVstream@@@@Z 
01:0003D7B8 ?setMode@outputStream_null@@SGXQAVstream@@@PAUmode_struct@2@@Z 
01:0003D7C8 ?getMode@outputStream_null@@SGPAUmode_struct@stream@@QAV3@@@Z 
01:0003D7E0 ?write@outputStream_null@@SAXQAVoutputStream@@@@Z 
01:0003D7E8 ?writeQuoted@outputStream_null@@SAXQAVoutputStream@@@@Z 
01:0003D7F0 ?writeBytes@outputStream_null@@SAXQAVoutputStream@@@PAXPBUbyteCount@@@Z 
01:0003D7F8 ?writef@outputStream_null@@SAXQAVoutputStream@@@PB_W@Z 
01:0003D800 ?nl@outputStream_null@@SAXQAVoutputStream@@@@Z 
01:0003D808 ?save@outputStream_null@@SAXQAVoutputStream@@@PBUfactDB@@@Z 
01:0003D810 ?flush@outputStream_null@@SAXQAVoutputStream@@@@Z 
01:0003D818 ?allowNullPointers@outputStream_null@@SGPAUboolean_struct@_builtIn@@QAVstream@@@@Z 
01:0003D830 ?allowNullPointers@outputStream_null@@SGXQAVstream@@@PAUboolean_struct@_builtIn@@@Z 
01:0003D840 ?_new@outputStream_null@@SAXPAPAVoutputStream@@@@Z  (Idle)
01:0003D868 ?_class_facts_initializer@outputStream_null@@SGXXZ 
01:0003D88C ?null@outputStream_0@SGQAVoutputStream@@@XZ  (Idle)
01:0003D894 ?new@inputStream_null@@SAXQAV1@@@Z  (Idle)
01:0003D89C ?getPosition@inputStream_null@@SGPBUfileSize@fileSystem_api@@QAVstream@@@@Z 
01:0003D8B4 ?setPosition@inputStream_null@@SGXQAVstream@@@PBUfileSize@fileSystem_api@@@Z 
01:0003D8C4 ?getCRLFconversion@inputStream_null@@SGPAUboolean_struct@_builtIn@@QAVstream@@@@Z 
01:0003D8DC ?setCRLFconversion@inputStream_null@@SGXQAVstream@@@PAUboolean_struct@_builtIn@@@Z 
01:0003D8EC ?close@inputStream_null@@SGXQAVstream@@@@Z 
01:0003D8FC ?setMode@inputStream_null@@SGXQAVstream@@@PAUmode_struct@2@@Z 
01:0003D90C ?getMode@inputStream_null@@SGPAUmode_struct@stream@@QAV3@@@Z 
01:0003D924 ?_read@inputStream_null@@SAXQAVinputStream@@@QAVrTypeLibrary@TypeLibraries@RunTime@VIP@@PAPAX@Z 
01:0003D934 ?_readBytes@inputStream_null@@SAXQAVinputStream@@@PBUbyteCount@@QAPAE@Z 
01:0003D944 ?_readString@inputStream_null@@SAXQAVinputStream@@@PBUcharCount@@PAPB_W@Z 
01:0003D954 ?_readChar@inputStream_null@@SAXQAVinputStream@@@PA_W@Z 
01:0003D964 ?ungetChar@inputStream_null@@SAXQAVinputStream@@@@Z 
01:0003D974 ?_readLine@inputStream_null@@SAXQAVinputStream@@@PAPB_W@Z 
01:0003D984 ?_readLineCRLF@inputStream_null@@SAXQAVinputStream@@@PAPB_W@Z 
01:0003D994 ?consult@inputStream_null@@SAXQAVinputStream@@@PBUfactDB@@@Z 
01:0003D9A4 ?reconsult@inputStream_null@@SAXQAVinputStream@@@PBUfactDB@@@Z 
01:0003D9B4 ?endOfStream@inputStream_null@@SAXQAVinputStream@@@@Z 
01:0003D9BC ?repeatToEndOfStream@inputStream_null@@SAXQAVinputStream@@@@Z 
01:0003D9C8 ?exhausted@inputStream_null@@SAXXZ 
01:0003D9FC ?allowNullPointers@inputStream_null@@SGPAUboolean_struct@_builtIn@@QAVstream@@@@Z 
01:0003DA14 ?allowNullPointers@inputStream_null@@SGXQAVstream@@@PAUboolean_struct@_builtIn@@@Z 
01:0003DA24 ?_new@inputStream_null@@SAXPAPAVinputStream@@@@Z  (Idle)
01:0003DA4C ?_class_facts_initializer@inputStream_null@@SGXXZ 
01:0003DA70 ?null@inputStream_0@SGQAVinputStream@@@XZ  (Idle)
01:0003DA80 stdioState?_initObject@@@QAGXQAV1@H@Z 
01:0003DAA0 ?@create_object@stdioState@@SGQAV1@@XZ 
01:0003DABC stdioState?_InternalFinalizer@@@QAGXQAV1@@Z 
01:0003DAD0 outputStream_null?_initObject@@@QAGXQAV1@H@Z 
01:0003DAE0 ?@create_object@outputStream_null@@SGQAV1@@XZ 
01:0003DAFC outputStream_null?_InternalFinalizer@@@QAGXQAV1@@Z 
01:0003DB10 inputStream_null?_initObject@@@QAGXQAV1@H@Z 
01:0003DB20 ?@create_object@inputStream_null@@SGQAV1@@XZ 
01:0003DB3C inputStream_null?_InternalFinalizer@@@QAGXQAV1@@Z 
--- From 'Obj\console_api.5E6636FD.obj'
01:0003DB50 ?_getStdHandle@console_api@@SAXIAAUfileHandle@@@Z 
01:0003DB94 ?setStdHandle@console_api@@SAXIPBUfileHandle@@@Z  (Idle)
01:0003DBD4 ?addConsoleCtrlHandler@console_api@@SAXX@Z  (Idle)
01:0003DC14 ?removeConsoleCtrlHandler@console_api@@SAXX@Z  (Idle)
01:0003DC54 ?setConsoleCP@console_api@@SAXPBUcodePage@@@Z 
01:0003DC90 ?setConsoleOutputCP@console_api@@SAXPBUcodePage@@@Z 
--- From 'Obj\exe_api.F27809B9.obj'
01:0003DCD0 ?hInstance@exe_api@@SGPBUhModule@@XZ 
01:0003DCFC ?hInstanceExe@exe_api@@SGPBUhModule@@XZ 
01:0003DD14 ?_getModuleNameByAddress@exe_api@@SAXPBUhModule@core@@PAPB_W@Z 
01:0003DDD0 ?_isOSConsoleApplication@exe_api@@SAXPB_WPAPAUboolean_struct@_builtIn@@@Z  (Idle)
01:0003DFA0 ?run@exe_api@@SAXXPAUrunMode_struct@1@@Z 
01:0003E118 ?coInitialize@exe_api@@SAXPAU?$__packedList_struct@UcoInit@@@@@Z  (Idle)
01:0003E1B8 ?coUninitialize@exe_api@@SAXXZ  (Idle)
01:0003E1C4 ?_toCoInitFlag@exe_api@@SAXPAU?$__packedList_struct@UcoInit@@@@PAI@Z 
01:0003E220 ?_coInitMap@exe_api@@SAXPAUcoInit_struct@1@PAI@Z 
--- From '..\..\..\_intermediate\sourceVS\vipInit\Win32\ReleasePE\VIPDll.obj'
01:0003E260 _PROLOG_Goal 
--- From 'Obj\main.A22FE9BF.obj'
01:0003E27C ?run@main@@SAXXZ 
--- From 'Obj\filesystem_api.EE6511E1.obj'
01:0003E290 _GetFileInformationByHandleEx@16  (Idle)
01:0003E2B4 _GetFinalPathNameByHandleW@16 
01:0003E2D8 ?fileAttributeCorrespondence@fileSystem_api@@SAXPAUfileAttributeAtom_struct@1@PAI@Z  (Idle)
01:0003E358 ?_toApiAttributes@fileSystem_api@@SAXPAU?$__packedList_struct@UfileAttributeAtom@@@@PAI@Z 
01:0003E374 ?_toApiAttributes@fileSystem_api@@SAXPAU?$__packedList_struct@UfileAttributeAtom@@@@IPAI@Z 
01:0003E3D0 ?_fromApiAttributes@fileSystem_api@@SAXIPAPAU?$__packedList_struct@UfileAttributeAtom@@@@@Z 
01:0003E434 ?_convertToFileAttribute_nd@fileSystem_api@@SAXIPAPAUfileAttributeAtom_struct@1@@Z 
01:0003E474 ?_createFile@fileSystem_api@@SAXPB_WIPAUaccessPermit_struct@1@IPAU?$__packedList_struct@UfileAttributeAtom@@@@AAUfileHandle@@@Z 
01:0003E4B4 ?_toShareModeAPI@fileSystem_api@@SAXPAUaccessPermit_struct@1@PAI@Z 
01:0003E4F0 ?_createFile_flag@fileSystem_api@@SAXPB_WIIIIAAUfileHandle@@@Z 
01:0003E53C ?_getFileSize@fileSystem_api@@SAXPBUfileHandle@@PAAAUfileSize@@@Z 
01:0003E594 ?_setFilePointer@fileSystem_api@@SAXPBUfileHandle@@PA_JIPAAAUfileSize@@@Z 
01:0003E60C ?getVolumeInformation@fileSystem_api@@SAXPB_WPAPB_WPAI1@Z 
01:0003E6E0 ?raise_cannotCreate_explicit@fileSystem_api@@SAXPAUprogramPoint_struct@core@@PB_WPBUhResult@@@Z 
01:0003E8B4 ?raise_cannotGetFileSize_explicit@fileSystem_api@@SAXPAUprogramPoint_struct@core@@PBUfileHandle@@PBUhResult@@@Z 
01:0003E9E0 ?raise_cannotSetFilePointer_explicit@fileSystem_api@@SAXPAUprogramPoint_struct@core@@PBUfileHandle@@PA_JIPBUhResult@@@Z 
01:0003EBAC ?crlf_lf@fileSystem_api@@SAXPAXHPAUboolean_struct@_builtIn@@PAPAXAAUbyteCount@@PAPAU?$__packedList_struct@U4@@@PAPAU23@@Z 
01:0003EC30 ?prepareSearch@fileSystem_api@@SAXPAXHAAUbyteCount@@PAPAUboolean_struct@_builtIn@@@Z 
01:0003ECB4 ?searchCRLF@fileSystem_api@@SAXPAXPBUbyteCount@@1AAU2@PAPAU?$__packedList_struct@U2@@@3@Z 
01:0003ED9C ?_tryGetPositionOfCRLF@fileSystem_api@@SAXPAXHPBUbyteCount@@AAU2@@Z 
01:0003EE18 ?_convertCRLF_IfNeeded@fileSystem_api@@SAXPAUboolean_struct@_builtIn@@PAXPBUbyteCount@@PAU?$__packedList_struct@U4@@@2PAPAX@Z 
01:0003EF6C ?checkFirstPos@fileSystem_api@@SAXPBUbyteCount@@PAU?$__packedList_struct@U2@@@PAXPAPAX3PAPAU?$__packedList_struct@U2@@@@Z 
01:0003EFDC ?_mem_move@fileSystem_api@@SAXPAXPAXPBUbyteCount@@PAPAX@Z 
01:0003F004 ?_mem_copy@fileSystem_api@@SAXPAXPAXPBUbyteCount@@PAPAX@Z 
01:0003F02C ?convertCRLF_LF@fileSystem_api@@SAXXPAXPAXPBUbyteCount@@PAU?$__packedList_struct@U2@@@@Z 
01:0003F0C4 ?crlf_lf@fileSystem_api@@SAXPB_W@Z 
01:0003F0D8 ?do_CRLF_LF@fileSystem_api@@SAXPB_W0@Z 
01:0003F16C ?lf_crlf@fileSystem_api@@SAXPAXPBUbyteCountOptional@@PAPAXAAUbyteCount@@@Z 
01:0003F1E0 ?_getSize@fileSystem_api@@SAXPB_WPBUbyteCountOptional@@AAUbyteCount@@@Z 
01:0003F220 ?searchLineFeeds@fileSystem_api@@SAXPAXPBUbyteCount@@1AAU2@PAPAU?$__packedList_struct@U2@@@3@Z 
01:0003F2E0 ?_convertToCRLF_IfNeeded@fileSystem_api@@SAXPAXPBUbyteCount@@PAU?$__packedList_struct@U2@@@1PAPAX@Z 
01:0003F344 ?convertToCRLF@fileSystem_api@@SAXPAXPAXPBUbyteCount@@PAU?$__packedList_struct@U2@@@@Z 
01:0003F3E4 ?removeDirectory@fileSystem_api@@SAXPB_W@Z 
01:0003F480 ?createDirectory@fileSystem_api@@SAXPB_WPAUsecurity_Attributes_struct@windowsAPI@@@Z 
01:0003F520 ?moveFile@fileSystem_api@@SAXPB_W0@Z 
01:0003F614 ?setVolumeLabel@fileSystem_api@@SAXPB_W0@Z 
01:0003F708 ?getDiskFreeSpaceEx@fileSystem_api@@SAXPB_WPAAAUfileSize@@11@Z 
01:0003F800 ?_anonymous$c0$1$getcurrentdirectory/0nf$fileSystem_api@1@SAXPB_WPBUcharCount@@AAU2@@Z 
01:0003F818 ?_getCurrentDirectory@fileSystem_api@@SAXPAPB_W@Z 
01:0003F850 ?setCurrentDirectory@fileSystem_api@@SAXPB_W@Z 
01:0003F95C ?_anonymous$c0$1$getshortpathname/1nf$fileSystem_api@1@SAXPAUanonymous$c0$1$getshortpathname/1nf$fileSystem_apic_struct@1@PB_WPBUcharCount@@AAU4@@Z 
01:0003F980 ?_getShortPathName@fileSystem_api@@SAXPB_WPAPB_W@Z 
01:0003FA2C ?_anonymous$c0$1$getlongpathname/1nf$fileSystem_api@1@SAXPAUanonymous$c0$1$getlongpathname/1nf$fileSystem_apic_struct@1@PB_WPBUcharCount@@AAU4@@Z 
01:0003FA50 ?_getLongPathName@fileSystem_api@@SAXPB_WPAPB_W@Z 
01:0003FAFC ?_getFileAttributesEx@fileSystem_api@@SAXPB_WPAPAUfileAttributesInfo_struct@fileSystem_native@@@Z 
01:0003FC10 ?_anonymous$c0$1$gettemppath/0nf$fileSystem_api@1@SAXPB_WPBUcharCount@@AAU2@@Z 
01:0003FC28 ?_getTempPath@fileSystem_api@@SAXPAPB_W@Z 
01:0003FC60 ?findClose@fileSystem_api@@SAXPBUsearchHandle@fileSystem_native@@@Z 
01:0003FCA8 ?raise_nativeCallException_explicit@fileSystem_api@@SAXPAUprogramPoint_struct@core@@PBUhResult@@PAU?$__packedList_struct@UnamedValue@@@@@Z 
01:0003FCD4 ?_firstSizeThenOperation@fileSystem_api@@SAXPB_WPAU?$__packedList_struct@UnamedValue@@@@XPAPB_W@Z 
01:0003FD88 ?readFile@fileSystem_api@@SAXPBUfileHandle@@PAXPBUbyteCount@@AAU3@@Z 
01:0003FD9C ?readFile@fileSystem_api@@SAXPBUfileHandle@@PAXPBUbyteCount@@AAU3@PBUhResult@@@Z 
01:0003FDEC ?readFile_pipe@fileSystem_api@@SAXPBUfileHandle@@PAXPBUbyteCount@@AAU3@@Z  (Idle)
01:0003FE00 ?readFile_overlapped@fileSystem_api@@SAXPBUfileHandle@@PAXPBUbyteCount@@PAUoverlapped_struct@fileSystem_native@@@Z  (Idle)
01:0003FE14 ?readFile_overlapped@fileSystem_api@@SAXPBUfileHandle@@PAXPBUbyteCount@@PAUoverlapped_struct@fileSystem_native@@PBUhResult@@@Z 
01:0003FE6C ?writeFile@fileSystem_api@@SAXPBUfileHandle@@PAXPBUbyteCount@@AAU3@@Z 
01:0003FEB4 ?writeFile_overlapped@fileSystem_api@@SAXPBUfileHandle@@PAXPBUbyteCount@@PAUoverlapped_struct@fileSystem_native@@@Z  (Idle)
01:0003FEC8 ?writeFile_overlapped@fileSystem_api@@SAXPBUfileHandle@@PAXPBUbyteCount@@PAUoverlapped_struct@fileSystem_native@@PBUhResult@@@Z 
01:0003FF20 ?closeHandle@fileSystem_api@@SAXPBUhandle@@@Z 
01:0003FF5C ?closeHandle_robust@fileSystem_api@@SAXPBUhandle@@@Z  (Idle)
01:0003FF6C ?flushFileBuffers@fileSystem_api@@SAXPBUfileHandle@@@Z 
01:0003FFA8 ?_duplicateHandle@fileSystem_api@@SAXPBUprocessHandle@windowsAPI@@PBUhandle@@0IHIAAU4@@Z 
01:0003FFF8 ?tryGetOverlappedResult_wait@fileSystem_api@@SAXPBUfileHandle@@PAUoverlapped_struct@fileSystem_native@@AAUbyteCount@@@Z  (Idle)
01:00040018 ?tryGetOverlappedResult_noWait@fileSystem_api@@SAXPBUfileHandle@@PAUoverlapped_struct@fileSystem_native@@AAUbyteCount@@@Z  (Idle)
01:00040034 ?getOverlappedResult2@fileSystem_api@@SAXPBUfileHandle@@PAUoverlapped_struct@fileSystem_native@@AAUbyteCount@@PBUbooleanInt@@PBUhResult@@@Z 
01:00040084 ?_createIoCompletionPort@fileSystem_api@@SAXIAAUioCompletionPort@@@Z  (Idle)
01:000400B4 ?_createIoCompletionPort@fileSystem_api@@SAXIPBUhandle@@PAXAAUioCompletionPort@@@Z  (Idle)
01:000400EC ?attachIoCompletionPort@fileSystem_api@@SAXPBUioCompletionPort@@PBUhandle@@PAX@Z  (Idle)
01:00040110 ?_createIoCompletionPort2@fileSystem_api@@SAXPBUhandle@@PBUioCompletionPort@@PAXIAAU3@@Z 
01:00040190 ?tryGetQueuedCompletionStatus@fileSystem_api@@SAXPBUioCompletionPort@@AAUbyteCount@@PAPAXPAPAUoverlapped_struct@fileSystem_native@@I@Z  (Idle)
01:000401F4 ?getQueuedCompletionStatus@fileSystem_api@@SAXPBUioCompletionPort@@AAUbyteCount@@PAPAXPAPAUoverlapped_struct@fileSystem_native@@@Z  (Idle)
01:00040258 ?checkQueuedCompletionStatusException_explicit@fileSystem_api@@SAXPAUprogramPoint_struct@core@@PBUhResult@@PBUbyteCount@@PAXPAUoverlapped_struct@fileSystem_native@@@Z 
01:000403E0 ?_tryGetQueuedCompletionStatus_hResult@fileSystem_api@@SAXPBUioCompletionPort@@AAUbyteCount@@PAPAXPAPAUoverlapped_struct@fileSystem_native@@IAAU6@@Z 
01:0004041C ?_getQueuedCompletionStatus_hResult@fileSystem_api@@SAXPBUioCompletionPort@@AAUbyteCount@@PAPAXPAPAUoverlapped_struct@fileSystem_native@@AAU6@@Z 
01:0004046C ?_getQueuedCompletionStatus_hResult2_explicit@fileSystem_api@@SAXPAUprogramPoint_struct@core@@PBUioCompletionPort@@AAUbyteCount@@PAPAXPAPAUoverlapped_struct@fileSystem_native@@IAAUhResult@@@Z 
01:00040508 ?getQueuedCompletionStatusException_explicit@fileSystem_api@@SAXPAUprogramPoint_struct@core@@PBUhResult@@PAU?$__packedList_struct@UnamedValue@@@@@Z 
01:00040528 ?postQueuedCompletionStatus@fileSystem_api@@SAXPBUioCompletionPort@@PAUoverlapped_struct@fileSystem_native@@@Z  (Idle)
01:00040540 ?postQueuedCompletionStatus@fileSystem_api@@SAXPBUioCompletionPort@@PAUoverlapped_struct@fileSystem_native@@PBUbyteCount@@@Z  (Idle)
01:00040554 ?postQueuedCompletionStatus@fileSystem_api@@SAXPBUioCompletionPort@@PAUoverlapped_struct@fileSystem_native@@PBUbyteCount@@PAX@Z 
01:00040598 ?readDirectoryChanges@fileSystem_api@@SAXPBUfileHandle@@PAXPBUbyteCount@@PAUboolean_struct@_builtIn@@IAAU3@@Z  (Idle)
01:000405B0 ?readDirectoryChanges_overlapped@fileSystem_api@@SAXPBUfileHandle@@PAXPBUbyteCount@@PAUboolean_struct@_builtIn@@IPAUoverlapped_struct@fileSystem_native@@@Z  (Idle)
01:000405DC ?readDirectoryChanges_overlapped@fileSystem_api@@SAXPBUfileHandle@@PAXPBUbyteCount@@PAUboolean_struct@_builtIn@@IPAUoverlapped_struct@fileSystem_native@@X@Z  (Idle)
01:0004060C ?readDirectoryChanges2@fileSystem_api@@SAXPBUfileHandle@@PAXPBUbyteCount@@PAUboolean_struct@_builtIn@@IAAU3@PAUoverlapped_struct@fileSystem_native@@X@Z 
01:00040670 ?cancelIo@fileSystem_api@@SAXPBUfileHandle@@@Z  (Idle)
01:000406AC ?_readFile_overlapped@fileSystem_api@@SAXPBUfileHandle@@PAXPBUbyteCount@@PAUoverlapped_struct@fileSystem_native@@PAPAUboolean_struct@_builtIn@@@Z  (Idle)
01:000406C4 ?_writeFile_overlapped@fileSystem_api@@SAXPBUfileHandle@@PAXPBUbyteCount@@PAUoverlapped_struct@fileSystem_native@@PAPAUboolean_struct@_builtIn@@@Z  (Idle)
01:000406DC ?fileAttributeCorrespondence@fileSystem_api@@SAXPAPAUfileAttributeAtom_struct@1@I@Z  (Idle)
01:000407B8 ?fileAttributeCorrespondence@fileSystem_api@@SAXPAPAUfileAttributeAtom_struct@1@PAI@Z 
01:000408E4 ?fileAttributeCorrespondence@fileSystem_api@@SAXPAUfileAttributeAtom_struct@1@I@Z  (Idle)
--- From 'Obj\memory.F1BE59D6.obj'
01:000409A0 ?new@weakReference@@SAXQAV1@@PAXQAVrTypeLibrary@TypeLibraries@RunTime@VIP@@PAX@Z  (Idle)
01:000409D8 ?_tryDeref@weakReference@@SAXQAV1@@PAXPAPAX@Z 
01:00040A5C ?doIfExist@weakReference@@SAXQAV1@@PAXX@Z 
01:00040ABC ?released@weakReference@@SGQAVevent0@@@PBUhandle@@QAV1@@PAX@Z 
01:00040B04 ?finalize@weakReference@@SGXQAV1@@PAX@Z 
01:00040B60 ?_new@weakReference@@SAXQAVrTypeLibrary@TypeLibraries@RunTime@VIP@@PAXPAPAV1@@PAPAX@Z 
01:00040B90 ?_object_typelib_initializer@weakReference@@SGXQAV1@@PAXQAVrTypeLibrary@TypeLibraries@RunTime@VIP@@@Z 
01:00040BA8 ?_object_facts_initializer@weakReference@@SGXQAV1@@PAX@Z 
01:00040BC0 ?new@weakPointer@@SAXQAV1@@PAX@Z  (Idle)
01:00040BF8 ?newPredicate@weakPointer@@SAXQAV1@@PAX@Z  (Idle)
01:00040C84 ?_tryDeref@weakPointer@@SAXQAV1@@PAPAX@Z 
01:00040D30 ?finalize@weakPointer@@SGXQAV1@@@Z 
01:00040DA8 ?_new@weakPointer@@SAXPAXPAPAV1@@@Z  (Idle)
01:00040DD0 ?_newPredicate@weakPointer@@SAXPAXPAPAV1@@@Z  (Idle)
01:00040DF8 ?_object_facts_initializer@weakPointer@@SGXQAV1@@@Z 
01:00040E10 ?_alloc_kind@memory@@SAXQAVrTypeLibrary@TypeLibraries@RunTime@VIP@@PAUmemoryKind_struct@1@PAPAX@Z  (Idle)
01:00040E34 ?_alloc_kind@memory@@SAXQAVrTypeLibrary@TypeLibraries@RunTime@VIP@@PAUmemoryKind_struct@1@PBUcontext@@PAPAX@Z  (Idle)
01:00040E5C ?_alloc@memory@@SAXQAVrTypeLibrary@TypeLibraries@RunTime@VIP@@PAPAX@Z 
01:00040E88 ?_alloc@memory@@SAXQAVrTypeLibrary@TypeLibraries@RunTime@VIP@@PBUcontext@@PAPAX@Z  (Idle)
01:00040EB8 ?_alloc_atomic@memory@@SAXQAVrTypeLibrary@TypeLibraries@RunTime@VIP@@PAPAX@Z 
01:00040EE4 ?_alloc_atomic@memory@@SAXQAVrTypeLibrary@TypeLibraries@RunTime@VIP@@PBUcontext@@PAPAX@Z 
01:00040F14 ?_alloc_uncollectable@memory@@SAXQAVrTypeLibrary@TypeLibraries@RunTime@VIP@@PAPAX@Z  (Idle)
01:00040F40 ?_alloc_uncollectable@memory@@SAXQAVrTypeLibrary@TypeLibraries@RunTime@VIP@@PBUcontext@@PAPAX@Z  (Idle)
01:00040F70 ?_alloc_kind_array@memory@@SAXQAVrTypeLibrary@TypeLibraries@RunTime@VIP@@PAUmemoryKind_struct@1@PBUpositive@@PAPAX@Z  (Idle)
01:00040F8C ?_alloc_kind_array@memory@@SAXQAVrTypeLibrary@TypeLibraries@RunTime@VIP@@PAUmemoryKind_struct@1@PBUpositive@@PBUcontext@@PAPAX@Z  (Idle)
01:00040F94 ?_alloc_array@memory@@SAXQAVrTypeLibrary@TypeLibraries@RunTime@VIP@@PBUpositive@@PAPAX@Z  (Idle)
01:00040FC4 ?_alloc_array@memory@@SAXQAVrTypeLibrary@TypeLibraries@RunTime@VIP@@PBUpositive@@PBUcontext@@PAPAX@Z  (Idle)
01:00040FF8 ?_alloc_atomic_array@memory@@SAXQAVrTypeLibrary@TypeLibraries@RunTime@VIP@@PBUpositive@@PAPAX@Z  (Idle)
01:00041028 ?_alloc_atomic_array@memory@@SAXQAVrTypeLibrary@TypeLibraries@RunTime@VIP@@PBUpositive@@PBUcontext@@PAPAX@Z  (Idle)
01:0004105C ?_alloc_uncollectable_array@memory@@SAXQAVrTypeLibrary@TypeLibraries@RunTime@VIP@@PBUpositive@@PAPAX@Z  (Idle)
01:0004108C ?_alloc_uncollectable_array@memory@@SAXQAVrTypeLibrary@TypeLibraries@RunTime@VIP@@PBUpositive@@PBUcontext@@PAPAX@Z  (Idle)
01:000410C0 ?_doAllocate@memory@@SAXQAVrTypeLibrary@TypeLibraries@RunTime@VIP@@PAUmemoryKind_struct@1@PBUpositive@@PBUcontext@@PAPAX@Z 
01:00041148 ?_doAllocate2@memory@@SAXPAUmemoryKind_struct@1@PBUbyteCount@@PAPAX@Z 
01:00041190 uncheckedFromPointer@memory@pfc 
01:000411A0 ?copyTo@memory@@SAXQAVrTypeLibrary@TypeLibraries@RunTime@VIP@@PAXPAX@Z  (Idle)
01:000411C4 ?_copyTo@memory@@SAXQAVrTypeLibrary@TypeLibraries@RunTime@VIP@@PAXPAXPAPAX@Z 
01:00041204 ?_mkArray_kind@memory@@SAXQAVrTypeLibrary@TypeLibraries@RunTime@VIP@@PAUmemoryKind_struct@1@PAU?$__packedList_struct@PAX@@PAPAUtuple_struct@core@@PAPAXAAUpositive@@@Z  (Idle)
01:0004129C ?fillArray_list@memory@@SAXQAVrTypeLibrary@TypeLibraries@RunTime@VIP@@PAXPAU?$__packedList_struct@PAX@@@Z 
01:000412E8 ?_mkList_kind@memory@@SAXQAVrTypeLibrary@TypeLibraries@RunTime@VIP@@PAUmemoryKind_struct@1@PAXPBUpositive@@PAPAU?$__packedList_struct@PAPAX@@@Z  (Idle)
01:000413A4 ?_append@memory@@SAXPAXPAXPBUbyteCount@@PAPAX@Z 
01:000413CC ?isReadable@memory@@SAXPAX@Z 
01:000413E0 ?isReadable@memory@@SAXPAXPBUbyteCount@@@Z 
01:00041400 ?isWritable@memory@@SAXPAX@Z  (Idle)
01:00041414 ?isWritable@memory@@SAXPAXPBUbyteCount@@@Z 
01:00041434 ?_allocHeap@memory@@SAXPBUbyteCount@@PAPAX@Z 
01:00041450 ?_allocHeap@memory@@SAXPBUbyteCount@@PAUboolean_struct@_builtIn@@PAPAX@Z 
01:00041478 ?_allocHeapProfile@memory@@SAXPBUbyteCount@@PBUcontext@@PAPAX@Z 
01:000414A4 ?_allocHeapProfile@memory@@SAXPBUbyteCount@@PBUcontext@@PAUboolean_struct@_builtIn@@PAPAX@Z 
01:000414CC ?_allocAtomicHeap@memory@@SAXPBUbyteCount@@PAPAX@Z 
01:000414E8 ?_allocAtomicHeapProfile@memory@@SAXPBUbyteCount@@PBUcontext@@PAPAX@Z 
01:00041514 ?_allocUncollectableHeap@memory@@SAXPBUbyteCount@@PAPAX@Z  (Idle)
01:00041530 ?_allocAtomicHeap_array@memory@@SAXQAVrTypeLibrary@TypeLibraries@RunTime@VIP@@PBUpositive@@PAPAX@Z  (Idle)
01:00041534 ?_allocUncollectableHeap_array@memory@@SAXQAVrTypeLibrary@TypeLibraries@RunTime@VIP@@PBUpositive@@PAPAX@Z  (Idle)
01:0004159C ?sameType@memory@@SAXQAVrTypeLibrary@TypeLibraries@RunTime@VIP@@PAXPAX@Z 
01:000415A4 ?_allocUncollectableHeapProfile@memory@@SAXPBUbyteCount@@PBUcontext@@PAPAX@Z 
01:000415D0 ?_allocString@memory@@SAXPBUcharCount@@PAPB_W@Z 
01:000415E8 ?_allocStringProfile@memory@@SAXPBUcharCount@@PBUcontext@@PAPB_W@Z  (Idle)
01:00041628 ?_allocStringBuffer@memory@@SAXPBUcharCount@@PAPB_W@Z 
01:00041644 ?_allocStringBufferProfile@memory@@SAXPBUcharCount@@PBUcontext@@PAPB_W@Z 
01:00041674 ?releaseHeap@memory@@SAXQAVrTypeLibrary@TypeLibraries@RunTime@VIP@@PAX@Z 
01:00041684 ?listToArray@memory@@SAXQAVrTypeLibrary@TypeLibraries@RunTime@VIP@@PAU?$__packedList_struct@PAX@@PBUbyteCount@@XPAPAXAAUpositive@@@Z  (Idle)
01:000416EC ?listToArray_nonatomic@memory@@SAXQAVrTypeLibrary@TypeLibraries@RunTime@VIP@@PAU?$__packedList_struct@PAX@@PBUbyteCount@@XPAPAXAAUpositive@@@Z 
01:00041754 ?fillArray@memory@@SAXQAVrTypeLibrary@TypeLibraries@RunTime@VIP@@PAXPAU?$__packedList_struct@PAX@@PBUbyteCount@@X@Z 
01:000417C0 ?_pointerAdd@memory@@SAXQAVrTypeLibrary@TypeLibraries@RunTime@VIP@@PAXPBUbyteOffset@@PAPAX@Z 
01:000417D4 ?_getOffset@memory@@SAXQAVrTypeLibrary@TypeLibraries@RunTime@VIP@@PAXPAXAAUbyteOffset@@@Z 
01:000417EC ?isNull@memory@@SAXQAVrTypeLibrary@TypeLibraries@RunTime@VIP@@PAX@Z 
01:00041800 getp@memory@pfc 
01:00041814 get1@memory@pfc 
01:00041828 get2@memory@pfc 
01:0004183C get4@memory@pfc 
01:00041850 get8@memory@pfc 
01:00041888 getAp@memory@pfc  (Idle)
01:000418C4 getA1@memory@pfc 
01:00041900 getA2@memory@pfc  (Idle)
01:00041940 getA4@memory@pfc  (Idle)
01:0004197C getA8@memory@pfc  (Idle)
01:000419CC setp@memory@pfc 
01:000419FC set1@memory@pfc 
01:00041A2C set2@memory@pfc 
01:00041A60 set4@memory@pfc 
01:00041A90 set8@memory@pfc 
01:00041AA8 setAp@memory@pfc  (Idle)
01:00041B04 setA1@memory@pfc  (Idle)
01:00041B60 setA2@memory@pfc  (Idle)
01:00041BC0 setA4@memory@pfc 
01:00041C1C setA8@memory@pfc  (Idle)
01:00041C64 mkp@memory@pfc  (Idle)
01:00041C88 mk1@memory@pfc  (Idle)
01:00041CAC mk2@memory@pfc 
01:00041CD4 mk4@memory@pfc 
01:00041CF8 mk8@memory@pfc  (Idle)
01:00041D34 ?_bitOr@bit@@SAXIIIPAI@Z  (Idle)
01:00041D5C ?_bitOr@bit@@SAXIIIIPAI@Z  (Idle)
01:00041D94 ?_bitOr@bit@@SAXIIIIIPAI@Z  (Idle)
01:00041DD8 ?_bitOrList@bit@@SAXPAU?$__packedList_struct@Uunsigned@@@@PAI@Z  (Idle)
01:00041DF4 ?_bitOrList_Tail@bit@@SAXPAU?$__packedList_struct@Uunsigned@@@@IPAI@Z 
01:00041E3C ?isSet@bit@@SAXII@Z 
01:00041E64 ?_clear@bit@@SAXIIPAI@Z  (Idle)
01:00041E8C ?_bit2boolean@bit@@SAXIIPAPAUboolean_struct@_builtIn@@@Z  (Idle)
01:00041EC4 ?_getLow4of8@bit@@SAXPBUunsigned8@@AAUunsigned4@@@Z  (Idle)
01:00041EE8 ?_setLow4of8@bit@@SAXPBUunsigned8@@PBUunsigned4@@AAU2@@Z  (Idle)
01:00041F38 ?_getHigh4of8@bit@@SAXPBUunsigned8@@AAUunsigned4@@@Z  (Idle)
01:00041F70 ?_setHigh4of8@bit@@SAXPBUunsigned8@@PBUunsigned4@@AAU2@@Z  (Idle)
01:00041FD4 ?_swap4of8@bit@@SAXPBUunsigned8@@AAU2@@Z  (Idle)
01:00042034 ?_getLow8of16@bit@@SAXPBUunsigned16@@AAUunsigned8@@@Z  (Idle)
01:0004205C ?_setLow8of16@bit@@SAXPBUunsigned16@@PBUunsigned8@@AAU2@@Z  (Idle)
01:0004209C ?_getHigh8of16@bit@@SAXPBUunsigned16@@AAUunsigned8@@@Z  (Idle)
01:000420D4 ?_setHigh8of16@bit@@SAXPBUunsigned16@@PBUunsigned8@@AAU2@@Z  (Idle)
01:00042124 ?_swap8of16@bit@@SAXPBUunsigned16@@AAU2@@Z  (Idle)
01:00042188 ?_getLow16of32@bit@@SAXIAAUunsigned16@@@Z 
01:000421A8 ?_setLow16of32@bit@@SAXIPBUunsigned16@@PAI@Z 
01:000421E0 ?_getHigh16of32@bit@@SAXIAAUunsigned16@@@Z 
01:00042210 ?_setHigh16of32@bit@@SAXIPBUunsigned16@@PAI@Z 
01:00042260 ?_swap16of32@bit@@SAXIPAI@Z 
01:000422C0 ?_toBigEndian@bit@@SAXIPAI@Z  (Idle)
01:00042374 ?_bitSplit@bit@@SAXIPAPAU?$__packedList_struct@Uunsigned@@@@@Z  (Idle)
01:000423DC ?getUnsigned32bytes@bit@@SAXIAAUunsigned16@@1@Z  (Idle)
01:00042414 ?getInteger32bytes@bit@@SAXIAAUunsigned16@@AAUinteger16@@@Z  (Idle)
01:0004244C ?getUnsigned64bytes@bit@@SAXPA_KPAIPAI@Z  (Idle)
01:0004246C ?getInteger64bytes@bit@@SAXPA_JPAIPAH@Z  (Idle)
01:0004248C ?_mkUnsigned32@bit@@SAXPBUunsigned16@@0PAI@Z  (Idle)
01:000424C0 ?_mkInteger32@bit@@SAXPBUunsigned16@@PBUinteger16@@PAH@Z  (Idle)
01:000424F4 ?_mkUnsigned64@bit@@SAXIIPAPA_K@Z  (Idle)
01:00042544 ?_mkInteger64@bit@@SAXIHPAPA_J@Z  (Idle)
01:00042594 ?_reset@bit@@SAXIIPAI@Z  (Idle)
01:0004259C ?_getLow16@bit@@SAXPBUunsignedNative@@AAUunsigned16@@@Z  (Idle)
01:000425C4 ?_bitOr@bit@@SAXPA_K00PAPA_K@Z  (Idle)
01:0004264C ?_bitOr@bit@@SAXPBUunsignedNative@@00AAU2@@Z  (Idle)
01:00042674 ?_bitOr@bit@@SAXPA_K000PAPA_K@Z  (Idle)
01:00042724 ?_bitOr@bit@@SAXPBUunsignedNative@@000AAU2@@Z  (Idle)
01:0004275C ?_bitOr@bit@@SAXPA_K0000PAPA_K@Z  (Idle)
01:00042834 ?_bitOr@bit@@SAXPBUunsignedNative@@0000AAU2@@Z  (Idle)
01:00042878 ?isSet@bit@@SAXPA_K0@Z  (Idle)
01:000428F0 ?isSet@bit@@SAXPBUunsignedNative@@0@Z  (Idle)
01:00042918 ?_clear@bit@@SAXPA_K0PAPA_K@Z  (Idle)
01:0004298C ?_clear@bit@@SAXPBUunsignedNative@@0AAU2@@Z  (Idle)
01:000429BC weakReference{@Type}?_initObject@@@QAGXQAV1@H@Z 
01:000429EC ?@create_object@weakReference@@SGQAV1@@PAXQAVrTypeLibrary@TypeLibraries@RunTime@VIP@@@Z 
01:00042A10 weakReference{@Type}?_InternalFinalizer@@@QAGXQAV1@@Z 
01:00042A60 weakPointer?_initObject@@@QAGXQAV1@H@Z 
01:00042A80 ?@create_object@weakPointer@@SGQAV1@@XZ 
01:00042A9C weakPointer?_InternalFinalizer@@@QAGXQAV1@@Z 
001000:041AF0 0001E0   .text$mn::CODE::<no group> F=4
--- From '..\..\..\_intermediate\sourceVS\vipInit\Win32\ReleasePE\VIPMain.obj'
01:00042AF0 _VIPStartUp@0  (Idle)
--- From '..\..\..\_intermediate\sourceVS\vipInit\Win32\ReleasePE\VIPDll.obj'
01:00042B60 ?VIPDllGetHandleModule@RunTime@VIP@@YAPAXXZ 
01:00042B70 ?tryCallHook@VIPDllHook@RunTime@VIP@@QBEHPAXK0@Z 
01:00042BB0 _VIPDllMain@12  (Idle)
01:00042C90 _VIPSetDllHook@4  (Idle)
--- From '..\..\..\_intermediate\sourceVS\vipInit\Win32\ReleasePE\VIPPE.obj'
01:00042CB0 ?VIP_PE_Dialog@@YAXXZ 
Frame 043000   Size 02F100.  Name=<  .rdata>, 	Chars=40000040h. [IR]
043000:000000 004570   VIPConst::VIPConst::.rdata F=4
--- From 'Obj\binary.81E0542A.obj'
02:00043090 $invalidCompressionFormat$binary_exception_class$constant$ 
02:00043118 $internalDecodeError$binary_exception_class$constant$ 
02:000431AC $indexOutOfRange$binary_exception_class$constant$ 
02:00043240 $wrongBinaryFormat$binary_exception_class$constant$ 
--- From 'Obj\filesystem.14FC0F0E.obj'
02:000432C8 $fileAlreadyExists$fileSystem_exception_class$constant$ 
02:0004335C $wrongAttribute$fileSystem_exception_class$constant$ 
02:00043428 $fileTooBig$fileSystem_exception_class$constant$ 
--- From 'Obj\exception.311FF4B8.obj'
02:000434C0 $nativeCallException$exception_class$constant$ 
--- From 'Obj\string.79FC483E.obj'
02:00043558 $emptyString$string_exception_class$constant$ 
02:0004361C $outOfBoundaries$string_exception_class$constant$ 
02:000436C0 $oddOffset$string_exception_class$constant$ 
--- From 'Obj\math.8BE40BD3.obj'
02:00043770 $asinOutOfBounds$math_exception_class$constant$ 
02:0004381C $acoshOutOfBounds$math_exception_class$constant$ 
02:000438D4 $atanhOutOfBounds$math_exception_class$constant$ 
02:0004398C $acotanhOutOfBounds$math_exception_class$constant$ 
02:00043A24 $cotanhInfinityResult$math_exception_class$constant$ 
--- From 'Obj\registry.750278BD.obj'
02:00043ABC $wrongValue$registry_exception_class$constant$ 
02:00043B2C $noPath$registry_exception_class$constant$ 
02:00043BBC $cannotCreateKey$registry_exception_class$constant$ 
--- From 'Obj\namedvalue.A8464E91.obj'
02:00043C48 $nameNotInMap$namedValue_class$constant$ 
--- From 'Obj\time_api.3BF8D4E6.obj'
02:00043D14 $cannotGetDateTimeFormat$time_api_class$constant$ 
02:00043D98 $cannotGetLocaleInfo$time_api_class$constant$ 
--- From 'Obj\exception.311FF4B8.obj'
02:00043E18 $systemException$runtime_exception_class$constant$ 
02:00043E9C $realOverflow$runtime_exception_class$constant$ 
02:00043F30 $realDivideByZero$runtime_exception_class$constant$ 
02:00043FB4 $arithmeticOverflow$runtime_exception_class$constant$ 
02:00044080 $mismatchVersion$runtime_exception_class$constant$ 
02:000440F8 $osError$runtime_exception_class$constant$ 
02:00044188 $cannotLoadLibrary$runtime_exception_class$constant$ 
02:00044250 $cannotGetProcAddress$runtime_exception_class$constant$ 
02:000442D8 $gcAbend$runtime_exception_class$constant$ 
02:00044364 $gcError$runtime_exception_class$constant$ 
02:000443CC $heapOverflow$runtime_exception_class$constant$ 
02:00044458 $invalidTerm$runtime_exception_class$constant$ 
02:00044520 $noRangeNumber$runtime_exception_class$constant$ 
02:000445D8 $fromString$runtime_exception_class$constant$ 
02:00044698 $fromBinary$runtime_exception_class$constant$ 
02:0004471C $negZero$runtime_exception_class$constant$ 
02:000447C4 $objectConversion$runtime_exception_class$constant$ 
02:0004484C $cyclicInheritance$runtime_exception_class$constant$ 
02:000448EC $functorNotFound$runtime_exception_class$constant$ 
02:000449A8 $determFact$runtime_exception_class$constant$ 
02:00044A48 $invalidFormat$runtime_exception_class$constant$ 
02:00044AE8 $unsupportedFormat$runtime_exception_class$constant$ 
02:00044BC0 $wrongNumberArgumentForFormat$runtime_exception_class$constant$ 
02:00044C7C $integerExpected$runtime_exception_class$constant$ 
02:00044D10 $parserUnexpectedEOS$runtime_exception_class$constant$ 
02:00044D90 $unGetChar$runtime_exception_class$constant$ 
02:00044E20 $vip6runInternalError$runtime_exception_class$constant$ 
02:00044EEC $invalidTermRepresentation$runtime_exception_class$constant$ 
02:00044F6C $consult_WrongComment$runtime_exception_class$constant$ 
02:0004500C $consult_WrongUsageOfKeyword$runtime_exception_class$constant$ 
02:000450C4 $retractSingleFact$runtime_exception_class$constant$ 
02:0004516C $expectedChar$runtime_exception_class$constant$ 
02:000451F4 $freeVariable$runtime_exception_class$constant$ 
02:00045284 $singleFactHasNoValue$runtime_exception_class$constant$ 
02:00045334 $valueCannotBeConvertedToType$runtime_exception_class$constant$ 
02:000453B4 $mustUnifyFailed$runtime_exception_class$constant$ 
02:0004545C $accessToNotInitializedFact$runtime_exception_class$constant$ 
02:000454E8 $chainDB_DBAlreadyOpen$runtime_exception_class$constant$ 
02:0004558C $chainDB_InvalidDBFileName$runtime_exception_class$constant$ 
02:00045610 $chainDB_NotOpenDB$runtime_exception_class$constant$ 
02:00045698 $chainDB_ExistsBTree$runtime_exception_class$constant$ 
02:00045760 $chainDB_ExistsDBInPlace$runtime_exception_class$constant$ 
02:000457F0 $chainDB_InvalidOrderValue$runtime_exception_class$constant$ 
02:00045888 $chainDB_InvalidKeyValue$runtime_exception_class$constant$ 
02:00045934 $chainDB_UnableOpenDB$runtime_exception_class$constant$ 
02:000459B8 $chainDB_InvalidDB$runtime_exception_class$constant$ 
02:00045A48 $chainDB_UnableDeleteDB$runtime_exception_class$constant$ 
02:00045AD4 $chainDB_InvalidRefVal$runtime_exception_class$constant$ 
02:00045B54 $chainDB_AbsentChain$runtime_exception_class$constant$ 
02:00045BD0 $chainDB_AbsentBTree$runtime_exception_class$constant$ 
02:00045C64 $chainDB_InvalidBTreeSel$runtime_exception_class$constant$ 
02:00045CFC $chainDB_DeleteOpenBTree$runtime_exception_class$constant$ 
02:00045DAC $chainDB_NotFoundKeyAndRef$runtime_exception_class$constant$ 
02:00045E48 $chainDB_IncorrectDBVersion$runtime_exception_class$constant$ 
02:00045EE8 $chainDB_NotInTransaction$runtime_exception_class$constant$ 
02:00045FC8 $chainDB_WriteROTransaction$runtime_exception_class$constant$ 
02:00046080 $chainDB_AlreadyOpenTransaction$runtime_exception_class$constant$ 
02:00046150 $chainDB_UpdatingROTransaction$runtime_exception_class$constant$ 
02:000461F8 $chainDB_TimeOutTransaction$runtime_exception_class$constant$ 
02:000462AC $chainDB_DuplicateKey$runtime_exception_class$constant$ 
02:00046390 $chainDB_WrongChainToDeleteTerm$runtime_exception_class$constant$ 
02:00046468 $chainDB_ReadWrongNumberBytes$runtime_exception_class$constant$ 
02:00046544 $chainDB_WriteWrongNumberBytes$runtime_exception_class$constant$ 
02:000465D4 $chainDB_OSNativeError$runtime_exception_class$constant$ 
02:0004664C $binary_invalidBlock$runtime_exception_class$constant$ 
02:000466DC $binary_invalidFormat$runtime_exception_class$constant$ 
02:0004678C $binary_DecodeInternalError$runtime_exception_class$constant$ 
02:00046844 $odbc_unidentifiedError$runtime_exception_class$constant$ 
02:00046940 $sql_invalidHandle$runtime_exception_class$constant$ 
02:00046A18 $sql_stillExecuting$runtime_exception_class$constant$ 
02:00046AB0 $sql_needData$runtime_exception_class$constant$ 
02:00046B20 $sql_noDataFound$runtime_exception_class$constant$ 
02:00046BD0 $sql_error$runtime_exception_class$constant$ 
02:00046C60 $odbc_error$runtime_exception_class$constant$ 
02:00046CFC $externalError$exception_exception_class$constant$ 
02:00046D84 $internal$exception_class$constant$ 
02:00046E04 $couldNotCreate$exception_class$constant$ 
02:00046E78 $removeListener$exception_class$constant$ 
02:00046EFC $unsupportedPredicate$exception_class$constant$ 
02:00046F78 $overloadingExpected$exception_class$constant$ 
02:0004700C $exceptionInListener$exception_class$constant$ 
02:000470AC $unknown$exception_class$constant$ 
--- From 'Obj\stream.99E3A2B3.obj'
02:00047118 $endOfStream$stream_exception_class$constant$ 
02:000471E4 $notSupportedProperty$stream_exception_class$constant$ 
02:00047284 $noCRLFconversion$stream_exception_class$constant$ 
02:00047324 $wrongMode$stream_exception_class$constant$ 
02:000473B4 $noStream$stream_exception_class$constant$ 
--- From 'Obj\filesystem_api.EE6511E1.obj'
02:00047450 $cannotCreate$fileSystem_api_class$constant$ 
02:000474D0 $cannotGetFileSize$fileSystem_api_class$constant$ 
02:00047564 $cannotSetFilePointer$fileSystem_api_class$constant$ 
043000:004570 00AD30   .rdata::.rdata::.rdata F=4
--- From 'Obj\runtime_api.AAF7A8D0.obj'
02:0004D26C v$$_determineOSV5@runtime_api@@SAXIIPBUunsigned16@@PAPB_W@Z$systemname$1$::string  (Idle)
02:0004D270 v$$_determineOSV5@runtime_api@@SAXIIPBUunsigned16@@PAPB_W@Z$systemname$2$::string  (Idle)
02:0004D314 v$$_determineOSV4@runtime_api@@SAXIIPBUunsigned16@@PAPB_W@Z$systemname$1$::string  (Idle)
02:0004D4CC v$$_determineOSV6@runtime_api@@SAXIIPBUunsigned16@@PAPB_W@Z$edition$1$::string  (Idle)
02:0004D4D0 v$$_determineOSV6@runtime_api@@SAXIIPBUunsigned16@@PAPB_W@Z$edition$2$::string  (Idle)
--- From 'Obj\exception.311FF4B8.obj'
02:0004F738 v$$_getTrapInformationObject@exception@@SAXPBUtraceId@@PAPAVtrapInformationObject@@@@Z$externalexception$1$core::exception  (Idle)
--- From '..\..\..\_intermediate\sourceVS\vipInit\Win32\ReleasePE\VIPDll.obj'
02:000514F8 _VIPStartOfDictionary 
--- From '..\..\..\_intermediate\sourceVS\vipInit\Win32\ReleasePE\VIPPE.obj'
02:000521F0 ??_C@_0L@DLNDOIBH@Attention?$CB?$AA@ 
02:00052200 ??_C@_0JO@IKLJBBEK@This?5application?5is?5created?5with@ 
043000:00F2A0 003410   VIPInter::VIPInter::.rdata F=4
--- From 'Obj\memory.F1BE59D6.obj'
02:000522A0 interface$object 
--- From 'Obj\main.A22FE9BF.obj'
02:000522E0 $object$_global_class$0$domain$ 
--- From 'Obj\exe_api.F27809B9.obj'
02:00052310 interface$outputStream_binary 
02:000523A0 $outputStream_binary$_global_class$0$domain$ 
--- From 'Obj\list.90A37E7A.obj'
02:000523E0 interface$collection{@Type} 
02:00052460 $collection{@Type}$_global_class$1$domain$ 
--- From 'Obj\shell_api.76DAFA28.obj'
02:00052490 interface$arrayM_inline{@ItemType} 
02:00052550 $arrayM_inline{@ItemType}$_global_class$1$domain$ 
--- From 'Obj\setm_redblack.93FF0DB0.obj'
02:00052590 interface$collectionSupport\collectionSite{@Type} 
--- From 'Obj\mapm_redblack.B30CE1C9.obj'
02:00052670 $collectionSupport\collectionSite{@Type}$_global_class$1$domain$ 
--- From 'Obj\setm_redblack.93FF0DB0.obj'
02:000526D0 interface$collectionSupport\collectionSupport{@Type} 
--- From 'Obj\mapm_redblack.B30CE1C9.obj'
02:000527C0 $collectionSupport\collectionSupport{@Type}$_global_class$1$domain$ 
--- From 'Obj\setm_redblack.93FF0DB0.obj'
02:00052820 interface$collectionSupportM\collectionMsite{@Type} 
--- From 'Obj\mapm_redblack.B30CE1C9.obj'
02:00052920 $collectionSupportM\collectionMsite{@Type}$_global_class$1$domain$ 
--- From 'Obj\setm_redblack.93FF0DB0.obj'
02:00052980 interface$collectionSupportM\collectionMsupport{@Type} 
--- From 'Obj\mapm_redblack.B30CE1C9.obj'
02:00052A80 $collectionSupportM\collectionMsupport{@Type}$_global_class$1$domain$ 
02:00052AF0 interface$collectionSupportM\mapMSite{@Key,@Data} 
02:00052BD0 $collectionSupportM\mapMSite{@Key,@Data}$_global_class$2$domain$ 
02:00052C20 interface$mapMSupport{@Key,@Data} 
02:00052CE0 $mapMSupport{@Key,@Data}$_global_class$2$domain$ 
--- From 'Obj\list.90A37E7A.obj'
02:00052D10 interface$map{@Key,@Data} 
02:00052D80 $map{@Key,@Data}$_global_class$2$domain$ 
02:00052DA0 interface$mapM{@Key,@Data} 
02:00052E20 $mapM{@Key,@Data}$_global_class$2$domain$ 
02:00052E50 interface$mapP{@Self,@Key,@Data} 
02:00052ED0 $mapP{@Self,@Key,@Data}$_global_class$3$domain$ 
02:00052F00 interface$modifiable{@Type} 
02:00052F80 $modifiable{@Type}$_global_class$1$domain$ 
02:00052FB0 interface$multiMapM{@Key,@Data} 
02:00053040 $multiMapM{@Key,@Data}$_global_class$2$domain$ 
02:00053070 interface$persistent{@Self,@Type} 
02:00053100 $persistent{@Self,@Type}$_global_class$2$domain$ 
02:00053130 interface$queueM{@Type} 
02:000531A0 $queueM{@Type}$_global_class$1$domain$ 
02:000531D0 interface$queueP{@Self,@Type} 
02:00053250 $queueP{@Self,@Type}$_global_class$2$domain$ 
02:00053280 interface$set{@Type} 
02:000532F0 $set{@Type}$_global_class$1$domain$ 
02:00053310 interface$setM{@Type} 
02:00053380 $setM{@Type}$_global_class$1$domain$ 
02:000533B0 interface$setP{@Self,@Type} 
02:00053430 $setP{@Self,@Type}$_global_class$2$domain$ 
--- From 'Obj\main.A22FE9BF.obj'
02:00053460 interface$disposable 
02:000534C0 $disposable$_global_class$0$domain$ 
02:000534F0 interface$errorDescriptorInformation 
02:000535A0 $errorDescriptorInformation$_global_class$0$domain$ 
02:000535F0 interface$trapInformationObject 
02:00053690 $trapInformationObject$_global_class$0$domain$ 
02:000536E0 interface$event0{@Source} 
--- From 'Obj\memory.F1BE59D6.obj'
02:00053750 $event0{@Source}$_global_class$1$domain$ 
--- From 'Obj\main.A22FE9BF.obj'
02:00053780 $listener$event0{@Source}_interface$0$domain$ 
02:000537B0 interface$event1{@Source,@Type1} 
02:00053830 $event1{@Source,@Type1}$_global_class$2$domain$ 
02:00053860 $listener$event1{@Source,@Type1}_interface$0$domain$ 
02:00053890 interface$event2{@Source,@Type1,@Type2} 
02:00053920 $event2{@Source,@Type1,@Type2}$_global_class$3$domain$ 
02:00053950 $listener$event2{@Source,@Type1,@Type2}_interface$0$domain$ 
02:00053980 interface$event3{@Source,@Type1,@Type2,@Type3} 
02:00053A20 $event3{@Source,@Type1,@Type2,@Type3}$_global_class$4$domain$ 
02:00053A50 $listener$event3{@Source,@Type1,@Type2,@Type3}_interface$0$domain$ 
02:00053A80 interface$event4{@Source,@Type1,@Type2,@Type3,@Type4} 
02:00053B30 $event4{@Source,@Type1,@Type2,@Type3,@Type4}$_global_class$5$domain$ 
02:00053B60 $listener$event4{@Source,@Type1,@Type2,@Type3,@Type4}_interface$0$domain$ 
02:00053B90 interface$event5{@Source,@Type1,@Type2,@Type3,@Type4,@Type5} 
02:00053C40 $event5{@Source,@Type1,@Type2,@Type3,@Type4,@Type5}$_global_class$6$domain$ 
02:00053C70 $listener$event5{@Source,@Type1,@Type2,@Type3,@Type4,@Type5}_interface$0$domain$ 
02:00053CA0 interface$event6{@Source,@Type1,@Type2,@Type3,@Type4,@Type5,@Type6} 
02:00053D60 $event6{@Source,@Type1,@Type2,@Type3,@Type4,@Type5,@Type6}$_global_class$7$domain$ 
02:00053D90 $listener$event6{@Source,@Type1,@Type2,@Type3,@Type4,@Type5,@Type6}_interface$0$domain$ 
02:00053DC0 interface$event7{@Source,@Type1,@Type2,@Type3,@Type4,@Type5,@Type6,@Type7} 
02:00053E90 $event7{@Source,@Type1,@Type2,@Type3,@Type4,@Type5,@Type6,@Type7}$_global_class$8$domain$ 
02:00053EC0 $listener$event7{@Source,@Type1,@Type2,@Type3,@Type4,@Type5,@Type6,@Type7}_interface$0$domain$ 
--- From 'Obj\memory.F1BE59D6.obj'
02:00053EF0 interface$weakPointer 
02:00053F60 $weakPointer$_global_class$0$domain$ 
02:00053F90 interface$weakReference{@Type} 
02:00054020 $weakReference{@Type}$_global_class$1$domain$ 
--- From 'Obj\main.A22FE9BF.obj'
02:00054060 interface$runtimeLinknamesKernel 
02:000540F0 $runtimeLinknamesKernel$_global_class$0$domain$ 
02:00054140 interface$runtimeLinkNamesRun 
02:000541C0 $runtimeLinkNamesRun$_global_class$0$domain$ 
02:00054200 interface$bufferSupport 
02:00054280 $bufferSupport$_global_class$0$domain$ 
02:000542D0 $offsetPtr$bufferSupport_interface$0$domain$ 
02:00054320 interface$inputStream 
02:00054390 $inputStream$_global_class$0$domain$ 
02:000543C0 interface$outputStream 
02:00054440 $outputStream$_global_class$0$domain$ 
02:00054480 $outputSerializer$outputStream_interface$0$domain$ 
02:000544C0 interface$stdioState 
02:00054530 $stdioState$_global_class$0$domain$ 
02:00054560 interface$stream 
02:000545C0 $stream$_global_class$0$domain$ 
02:00054630 $mode$stream_interface$0$domain$ 
--- From 'Obj\varm.637998CB.obj'
02:00054690 interface$varM{@Term} 
02:000546F0 $varM{@Term}$_global_class$1$domain$ 
02:00054720 interface$varM_boolean 
02:00054790 $varM_boolean$_global_class$0$domain$ 
02:000547D0 interface$varM_integer 
02:00054840 $varM_integer$_global_class$0$domain$ 
02:00054880 interface$varM_optional{@Value} 
02:00054910 $varM_optional{@Value}$_global_class$1$domain$ 
02:00054950 interface$varM_unsigned 
02:000549D0 $varM_unsigned$_global_class$0$domain$ 
--- From 'Obj\exception.311FF4B8.obj'
02:00054A10 interface$pfc\reflection\functorDescriptor 
02:00054AE0 $pfc\reflection\functorDescriptor$_global_class$0$domain$ 
02:00054B40 interface$pfc\reflection\scopeDescriptor 
02:00054C00 $pfc\reflection\scopeDescriptor$_global_class$0$domain$ 
02:00054C82 $scopeKind$pfc\reflection\scopeDescriptor_interface$0$domain$ 
02:00054D20 interface$pfc\reflection\typeLibrary 
02:00054DD0 $pfc\reflection\typeLibrary$_global_class$0$domain$ 
02:00054E20 $wrapPresenter$pfc\reflection\typeLibrary_interface$0$domain$ 
02:00054E60 interface$pfc\reflection\typeLibrary_functor 
02:00054F30 $pfc\reflection\typeLibrary_functor$_global_class$0$domain$ 
--- From 'Obj\exe_api.F27809B9.obj'
02:00054F90 interface$outputStream_string 
02:00055020 $outputStream_string$_global_class$0$domain$ 
02:00055060 $contentsChangedListener$outputStream_string_interface$0$domain$ 
--- From 'Obj\filesystem.14FC0F0E.obj'
02:000550B0 interface$iStream_native 
02:00055170 $iStream_native$_global_class$0$domain$ 
02:000551B0 interface$iUnknown 
02:00055250 $iUnknown$_global_class$0$domain$ 
--- From 'Obj\filesystem_api.EE6511E1.obj'
02:00055280 interface$inputBuffer 
02:00055320 $inputBuffer$_global_class$0$domain$ 
02:00055350 interface$inputSupport 
02:000553F0 $inputSupport$_global_class$0$domain$ 
02:00055430 interface$outputBuffer 
02:000554D0 $outputBuffer$_global_class$0$domain$ 
02:00055510 interface$outputSupport 
02:000555B0 $outputSupport$_global_class$0$domain$ 
--- From 'Obj\core.610F2EE0.obj'
02:000555F0 interface$resourceIdentifiers 
02:00055670 $resourceIdentifiers$_global_class$0$domain$ 
043000:0126B0 0020E0   VIPTypeL::VIPTypeL::.rdata F=4
--- From 'Obj\core.610F2EE0.obj'
02:000556B0 $positive$core_class$0$domain$$type_library$ 
--- From 'Obj\memory.F1BE59D6.obj'
02:000556C0 $pointer$_builtIn_class$0$domain$$type_library$ 
02:000556D0 $object$_global_class$0$domain$$type_library$ 
--- From 'Obj\exe_api.F27809B9.obj'
02:000556E0 $outputStream_binary$_global_class$0$domain$$type_library$ 
--- From 'Obj\main.A22FE9BF.obj'
02:000556F0 $disposable$_global_class$0$domain$$type_library$ 
02:00055700 $errorDescriptorInformation$_global_class$0$domain$$type_library$ 
02:00055710 $trapInformationObject$_global_class$0$domain$$type_library$ 
02:00055720 $listener$event0{@Source}_interface$0$domain$$type_library$ 
02:00055730 $listener$event1{@Source,@Type1}_interface$0$domain$$type_library$ 
02:00055740 $listener$event2{@Source,@Type1,@Type2}_interface$0$domain$$type_library$ 
02:00055750 $listener$event3{@Source,@Type1,@Type2,@Type3}_interface$0$domain$$type_library$ 
02:00055760 $listener$event4{@Source,@Type1,@Type2,@Type3,@Type4}_interface$0$domain$$type_library$ 
02:00055770 $listener$event5{@Source,@Type1,@Type2,@Type3,@Type4,@Type5}_interface$0$domain$$type_library$ 
02:00055780 $listener$event6{@Source,@Type1,@Type2,@Type3,@Type4,@Type5,@Type6}_interface$0$domain$$type_library$ 
02:00055790 $listener$event7{@Source,@Type1,@Type2,@Type3,@Type4,@Type5,@Type6,@Type7}_interface$0$domain$$type_library$ 
02:000557A0 $weakPointer$_global_class$0$domain$$type_library$ 
02:000557B0 $runtimeLinknamesKernel$_global_class$0$domain$$type_library$ 
02:000557C0 $runtimeLinkNamesRun$_global_class$0$domain$$type_library$ 
02:000557D0 $bufferSupport$_global_class$0$domain$$type_library$ 
02:000557E0 $offsetPtr$bufferSupport_interface$0$domain$$type_library$ 
02:000557F0 $inputStream$_global_class$0$domain$$type_library$ 
02:00055800 $outputStream$_global_class$0$domain$$type_library$ 
02:00055810 $outputSerializer$outputStream_interface$0$domain$$type_library$ 
02:00055820 $stdioState$_global_class$0$domain$$type_library$ 
02:00055830 $stream$_global_class$0$domain$$type_library$ 
02:00055840 $mode$stream_interface$0$domain$$type_library$ 
--- From 'Obj\varm.637998CB.obj'
02:00055850 $varM_boolean$_global_class$0$domain$$type_library$ 
02:00055860 $varM_integer$_global_class$0$domain$$type_library$ 
02:00055870 $varM_unsigned$_global_class$0$domain$$type_library$ 
--- From 'Obj\arraym_inline.0830C9D1.obj'
02:00055880 $ptr$arrayM_inlineValue{@ItemType}_implement$0$domain$$type_library$ 
02:00055890 $arrayM_inlineValue@objectDB$arrayM_inlineValue{@ItemType}_implement$0$domain$$type_library$ 
02:000558A0 $arraym_inlinevalue$typeLibDB$arrayM_inlineValue{@ItemType}_implement$0$domain$$type_library$ 
02:000558B0 $arrayM_inline@objectDB$arrayM_inline{@ItemType}_implement$0$domain$$type_library$ 
02:000558C0 $arraym_inline$typeLibDB$arrayM_inline{@ItemType}_implement$0$domain$$type_library$ 
--- From 'Obj\redblacktree.61DB29D3.obj'
02:000558D0 $uniqueKey$redBlackTree_class$0$domain$$type_library$ 
02:000558E0 $anonymous$c0$1$empty/0$redBlackTree$redBlackTree_implement$0$domain$$type_library$ 
02:000558F0 $anonymous$c0$1$emptyUnique/0$redBlackTree$redBlackTree_implement$0$domain$$type_library$ 
--- From 'Obj\memory.F1BE59D6.obj'
02:00055900 $string$_builtIn_class$0$domain$$type_library$ 
--- From 'Obj\mapmsupport.B5C5E982.obj'
02:00055910 $mapMSupport@objectDB$collectionSupportM\mapMSupport{@Key,@Data}_implement$0$domain$$type_library$ 
02:00055920 $mapmsupport$typeLibDB$collectionSupportM\mapMSupport{@Key,@Data}_implement$0$domain$$type_library$ 
--- From 'Obj\collectionmsupport.1078EA0D.obj'
02:00055930 $collectionMsupport@objectDB$collectionSupportM\collectionMsupport{@Type}_implement$0$domain$$type_library$ 
02:00055940 $collectionmsupport$typeLibDB$collectionSupportM\collectionMsupport{@Type}_implement$0$domain$$type_library$ 
--- From 'Obj\collectionsupport.FBE6D943.obj'
02:00055950 $collectionSupport@objectDB$collectionSupport\collectionSupport{@Type}_implement$0$domain$$type_library$ 
02:00055960 $collectionsupport$typeLibDB$collectionSupport\collectionSupport{@Type}_implement$0$domain$$type_library$ 
--- From 'Obj\redblackset.D207E793.obj'
02:00055970 $anonymous$c0$1$empty/0$redBlackSet$redBlackSet_implement$0$domain$$type_library$ 
--- From 'Obj\registry_api.1F62FF31.obj'
02:00055980 $securityAttr$registry_native_class$0$domain$$type_library$ 
--- From 'Obj\mapm_redblack.B30CE1C9.obj'
02:00055990 $mapM_redBlack@objectDB$mapM_redBlack{@Key,@Data}_implement$0$domain$$type_library$ 
02:000559A0 $mapm_redblack$typeLibDB$mapM_redBlack{@Key,@Data}_implement$0$domain$$type_library$ 
--- From 'Obj\setm_redblack.93FF0DB0.obj'
02:000559B0 $setM_redBlack@objectDB$setM_redBlack{@Type}_implement$0$domain$$type_library$ 
02:000559C0 $setm_redblack$typeLibDB$setM_redBlack{@Type}_implement$0$domain$$type_library$ 
--- From 'Obj\memory.F1BE59D6.obj'
02:000559D0 $unsigned$_builtIn_class$0$domain$$type_library$ 
--- From 'Obj\exception.311FF4B8.obj'
02:000559E0 $traceInfo$exception_class$0$domain$$type_library$ 
--- From 'Obj\core.610F2EE0.obj'
02:000559F0 $programPoint$core_class$0$domain$$type_library$ 
--- From 'Obj\exceptiondump.F8208295.obj'
02:00055A00 $*$_builtIn_class$1$domain$$type_library$1$D961E81E${exception::descriptor}$ 
--- From 'Obj\exception.311FF4B8.obj'
02:00055A10 $descriptor$exception_class$0$domain$$type_library$ 
02:00055A20 $*$_builtIn_class$1$domain$$type_library$1$86504973${core::namedValue}$ 
--- From 'Obj\core.610F2EE0.obj'
02:00055A30 $namedValue$core_class$0$domain$$type_library$ 
--- From 'Obj\exceptiondump.F8208295.obj'
02:00055A40 $*$_builtIn_class$1$domain$$type_library$1$A4995D7B${exception::lineInfo}$ 
--- From 'Obj\exception.311FF4B8.obj'
02:00055A50 $lineInfo$exception_class$0$domain$$type_library$ 
02:00055A60 $kind$exception_class$0$domain$$type_library$ 
--- From 'Obj\memory.F1BE59D6.obj'
02:00055A70 $unsignedNative$_builtIn_class$0$domain$$type_library$ 
--- From 'Obj\main.A22FE9BF.obj'
02:00055A80 $boolean$_builtIn_class$0$domain$$type_library$ 
--- From 'Obj\memory.F1BE59D6.obj'
02:00055A90 $unsigned64$_builtIn_class$0$domain$$type_library$ 
02:00055AA0 $integer64$_builtIn_class$0$domain$$type_library$ 
02:00055AB0 $integer$_builtIn_class$0$domain$$type_library$ 
02:00055AC0 $real$_builtIn_class$0$domain$$type_library$ 
02:00055AD0 $char$_builtIn_class$0$domain$$type_library$ 
02:00055AE0 $handle$_builtIn_class$0$domain$$type_library$ 
02:00055AF0 $string8$_builtIn_class$0$domain$$type_library$ 
02:00055B00 $binary$_builtIn_class$0$domain$$type_library$ 
02:00055B10 $binaryNonAtomic$_builtIn_class$0$domain$$type_library$ 
--- From 'Obj\exception.311FF4B8.obj'
02:00055B20 $pfc\reflection\functorDescriptor$_global_class$0$domain$$type_library$ 
02:00055B30 $pfc\reflection\scopeDescriptor$_global_class$0$domain$$type_library$ 
02:00055B40 $scopeKind$pfc\reflection\scopeDescriptor_interface$0$domain$$type_library$ 
02:00055B50 $pfc\reflection\typeLibrary$_global_class$0$domain$$type_library$ 
02:00055B60 $wrapPresenter$pfc\reflection\typeLibrary_interface$0$domain$$type_library$ 
02:00055B70 $pfc\reflection\typeLibrary_functor$_global_class$0$domain$$type_library$ 
--- From 'Obj\exe_api.F27809B9.obj'
02:00055B80 $outputStream_string$_global_class$0$domain$$type_library$ 
02:00055B90 $contentsChangedListener$outputStream_string_interface$0$domain$$type_library$ 
--- From 'Obj\filesystem.14FC0F0E.obj'
02:00055BA0 $iStream_native$_global_class$0$domain$$type_library$ 
02:00055BB0 $iUnknown$_global_class$0$domain$$type_library$ 
--- From 'Obj\shell_api.76DAFA28.obj'
02:00055BC0 $shellExecuteInfo$shell_native_class$0$domain$$type_library$ 
02:00055BD0 $appBarData$shell_native_class$0$domain$$type_library$ 
02:00055BE0 $shFileOpStruct$shell_native_class$0$domain$$type_library$ 
02:00055BF0 $sHNameMapping$shell_native_class$0$domain$$type_library$ 
02:00055C00 $shQueryRBinfo$shell_native_class$0$domain$$type_library$ 
02:00055C10 $notifyIcondata$shell_native_class$0$domain$$type_library$ 
02:00055C20 $sHFileInfo$shell_native_class$0$domain$$type_library$ 
02:00055C30 $browseinfo$shell_native_class$0$domain$$type_library$ 
02:00055C40 $browseCallbackProc$shell_native_class$0$domain$$type_library$ 
02:00055C50 $shard$shell_native_class$0$domain$$type_library$ 
--- From 'Obj\varm.637998CB.obj'
02:00055C60 $reference$varM_reference{@Term}_class$0$domain$$type_library$ 
02:00055C70 $varM_reference@objectDB$varM_reference{@Term}_implement$0$domain$$type_library$ 
02:00055C80 $varm_reference$typeLibDB$varM_reference{@Term}_implement$0$domain$$type_library$ 
02:00055C90 $varm_optional$typeLibDB$varM_optional{@Term}_implement$0$domain$$type_library$ 
02:00055CA0 $varM@objectDB$varM{@Term}_implement$0$domain$$type_library$ 
02:00055CB0 $varm$typeLibDB$varM{@Term}_implement$0$domain$$type_library$ 
02:00055CC0 $anonymous$o0$1$newmodel_unary/2np$varM{@Term}$varM{@Term}_implement$0$domain$$type_library$ 
02:00055CD0 $anonymous$o0$2$newmodel_unary/2np$varM{@Term}$varM{@Term}_implement$0$domain$$type_library$ 
02:00055CE0 $anonymous$o0$1$newmodel_binary/3np$varM{@Term}$varM{@Term}_implement$0$domain$$type_library$ 
02:00055CF0 $anonymous$o0$2$newmodel_binary/3np$varM{@Term}$varM{@Term}_implement$0$domain$$type_library$ 
--- From 'Obj\filesystem_api.EE6511E1.obj'
02:00055D00 $inputBuffer$_global_class$0$domain$$type_library$ 
02:00055D10 $inputSupport$_global_class$0$domain$$type_library$ 
02:00055D20 $outputBuffer$_global_class$0$domain$$type_library$ 
02:00055D30 $outputSupport$_global_class$0$domain$$type_library$ 
--- From 'Obj\binary.81E0542A.obj'
02:00055D40 $outputStream_binary@objectDB$outputStream_binary_implement$0$domain$$type_library$ 
02:00055D50 $inputStream_binary@objectDB$inputStream_binary_implement$0$domain$$type_library$ 
--- From 'Obj\filesystem.14FC0F0E.obj'
02:00055D60 $codePage$fileVersion_implement$0$domain$$type_library$ 
02:00055D70 $languagex$fileVersion_implement$0$domain$$type_library$ 
02:00055D80 $outputStream_file@objectDB$outputStream_file_implement$0$domain$$type_library$ 
02:00055D90 $messageFile@objectDB$messageFile_implement$0$domain$$type_library$ 
02:00055DA0 $anonymous$o0$1$write/0ep$messageFile$messageFile_implement$0$domain$$type_library$ 
02:00055DB0 $anonymous$o0$1$writef/1ep$messageFile$messageFile_implement$0$domain$$type_library$ 
02:00055DC0 $anonymous$o0$1$writequoted/0ep$messageFile$messageFile_implement$0$domain$$type_library$ 
02:00055DD0 $anonymous$o0$1$writebytes/2np$messageFile$messageFile_implement$0$domain$$type_library$ 
02:00055DE0 $anonymous$o0$1$save/1np$messageFile$messageFile_implement$0$domain$$type_library$ 
02:00055DF0 $inputStream_file@objectDB$inputStream_file_implement$0$domain$$type_library$ 
02:00055E00 $versionInformation$fileVersion_class$0$domain$$type_library$ 
02:00055E10 $fileVersionInformation$fileVersion_class$0$domain$$type_library$ 
02:00055E20 $twoInt$fileVersion_implement$0$domain$$type_library$ 
02:00055E30 $pTwoInt$fileVersion_implement$0$domain$$type_library$ 
02:00055E40 $vs_fixedfileinfo$fileVersion_implement$0$domain$$type_library$ 
02:00055E50 $pvs_fixedfileinfo$fileVersion_implement$0$domain$$type_library$ 
02:00055E60 $overwrite$file_class$0$domain$$type_library$ 
02:00055E70 $volumeType$directory_class$0$domain$$type_library$ 
--- From 'Obj\string.79FC483E.obj'
02:00055E80 $tuple$core_class$2$domain$$type_library$2$EA1C4A82${::real,::string}$ 
02:00055E90 $caseSensitivity$string_class$0$domain$$type_library$ 
02:00055EA0 $adjustBehaviour$string_class$0$domain$$type_library$ 
02:00055EB0 $adjustSide$string_class$0$domain$$type_library$ 
02:00055EC0 $oneSymbolString$string_implement$0$domain$$type_library$ 
02:00055ED0 $outputStream_string@objectDB$outputStream_string_implement$0$domain$$type_library$ 
02:00055EE0 $anonymous$c0$1$getstring/2nf$outputStream_string$outputStream_string_implement$0$domain$$type_library$ 
02:00055EF0 $anonymous$c0$1$getstring/3nf$outputStream_string$outputStream_string_implement$0$domain$$type_library$ 
02:00055F00 $anonymous$c0$1$getstring/4nf$outputStream_string$outputStream_string_implement$0$domain$$type_library$ 
02:00055F10 $anonymous$c0$1$getstring/5nf$outputStream_string$outputStream_string_implement$0$domain$$type_library$ 
02:00055F20 $inputStream_string@objectDB$inputStream_string_implement$0$domain$$type_library$ 
--- From 'Obj\inputstreamsupport.B96A0569.obj'
02:00055F30 $inputSupport@objectDB$inputSupport_implement$0$domain$$type_library$ 
--- From 'Obj\core.610F2EE0.obj'
02:00055F40 $predicate$core_class$1$domain$$type_library$ 
--- From 'Obj\outputstreamsupport.9F52D3AC.obj'
02:00055F50 $outputSupport@objectDB$outputSupport_implement$0$domain$$type_library$ 
--- From 'Obj\exe.0BB6E1A4.obj'
02:00055F60 $mainExe@classDB$mainExe_implement$0$domain$$type_library$ 
--- From 'Obj\list.90A37E7A.obj'
02:00055F70 $anonymous$c0$1$comparelexically/1nf$list$list_implement$0$domain$$type_library$ 
02:00055F80 $anonymous$c0$1$comp2eq/1nf$list$list_implement$0$domain$$type_library$ 
02:00055F90 $anonymous$c0$1$sortby/3nf$list$list_implement$0$domain$$type_library$ 
02:00055FA0 $anonymous$c0$1$sort/1$list$list_implement$0$domain$$type_library$ 
02:00055FB0 $anonymous$c0$1$sort/2nf$list$list_implement$0$domain$$type_library$ 
02:00055FC0 $anonymous$c0$1$removeConsecutiveDuplicates/1$list$list_implement$0$domain$$type_library$ 
02:00055FD0 $anonymous$c0$1$splitafter/2nf$list$list_implement$0$domain$$type_library$ 
02:00055FE0 $anonymous$c0$1$maximum/1$list$list_implement$0$domain$$type_library$ 
02:00055FF0 $anonymous$c0$1$minimumby/2nf$list$list_implement$0$domain$$type_library$ 
02:00056000 $anonymous$c0$1$minimum/1$list$list_implement$0$domain$$type_library$ 
02:00056010 $anonymous$c0$1$groupbyeq/2nf$list$list_implement$0$domain$$type_library$ 
02:00056020 $anonymous$c0$1$foldr/3nf$list$list_implement$0$domain$$type_library$ 
--- From 'Obj\math.8BE40BD3.obj'
02:00056030 $inCircle$math_class$0$domain$$type_library$ 
02:00056040 $aPeriod$math_class$0$domain$$type_library$ 
02:00056050 $uReal$math_class$0$domain$$type_library$ 
--- From 'Obj\registry.750278BD.obj'
02:00056060 $rootKey$registry_class$0$domain$$type_library$ 
02:00056070 $registryView$registry_class$0$domain$$type_library$ 
--- From 'Obj\systeminformation_api.720D241D.obj'
02:00056080 $system_Info$systemInformation_native_class$0$domain$$type_library$ 
02:00056090 $nonclientMetrics$systemInformation_native_class$0$domain$$type_library$ 
02:000560A0 $nonclientMetricsXP$systemInformation_native_class$0$domain$$type_library$ 
02:000560B0 $osVersionInfo$systemInformation_native_class$0$domain$$type_library$ 
02:000560C0 $osVersionInfoEX$systemInformation_native_class$0$domain$$type_library$ 
02:000560D0 $systemInformation_api@classDB$systemInformation_api_implement$0$domain$$type_library$ 
--- From 'Obj\core.610F2EE0.obj'
02:000560E0 $value$core_class$0$domain$$type_library$ 
--- From 'Obj\reflection.87B371B1.obj'
02:000560F0 $typeKind$pfc\reflection\reflection_class$0$domain$$type_library$ 
02:00056100 $anyTermValue$pfc\reflection\reflection_native_class$0$domain$$type_library$ 
02:00056110 $factDbValue$pfc\reflection\reflection_native_class$0$domain$$type_library$ 
02:00056120 $prologPredicateValue$pfc\reflection\reflection_native_class$0$domain$$type_library$ 
02:00056130 $predicateMode$pfc\reflection\reflection_class$0$domain$$type_library$ 
02:00056140 $functor$pfc\reflection\reflection_class$0$domain$$type_library$ 
02:00056150 $callingConvention$pfc\reflection\reflection_class$0$domain$$type_library$ 
--- From 'Obj\memory_api.066136AF.obj'
02:00056160 $memory_basic_information$memory_native_class$0$domain$$type_library$ 
02:00056170 $memoryStatusEx$memory_native_class$0$domain$$type_library$ 
--- From 'Obj\memory.F1BE59D6.obj'
02:00056180 $unsigned16$core_class$0$domain$$type_library$ 
--- From 'Obj\runtime_api.AAF7A8D0.obj'
02:00056190 $runtime_api@classDB$runtime_api_implement$0$domain$$type_library$ 
--- From 'Obj\event.5E0B1F78.obj'
02:000561A0 $event7@objectDB$event7{@Source,@Type1,@Type2,@Type3,@Type4,@Type5,@Type6,@Type7}_implement$0$domain$$type_library$ 
02:000561B0 $event7$typeLibDB$event7{@Source,@Type1,@Type2,@Type3,@Type4,@Type5,@Type6,@Type7}_implement$0$domain$$type_library$ 
02:000561C0 $anonymous$o0$1$addlistener/2np$event7{@Source,@Type1,@Type2,@Type3,@Type4,@Type5,@Type6,@Type7}$event7{@Source,@Type1,@Type2,@Type3,@Type4,@Type5,@Type6,@Type7}_implement$0$domain$$type_library$ 
02:000561D0 $anonymous$o1$1$addlistener/2np$event7{@Source,@Type1,@Type2,@Type3,@Type4,@Type5,@Type6,@Type7}$event7{@Source,@Type1,@Type2,@Type3,@Type4,@Type5,@Type6,@Type7}_implement$0$domain$$type_library$ 
02:000561E0 $anonymous$o2$1$addlistener/2np$event7{@Source,@Type1,@Type2,@Type3,@Type4,@Type5,@Type6,@Type7}$event7{@Source,@Type1,@Type2,@Type3,@Type4,@Type5,@Type6,@Type7}_implement$0$domain$$type_library$ 
02:000561F0 $anonymous$o3$1$addlistener/2np$event7{@Source,@Type1,@Type2,@Type3,@Type4,@Type5,@Type6,@Type7}$event7{@Source,@Type1,@Type2,@Type3,@Type4,@Type5,@Type6,@Type7}_implement$0$domain$$type_library$ 
02:00056200 $anonymous$o4$1$addlistener/2np$event7{@Source,@Type1,@Type2,@Type3,@Type4,@Type5,@Type6,@Type7}$event7{@Source,@Type1,@Type2,@Type3,@Type4,@Type5,@Type6,@Type7}_implement$0$domain$$type_library$ 
02:00056210 $anonymous$o5$1$addlistener/2np$event7{@Source,@Type1,@Type2,@Type3,@Type4,@Type5,@Type6,@Type7}$event7{@Source,@Type1,@Type2,@Type3,@Type4,@Type5,@Type6,@Type7}_implement$0$domain$$type_library$ 
02:00056220 $anonymous$o6$1$addlistener/2np$event7{@Source,@Type1,@Type2,@Type3,@Type4,@Type5,@Type6,@Type7}$event7{@Source,@Type1,@Type2,@Type3,@Type4,@Type5,@Type6,@Type7}_implement$0$domain$$type_library$ 
02:00056230 $anonymous$o7$1$addlistener/2np$event7{@Source,@Type1,@Type2,@Type3,@Type4,@Type5,@Type6,@Type7}$event7{@Source,@Type1,@Type2,@Type3,@Type4,@Type5,@Type6,@Type7}_implement$0$domain$$type_library$ 
02:00056240 $event6@objectDB$event6{@Source,@Type1,@Type2,@Type3,@Type4,@Type5,@Type6}_implement$0$domain$$type_library$ 
02:00056250 $event6$typeLibDB$event6{@Source,@Type1,@Type2,@Type3,@Type4,@Type5,@Type6}_implement$0$domain$$type_library$ 
02:00056260 $anonymous$o0$1$addlistener/2np$event6{@Source,@Type1,@Type2,@Type3,@Type4,@Type5,@Type6}$event6{@Source,@Type1,@Type2,@Type3,@Type4,@Type5,@Type6}_implement$0$domain$$type_library$ 
02:00056270 $anonymous$o1$1$addlistener/2np$event6{@Source,@Type1,@Type2,@Type3,@Type4,@Type5,@Type6}$event6{@Source,@Type1,@Type2,@Type3,@Type4,@Type5,@Type6}_implement$0$domain$$type_library$ 
02:00056280 $anonymous$o2$1$addlistener/2np$event6{@Source,@Type1,@Type2,@Type3,@Type4,@Type5,@Type6}$event6{@Source,@Type1,@Type2,@Type3,@Type4,@Type5,@Type6}_implement$0$domain$$type_library$ 
02:00056290 $anonymous$o3$1$addlistener/2np$event6{@Source,@Type1,@Type2,@Type3,@Type4,@Type5,@Type6}$event6{@Source,@Type1,@Type2,@Type3,@Type4,@Type5,@Type6}_implement$0$domain$$type_library$ 
02:000562A0 $anonymous$o4$1$addlistener/2np$event6{@Source,@Type1,@Type2,@Type3,@Type4,@Type5,@Type6}$event6{@Source,@Type1,@Type2,@Type3,@Type4,@Type5,@Type6}_implement$0$domain$$type_library$ 
02:000562B0 $anonymous$o5$1$addlistener/2np$event6{@Source,@Type1,@Type2,@Type3,@Type4,@Type5,@Type6}$event6{@Source,@Type1,@Type2,@Type3,@Type4,@Type5,@Type6}_implement$0$domain$$type_library$ 
02:000562C0 $anonymous$o6$1$addlistener/2np$event6{@Source,@Type1,@Type2,@Type3,@Type4,@Type5,@Type6}$event6{@Source,@Type1,@Type2,@Type3,@Type4,@Type5,@Type6}_implement$0$domain$$type_library$ 
02:000562D0 $event5@objectDB$event5{@Source,@Type1,@Type2,@Type3,@Type4,@Type5}_implement$0$domain$$type_library$ 
02:000562E0 $event5$typeLibDB$event5{@Source,@Type1,@Type2,@Type3,@Type4,@Type5}_implement$0$domain$$type_library$ 
02:000562F0 $anonymous$o0$1$addlistener/2np$event5{@Source,@Type1,@Type2,@Type3,@Type4,@Type5}$event5{@Source,@Type1,@Type2,@Type3,@Type4,@Type5}_implement$0$domain$$type_library$ 
02:00056300 $anonymous$o1$1$addlistener/2np$event5{@Source,@Type1,@Type2,@Type3,@Type4,@Type5}$event5{@Source,@Type1,@Type2,@Type3,@Type4,@Type5}_implement$0$domain$$type_library$ 
02:00056310 $anonymous$o2$1$addlistener/2np$event5{@Source,@Type1,@Type2,@Type3,@Type4,@Type5}$event5{@Source,@Type1,@Type2,@Type3,@Type4,@Type5}_implement$0$domain$$type_library$ 
02:00056320 $anonymous$o3$1$addlistener/2np$event5{@Source,@Type1,@Type2,@Type3,@Type4,@Type5}$event5{@Source,@Type1,@Type2,@Type3,@Type4,@Type5}_implement$0$domain$$type_library$ 
02:00056330 $anonymous$o4$1$addlistener/2np$event5{@Source,@Type1,@Type2,@Type3,@Type4,@Type5}$event5{@Source,@Type1,@Type2,@Type3,@Type4,@Type5}_implement$0$domain$$type_library$ 
02:00056340 $anonymous$o5$1$addlistener/2np$event5{@Source,@Type1,@Type2,@Type3,@Type4,@Type5}$event5{@Source,@Type1,@Type2,@Type3,@Type4,@Type5}_implement$0$domain$$type_library$ 
02:00056350 $event4@objectDB$event4{@Source,@Type1,@Type2,@Type3,@Type4}_implement$0$domain$$type_library$ 
02:00056360 $event4$typeLibDB$event4{@Source,@Type1,@Type2,@Type3,@Type4}_implement$0$domain$$type_library$ 
02:00056370 $anonymous$o0$1$addlistener/2np$event4{@Source,@Type1,@Type2,@Type3,@Type4}$event4{@Source,@Type1,@Type2,@Type3,@Type4}_implement$0$domain$$type_library$ 
02:00056380 $anonymous$o1$1$addlistener/2np$event4{@Source,@Type1,@Type2,@Type3,@Type4}$event4{@Source,@Type1,@Type2,@Type3,@Type4}_implement$0$domain$$type_library$ 
02:00056390 $anonymous$o2$1$addlistener/2np$event4{@Source,@Type1,@Type2,@Type3,@Type4}$event4{@Source,@Type1,@Type2,@Type3,@Type4}_implement$0$domain$$type_library$ 
02:000563A0 $anonymous$o3$1$addlistener/2np$event4{@Source,@Type1,@Type2,@Type3,@Type4}$event4{@Source,@Type1,@Type2,@Type3,@Type4}_implement$0$domain$$type_library$ 
02:000563B0 $anonymous$o4$1$addlistener/2np$event4{@Source,@Type1,@Type2,@Type3,@Type4}$event4{@Source,@Type1,@Type2,@Type3,@Type4}_implement$0$domain$$type_library$ 
02:000563C0 $anonymous$o5$1$addlistener/2np$event4{@Source,@Type1,@Type2,@Type3,@Type4}$event4{@Source,@Type1,@Type2,@Type3,@Type4}_implement$0$domain$$type_library$ 
02:000563D0 $event3@objectDB$event3{@Source,@Type1,@Type2,@Type3}_implement$0$domain$$type_library$ 
02:000563E0 $event3$typeLibDB$event3{@Source,@Type1,@Type2,@Type3}_implement$0$domain$$type_library$ 
02:000563F0 $anonymous$o0$1$addlistener/2np$event3{@Source,@Type1,@Type2,@Type3}$event3{@Source,@Type1,@Type2,@Type3}_implement$0$domain$$type_library$ 
02:00056400 $anonymous$o1$1$addlistener/2np$event3{@Source,@Type1,@Type2,@Type3}$event3{@Source,@Type1,@Type2,@Type3}_implement$0$domain$$type_library$ 
02:00056410 $anonymous$o2$1$addlistener/2np$event3{@Source,@Type1,@Type2,@Type3}$event3{@Source,@Type1,@Type2,@Type3}_implement$0$domain$$type_library$ 
02:00056420 $anonymous$o3$1$addlistener/2np$event3{@Source,@Type1,@Type2,@Type3}$event3{@Source,@Type1,@Type2,@Type3}_implement$0$domain$$type_library$ 
02:00056430 $anonymous$o4$1$addlistener/2np$event3{@Source,@Type1,@Type2,@Type3}$event3{@Source,@Type1,@Type2,@Type3}_implement$0$domain$$type_library$ 
02:00056440 $anonymous$o5$1$addlistener/2np$event3{@Source,@Type1,@Type2,@Type3}$event3{@Source,@Type1,@Type2,@Type3}_implement$0$domain$$type_library$ 
02:00056450 $event2@objectDB$event2{@Source,@Type1,@Type2}_implement$0$domain$$type_library$ 
02:00056460 $event2$typeLibDB$event2{@Source,@Type1,@Type2}_implement$0$domain$$type_library$ 
02:00056470 $anonymous$o0$1$addlistener/2np$event2{@Source,@Type1,@Type2}$event2{@Source,@Type1,@Type2}_implement$0$domain$$type_library$ 
02:00056480 $anonymous$o1$1$addlistener/2np$event2{@Source,@Type1,@Type2}$event2{@Source,@Type1,@Type2}_implement$0$domain$$type_library$ 
02:00056490 $anonymous$o2$1$addlistener/2np$event2{@Source,@Type1,@Type2}$event2{@Source,@Type1,@Type2}_implement$0$domain$$type_library$ 
02:000564A0 $anonymous$o3$1$addlistener/2np$event2{@Source,@Type1,@Type2}$event2{@Source,@Type1,@Type2}_implement$0$domain$$type_library$ 
02:000564B0 $anonymous$o4$1$addlistener/2np$event2{@Source,@Type1,@Type2}$event2{@Source,@Type1,@Type2}_implement$0$domain$$type_library$ 
02:000564C0 $anonymous$o5$1$addlistener/2np$event2{@Source,@Type1,@Type2}$event2{@Source,@Type1,@Type2}_implement$0$domain$$type_library$ 
02:000564D0 $event1@objectDB$event1{@Source,@Type1}_implement$0$domain$$type_library$ 
02:000564E0 $event1$typeLibDB$event1{@Source,@Type1}_implement$0$domain$$type_library$ 
02:000564F0 $anonymous$o0$1$addlistener/2np$event1{@Source,@Type1}$event1{@Source,@Type1}_implement$0$domain$$type_library$ 
02:00056500 $anonymous$o1$1$addlistener/2np$event1{@Source,@Type1}$event1{@Source,@Type1}_implement$0$domain$$type_library$ 
02:00056510 $anonymous$o2$1$addlistener/2np$event1{@Source,@Type1}$event1{@Source,@Type1}_implement$0$domain$$type_library$ 
02:00056520 $anonymous$o3$1$addlistener/2np$event1{@Source,@Type1}$event1{@Source,@Type1}_implement$0$domain$$type_library$ 
02:00056530 $anonymous$o4$1$addlistener/2np$event1{@Source,@Type1}$event1{@Source,@Type1}_implement$0$domain$$type_library$ 
02:00056540 $anonymous$o5$1$addlistener/2np$event1{@Source,@Type1}$event1{@Source,@Type1}_implement$0$domain$$type_library$ 
02:00056550 $event0@objectDB$event0{@Source}_implement$0$domain$$type_library$ 
02:00056560 $event0$typeLibDB$event0{@Source}_implement$0$domain$$type_library$ 
02:00056570 $anonymous$o0$1$addlistener/2np$event0{@Source}$event0{@Source}_implement$0$domain$$type_library$ 
02:00056580 $anonymous$o1$1$addlistener/2np$event0{@Source}$event0{@Source}_implement$0$domain$$type_library$ 
02:00056590 $anonymous$o2$1$addlistener/2np$event0{@Source}$event0{@Source}_implement$0$domain$$type_library$ 
02:000565A0 $anonymous$o3$1$addlistener/2np$event0{@Source}$event0{@Source}_implement$0$domain$$type_library$ 
02:000565B0 $anonymous$o4$1$addlistener/2np$event0{@Source}$event0{@Source}_implement$0$domain$$type_library$ 
02:000565C0 $anonymous$o5$1$addlistener/2np$event0{@Source}$event0{@Source}_implement$0$domain$$type_library$ 
--- From 'Obj\time_api.3BF8D4E6.obj'
02:000565D0 $systemTime$time_native_class$0$domain$$type_library$ 
02:000565E0 $timeZoneAPI$time_native_class$0$domain$$type_library$ 
--- From 'Obj\filesystem_api.EE6511E1.obj'
02:000565F0 $fileTime$time_native_class$0$domain$$type_library$ 
--- From 'Obj\time_api.3BF8D4E6.obj'
02:00056600 $reg_tzi_format$time_native_class$0$domain$$type_library$ 
--- From 'Obj\locale_api.2F2FFAF4.obj'
02:00056610 $stdBoolFunc$locale_native_class$1$domain$$type_library$ 
02:00056620 $stdBoolFunc$locale_native_class$2$domain$$type_library$ 
02:00056630 $stdBoolFunc$locale_native_class$4$domain$$type_library$ 
02:00056640 $stdBoolFunc$locale_native_class$5$domain$$type_library$ 
02:00056650 $numberfmt$locale_native_class$0$domain$$type_library$ 
--- From 'Obj\gui_api.9DA8CF80.obj'
02:00056660 $scrollInfo$gui_native_class$0$domain$$type_library$ 
02:00056670 $size$gui_native_class$0$domain$$type_library$ 
02:00056680 $textmetric$gui_native_class$0$domain$$type_library$ 
02:00056690 $dlgItemTemplate$gui_api_class$0$domain$$type_library$ 
--- From 'Obj\memory.F1BE59D6.obj'
02:000566A0 $integer16$core_class$0$domain$$type_library$ 
02:000566B0 $unsigned8$core_class$0$domain$$type_library$ 
--- From 'Obj\gui_api.9DA8CF80.obj'
02:000566C0 $paintStruct$gui_native_class$0$domain$$type_library$ 
--- From 'Obj\vpidomains.97964869.obj'
02:000566D0 $rct$vpiDomains_class$0$domain$$type_library$ 
--- From 'Obj\gui_api.9DA8CF80.obj'
02:000566E0 $accel$gui_native_class$0$domain$$type_library$ 
02:000566F0 $msg$gui_native_class$0$domain$$type_library$ 
02:00056700 $menuItemInfo$gui_native_class$0$domain$$type_library$ 
02:00056710 $input$gui_native_class$0$domain$$type_library$ 
02:00056720 $iconInfo$gui_native_class$0$domain$$type_library$ 
--- From 'Obj\vpidomains.97964869.obj'
02:00056730 $logfont$gui_native_class$0$domain$$type_library$ 
--- From 'Obj\gui_api.9DA8CF80.obj'
02:00056740 $mouseMovePoint$gui_native_class$0$domain$$type_library$ 
02:00056750 $enumDesktopProc$gui_native_class$0$domain$$type_library$ 
02:00056760 $enumWindowStationProc$gui_native_class$0$domain$$type_library$ 
02:00056770 $copyDataStruct$gui_native_class$0$domain$$type_library$ 
02:00056780 $trackMouseEvent$gui_native_class$0$domain$$type_library$ 
02:00056790 $sendAsyncProc$gui_native_class$0$domain$$type_library$ 
02:000567A0 $wndProc$gui_native_class$0$domain$$type_library$ 
02:000567B0 $wndClassEx$gui_native_class$0$domain$$type_library$ 
02:000567C0 $createstruct$gui_native_class$0$domain$$type_library$ 
02:000567D0 $flashInfo$gui_native_class$0$domain$$type_library$ 
02:000567E0 $windowPos$gui_native_class$0$domain$$type_library$ 
02:000567F0 $windowPlacement$gui_native_class$0$domain$$type_library$ 
02:00056800 $windowInfo$gui_native_class$0$domain$$type_library$ 
02:00056810 $monitorInfo$gui_native_class$0$domain$$type_library$ 
02:00056820 $monitorInfoEx$gui_native_class$0$domain$$type_library$ 
02:00056830 $monitorEnumProc$gui_native_class$0$domain$$type_library$ 
02:00056840 $dlgTemplate$gui_native_class$0$domain$$type_library$ 
02:00056850 $dlgItemTemplate$gui_native_class$0$domain$$type_library$ 
02:00056860 $dlgTemplateEx$gui_native_class$0$domain$$type_library$ 
02:00056870 $timerProc$gui_native_class$0$domain$$type_library$ 
02:00056880 $drawTextParams$gui_native_class$0$domain$$type_library$ 
02:00056890 $grayStringProc$gui_native_class$0$domain$$type_library$ 
02:000568A0 $drawStateProc$gui_native_class$0$domain$$type_library$ 
02:000568B0 $propEnumProc$gui_native_class$0$domain$$type_library$ 
02:000568C0 $helpInfo$gui_native_class$0$domain$$type_library$ 
02:000568D0 $wndEnumProc$gui_native_class$0$domain$$type_library$ 
02:000568E0 $gaFlags$gui_native_class$0$domain$$type_library$ 
02:000568F0 $hookProc$gui_native_class$0$domain$$type_library$ 
02:00056900 $kbdllhookstruct$gui_native_class$0$domain$$type_library$ 
02:00056910 $buttonImageList$gui_native_class$0$domain$$type_library$ 
02:00056920 $button_imageList_align$gui_native_class$0$domain$$type_library$ 
02:00056930 $nmBcHotItem$gui_native_class$0$domain$$type_library$ 
02:00056940 $button_splitInfo$gui_native_class$0$domain$$type_library$ 
02:00056950 $nmBcDropdown$gui_native_class$0$domain$$type_library$ 
02:00056960 $nmhdr$gui_native_class$0$domain$$type_library$ 
02:00056970 $nmCustomDraw$gui_native_class$0$domain$$type_library$ 
02:00056980 $scrollBarInfo$gui_native_class$0$domain$$type_library$ 
02:00056990 $logbrush$gui_native_class$0$domain$$type_library$ 
02:000569A0 $tcItem$gui_native_class$0$domain$$type_library$ 
02:000569B0 $tagInitCommonControlsEx$gui_native_class$0$domain$$type_library$ 
02:000569C0 $logPalette$gui_native_class$0$domain$$type_library$ 
02:000569D0 $mouseInput$gui_native_class$0$domain$$type_library$ 
02:000569E0 $keybdInput$gui_native_class$0$domain$$type_library$ 
02:000569F0 $hardwareInput$gui_native_class$0$domain$$type_library$ 
02:00056A00 $inputUnion$gui_native_class$0$domain$$type_library$ 
02:00056A10 $toolinfo$gui_native_class$0$domain$$type_library$ 
02:00056A20 $nmttdispInfo$gui_native_class$0$domain$$type_library$ 
02:00056A30 $blendFunction$gui_native_class$0$domain$$type_library$ 
02:00056A40 $chooseFont$gui_native_class$0$domain$$type_library$ 
02:00056A50 $printdlg$gui_native_class$0$domain$$type_library$ 
02:00056A60 $printdlgEx$gui_native_class$0$domain$$type_library$ 
02:00056A70 $inputUnion_mi$gui_native_class$0$domain$$type_library$ 
02:00056A80 $inputUnion_ki$gui_native_class$0$domain$$type_library$ 
02:00056A90 $inputUnion_hi$gui_native_class$0$domain$$type_library$ 
02:00056AA0 $scrollInfo$gui_api_class$0$domain$$type_library$ 
02:00056AB0 $windowPlacement$gui_api_class$0$domain$$type_library$ 
02:00056AC0 $dlgTemplate$gui_api_class$0$domain$$type_library$ 
02:00056AD0 $varArray$gui_api_class$0$domain$$type_library$ 
02:00056AE0 $monitorInfo$gui_api_class$0$domain$$type_library$ 
02:00056AF0 $anonymous$c0$1$sendinput/1np$gui_api$gui_api_implement$0$domain$$type_library$ 
--- From 'Obj\vpidomains.97964869.obj'
02:00056B00 $pnt$vpiDomains_class$0$domain$$type_library$ 
02:00056B10 $brush$vpiDomains_class$0$domain$$type_library$ 
02:00056B20 $pen$vpiDomains_class$0$domain$$type_library$ 
02:00056B30 $drawtools$vpiDomains_class$0$domain$$type_library$ 
02:00056B40 $menu$vpiDomains_class$0$domain$$type_library$ 
02:00056B50 $keyModifier$vpiDomains_class$0$domain$$type_library$ 
02:00056B60 $acceleratorKey$vpiDomains_class$0$domain$$type_library$ 
02:00056B70 $menuItem$vpiDomains_class$0$domain$$type_library$ 
02:00056B80 $event$vpiDomains_class$0$domain$$type_library$ 
02:00056B90 $controlInfo$vpiDomains_class$0$domain$$type_library$ 
02:00056BA0 $stateInfo$vpiDomains_class$0$domain$$type_library$ 
02:00056BB0 $windef$vpiDomains_class$0$domain$$type_library$ 
02:00056BC0 $wdef$vpiDomains_class$0$domain$$type_library$ 
02:00056BD0 $errhandler$vpiDomains_class$0$domain$$type_library$ 
02:00056BE0 $eHandler$vpiDomains_class$0$domain$$type_library$ 
02:00056BF0 $accelerator$vpiDomains_class$0$domain$$type_library$ 
02:00056C00 $bitmapId$vpiDomains_class$0$domain$$type_library$ 
02:00056C10 $ddeserviceInfo$vpiDomains_class$0$domain$$type_library$ 
02:00056C20 $ddedata$vpiDomains_class$0$domain$$type_library$ 
02:00056C30 $ddeevent$vpiDomains_class$0$domain$$type_library$ 
02:00056C40 $alignment$vpiDomains_class$0$domain$$type_library$ 
--- From 'Obj\exception.311FF4B8.obj'
02:00056C50 $programPointDescriptor$exception_class$0$domain$$type_library$ 
02:00056C60 $errorDescriptorInformation@objectDB$errorDescriptorInformation_implement$0$domain$$type_library$ 
--- From 'Obj\programcontrol.D3F4CEF5.obj'
02:00056C70 $exceptionRaiser$programControl_class$0$domain$$type_library$ 
02:00056C80 $deObject$programControl_implement$0$domain$$type_library$ 
--- From 'Obj\multithread_api.53CE32BC.obj'
02:00056C90 $selectorEntry$multiThread_native_class$0$domain$$type_library$ 
02:00056CA0 $timerAPCProc$multiThread_native_class$0$domain$$type_library$ 
02:00056CB0 $startupInfo$multiThread_native_class$0$domain$$type_library$ 
02:00056CC0 $processInformation$multiThread_native_class$0$domain$$type_library$ 
02:00056CD0 $threadRunnable$multiThread_native_class$0$domain$$type_library$ 
02:00056CE0 $critical_section$multiThread_native_class$0$domain$$type_library$ 
02:00056CF0 $m128A$multiThread_native_class$0$domain$$type_library$ 
02:00056D00 $cache_descriptor$multiThread_native_class$0$domain$$type_library$ 
02:00056D10 $system_logical_processor_information$multiThread_native_class$0$domain$$type_library$ 
02:00056D20 $isWOW64Process_func$multiThread_api_implement$0$domain$$type_library$ 
02:00056D30 $multiThread_api@classDB$multiThread_api_implement$0$domain$$type_library$ 
--- From 'Obj\windowsapi.9B3D04D6.obj'
02:00056D40 $security_descriptor$windowsAPI_class$0$domain$$type_library$ 
02:00056D50 $acl$windowsAPI_class$0$domain$$type_library$ 
02:00056D60 $security_attributes$windowsAPI_class$0$domain$$type_library$ 
--- From 'Obj\console.22208CC2.obj'
02:00056D70 $outputStream_console@objectDB$outputStream_console_implement$0$domain$$type_library$ 
02:00056D80 $inputStream_console@objectDB$inputStream_console_implement$0$domain$$type_library$ 
02:00056D90 $event$console_class$0$domain$$type_library$ 
02:00056DA0 $console@classDB$console_implement$0$domain$$type_library$ 
02:00056DB0 $anonymous$c0$1$run/3np$console$console_implement$0$domain$$type_library$ 
--- From 'Obj\core.610F2EE0.obj'
02:00056DC0 $resourceIdentifiers$_global_class$0$domain$$type_library$ 
02:00056DD0 $unit$core_class$0$domain$$type_library$ 
02:00056DE0 $unsigned64_struct$core_class$0$domain$$type_library$ 
--- From 'Obj\memory.F1BE59D6.obj'
02:00056DF0 $integer8$core_class$0$domain$$type_library$ 
--- From 'Obj\core.610F2EE0.obj'
02:00056E00 $integer64_struct$core_class$0$domain$$type_library$ 
02:00056E10 $classInfo$core_class$0$domain$$type_library$ 
02:00056E20 $exception$core_class$0$domain$$type_library$ 
02:00056E30 $nativeGuid$core_class$0$domain$$type_library$ 
02:00056E40 $byteCountOptional$core_class$0$domain$$type_library$ 
--- From 'Obj\memory.F1BE59D6.obj'
02:00056E50 $byteCount$core_class$0$domain$$type_library$ 
--- From 'Obj\core.610F2EE0.obj'
02:00056E60 $charCountOptional$core_class$0$domain$$type_library$ 
--- From 'Obj\memory.F1BE59D6.obj'
02:00056E70 $charCount$core_class$0$domain$$type_library$ 
--- From 'Obj\core.610F2EE0.obj'
02:00056E80 $positiveOptional$core_class$0$domain$$type_library$ 
02:00056E90 $function$core_class$1$domain$$type_library$ 
02:00056EA0 $function$core_class$2$domain$$type_library$ 
02:00056EB0 $function$core_class$3$domain$$type_library$ 
02:00056EC0 $function$core_class$4$domain$$type_library$ 
02:00056ED0 $function$core_class$5$domain$$type_library$ 
02:00056EE0 $function$core_class$6$domain$$type_library$ 
02:00056EF0 $function$core_class$7$domain$$type_library$ 
02:00056F00 $function$core_class$8$domain$$type_library$ 
02:00056F10 $function$core_class$9$domain$$type_library$ 
02:00056F20 $function$core_class$10$domain$$type_library$ 
02:00056F30 $function$core_class$11$domain$$type_library$ 
02:00056F40 $function_dt$core_class$1$domain$$type_library$ 
02:00056F50 $function_dt$core_class$2$domain$$type_library$ 
02:00056F60 $function_dt$core_class$3$domain$$type_library$ 
02:00056F70 $function_dt$core_class$4$domain$$type_library$ 
02:00056F80 $function_dt$core_class$5$domain$$type_library$ 
02:00056F90 $function_dt$core_class$6$domain$$type_library$ 
02:00056FA0 $function_dt$core_class$7$domain$$type_library$ 
02:00056FB0 $function_dt$core_class$8$domain$$type_library$ 
02:00056FC0 $function_dt$core_class$9$domain$$type_library$ 
02:00056FD0 $function_dt$core_class$10$domain$$type_library$ 
02:00056FE0 $function_dt$core_class$11$domain$$type_library$ 
02:00056FF0 $function_nd$core_class$1$domain$$type_library$ 
02:00057000 $function_nd$core_class$2$domain$$type_library$ 
02:00057010 $function_nd$core_class$3$domain$$type_library$ 
02:00057020 $function_nd$core_class$4$domain$$type_library$ 
02:00057030 $function_nd$core_class$5$domain$$type_library$ 
02:00057040 $function_nd$core_class$6$domain$$type_library$ 
02:00057050 $function_nd$core_class$7$domain$$type_library$ 
02:00057060 $function_nd$core_class$8$domain$$type_library$ 
02:00057070 $function_nd$core_class$9$domain$$type_library$ 
02:00057080 $function_nd$core_class$10$domain$$type_library$ 
02:00057090 $function_nd$core_class$11$domain$$type_library$ 
02:000570A0 $predicate$core_class$0$domain$$type_library$ 
02:000570B0 $predicate$core_class$2$domain$$type_library$ 
02:000570C0 $predicate$core_class$3$domain$$type_library$ 
02:000570D0 $predicate$core_class$4$domain$$type_library$ 
02:000570E0 $predicate$core_class$5$domain$$type_library$ 
02:000570F0 $predicate$core_class$6$domain$$type_library$ 
02:00057100 $predicate$core_class$7$domain$$type_library$ 
02:00057110 $predicate$core_class$8$domain$$type_library$ 
02:00057120 $predicate$core_class$9$domain$$type_library$ 
02:00057130 $predicate$core_class$10$domain$$type_library$ 
02:00057140 $predicate_dt$core_class$0$domain$$type_library$ 
02:00057150 $predicate_dt$core_class$1$domain$$type_library$ 
02:00057160 $predicate_dt$core_class$2$domain$$type_library$ 
02:00057170 $predicate_dt$core_class$3$domain$$type_library$ 
02:00057180 $predicate_dt$core_class$4$domain$$type_library$ 
02:00057190 $predicate_dt$core_class$5$domain$$type_library$ 
02:000571A0 $predicate_dt$core_class$6$domain$$type_library$ 
02:000571B0 $predicate_dt$core_class$7$domain$$type_library$ 
02:000571C0 $predicate_dt$core_class$8$domain$$type_library$ 
02:000571D0 $predicate_dt$core_class$9$domain$$type_library$ 
02:000571E0 $predicate_dt$core_class$10$domain$$type_library$ 
02:000571F0 $predicate_nd$core_class$0$domain$$type_library$ 
02:00057200 $predicate_nd$core_class$1$domain$$type_library$ 
02:00057210 $predicate_nd$core_class$2$domain$$type_library$ 
02:00057220 $predicate_nd$core_class$3$domain$$type_library$ 
02:00057230 $predicate_nd$core_class$4$domain$$type_library$ 
02:00057240 $predicate_nd$core_class$5$domain$$type_library$ 
02:00057250 $predicate_nd$core_class$6$domain$$type_library$ 
02:00057260 $predicate_nd$core_class$7$domain$$type_library$ 
02:00057270 $predicate_nd$core_class$8$domain$$type_library$ 
02:00057280 $predicate_nd$core_class$9$domain$$type_library$ 
02:00057290 $predicate_nd$core_class$10$domain$$type_library$ 
02:000572A0 $comparator$core_class$1$domain$$type_library$ 
02:000572B0 $comparator$core_class$2$domain$$type_library$ 
02:000572C0 $sortOrder$core_class$0$domain$$type_library$ 
02:000572D0 $sourceCursor$core_class$0$domain$$type_library$ 
02:000572E0 $allowBoolean$core_class$0$domain$$type_library$ 
02:000572F0 $defaultActionBoolean$core_class$0$domain$$type_library$ 
--- From 'Obj\stream.99E3A2B3.obj'
02:00057300 $stdioState@objectDB$stdioState_implement$0$domain$$type_library$ 
02:00057310 $stdio@classDB$stdio_implement$0$domain$$type_library$ 
02:00057320 $outputStream_null@classDB$outputStream_null_implement$0$domain$$type_library$ 
02:00057330 $inputStream_null@classDB$inputStream_null_implement$0$domain$$type_library$ 
--- From 'Obj\console_api.5E6636FD.obj'
02:00057340 $coord$console_native_class$0$domain$$type_library$ 
02:00057350 $consoleScreenBufferInfo$console_native_class$0$domain$$type_library$ 
02:00057360 $key_event_record$console_native_class$0$domain$$type_library$ 
02:00057370 $mouse_event_record$console_native_class$0$domain$$type_library$ 
02:00057380 $char_info$console_native_class$0$domain$$type_library$ 
02:00057390 $small_rect$console_native_class$0$domain$$type_library$ 
02:000573A0 $handlerRoutine$console_native_class$0$domain$$type_library$ 
--- From 'Obj\exe_api.F27809B9.obj'
02:000573B0 $runMode$exe_api_class$0$domain$$type_library$ 
02:000573C0 $coInit$exe_api_class$0$domain$$type_library$ 
--- From 'Obj\memory.F1BE59D6.obj'
02:000573D0 $real32$_builtIn_class$0$domain$$type_library$ 
--- From 'Obj\main.A22FE9BF.obj'
02:000573E0 $$byte$_builtIn_class$0$domain$$type_library$ 
02:000573F0 $symbol$_builtIn_class$0$domain$$type_library$ 
02:00057400 $factdb$_builtIn_class$0$domain$$type_library$ 
02:00057410 $...$_builtIn_class$0$domain$$type_library$ 
02:00057420 $any$_builtIn_class$0$domain$$type_library$ 
--- From 'Obj\memory.F1BE59D6.obj'
02:00057430 $integerNative$_builtIn_class$0$domain$$type_library$ 
--- From 'Obj\main.A22FE9BF.obj'
02:00057440 $_someType$_builtIn_class$0$domain$$type_library$ 
02:00057450 $compareResult$_builtIn_class$0$domain$$type_library$ 
--- From 'Obj\filesystem_api.EE6511E1.obj'
02:00057460 $fileAttributesInfo$fileSystem_native_class$0$domain$$type_library$ 
02:00057470 $overlapped$fileSystem_native_class$0$domain$$type_library$ 
02:00057480 $ofStruct$lZ_fileSystem_native_class$0$domain$$type_library$ 
02:00057490 $fileInfo$fileSystem_native_class$0$domain$$type_library$ 
02:000574A0 $win32_find_data$fileSystem_native_class$0$domain$$type_library$ 
02:000574B0 $file_info_by_handle_class$fileSystem_native_class$0$domain$$type_library$ 
02:000574C0 $fileIOCompletionRoutine$fileSystem_native_class$0$domain$$type_library$ 
02:000574D0 $fileAction$fileSystem_native_class$0$domain$$type_library$ 
02:000574E0 $file_notify_information$fileSystem_native_class$0$domain$$type_library$ 
02:000574F0 $openFileName$fileSystem_native_class$0$domain$$type_library$ 
02:00057500 $oFNHookProc$fileSystem_native_class$0$domain$$type_library$ 
02:00057510 $uSE_INFO_0$fileSystem_native_class$0$domain$$type_library$ 
02:00057520 $fileAttributeAtom$fileSystem_api_class$0$domain$$type_library$ 
02:00057530 $accessPermit$fileSystem_api_class$0$domain$$type_library$ 
02:00057540 $memAppend_CallBack$fileSystem_api_implement$0$domain$$type_library$ 
02:00057550 $bufferOperation$fileSystem_api_implement$0$domain$$type_library$ 
02:00057560 $anonymous$c0$1$getshortpathname/1nf$fileSystem_api$fileSystem_api_implement$0$domain$$type_library$ 
02:00057570 $anonymous$c0$1$getlongpathname/1nf$fileSystem_api$fileSystem_api_implement$0$domain$$type_library$ 
--- From 'Obj\memory.F1BE59D6.obj'
02:00057580 $pRef$weakPointer_implement$0$domain$$type_library$ 
02:00057590 $pPointer$memory_class$0$domain$$type_library$ 
02:000575A0 $pInteger8$memory_class$0$domain$$type_library$ 
02:000575B0 $pInteger16$memory_class$0$domain$$type_library$ 
02:000575C0 $pInteger$memory_class$0$domain$$type_library$ 
02:000575D0 $pInteger64$memory_class$0$domain$$type_library$ 
02:000575E0 $weakReference@objectDB$weakReference{@Type}_implement$0$domain$$type_library$ 
02:000575F0 $weakreference$typeLibDB$weakReference{@Type}_implement$0$domain$$type_library$ 
02:00057600 $pPredRef$weakPointer_implement$0$domain$$type_library$ 
02:00057610 $weakPointer@objectDB$weakPointer_implement$0$domain$$type_library$ 
02:00057620 $contextMap$memory_class$0$domain$$type_library$ 
02:00057630 $memoryKind$memory_class$0$domain$$type_library$ 
02:00057640 $pBinary$memory_class$0$domain$$type_library$ 
02:00057650 $pBinaryNonAtomic$memory_class$0$domain$$type_library$ 
02:00057660 $pByteCount$memory_class$0$domain$$type_library$ 
02:00057670 $pChar$memory_class$0$domain$$type_library$ 
02:00057680 $pChar8$memory_class$0$domain$$type_library$ 
02:00057690 $pCharCount$memory_class$0$domain$$type_library$ 
02:000576A0 $pHandle$memory_class$0$domain$$type_library$ 
02:000576B0 $pIntegerNative$memory_class$0$domain$$type_library$ 
02:000576C0 $pObject$memory_class$0$domain$$type_library$ 
02:000576D0 $pReal$memory_class$0$domain$$type_library$ 
02:000576E0 $pReal32$memory_class$0$domain$$type_library$ 
02:000576F0 $pString$memory_class$0$domain$$type_library$ 
02:00057700 $pString8$memory_class$0$domain$$type_library$ 
02:00057710 $pUnsigned$memory_class$0$domain$$type_library$ 
02:00057720 $pUnsigned16$memory_class$0$domain$$type_library$ 
02:00057730 $pUnsigned64$memory_class$0$domain$$type_library$ 
02:00057740 $pUnsigned8$memory_class$0$domain$$type_library$ 
02:00057750 $pUnsignedNative$memory_class$0$domain$$type_library$ 
02:00057760 $unsigned4$bit_class$0$domain$$type_library$ 
02:00057770 $one32$bit_implement$0$domain$$type_library$ 
02:00057780 $two16$bit_implement$0$domain$$type_library$ 
043000:014790 01A970   VIPClass::VIPClass::.rdata F=4
--- From 'Obj\arraym_inline.0830C9D1.obj'
02:00057790 class$arrayM_inlineValue{@ItemType} 
02:00057C48 class$arrayM_inlineValue{@ItemType}$vtable$  (Idle)
02:00058010 class$arrayM_inline{@ItemType} 
02:000584B4 class$arrayM_inline{@ItemType}$vtable$  (Idle)
--- From 'Obj\redblacktree.61DB29D3.obj'
02:00058860 class$redBlackTree 
--- From 'Obj\mapm_redblack.B30CE1C9.obj'
02:000588AC $tree$redBlackTree_class$2$domain$ 
--- From 'Obj\redblacktree.61DB29D3.obj'
02:00058928 $treeRep$redBlackTree_class$2$domain$ 
02:00058966 $uniqueKey$redBlackTree_class$0$domain$ 
02:0005899C $treeProperty$redBlackTree_class$1$domain$ 
--- From 'Obj\mapm_redblack.B30CE1C9.obj'
02:00058C80 class$collectionSupportM\mapMSupport{@Key,@Data} 
02:00058E44 class$collectionSupportM\mapMSupport{@Key,@Data}$vtable$ 
--- From 'Obj\setm_redblack.93FF0DB0.obj'
02:000590E0 class$collectionSupportM\collectionMsupport{@Type} 
02:00059200 class$collectionSupportM\collectionMsupport{@Type}$vtable$ 
--- From 'Obj\collectionsupport.FBE6D943.obj'
02:000593F0 class$collectionSupport\collectionSupport{@Type} 
02:00059498 class$collectionSupport\collectionSupport{@Type}$vtable$ 
--- From 'Obj\redblackset.D207E793.obj'
02:00059640 class$redBlackSet 
--- From 'Obj\setm_redblack.93FF0DB0.obj'
02:00059680 $set$redBlackSet_class$1$domain$ 
--- From 'Obj\redblackset.D207E793.obj'
02:000596F4 $setRep$redBlackSet_class$1$domain$ 
--- From 'Obj\registry_api.1F62FF31.obj'
02:000598A0 class$registry_native 
02:000598DC $securityAttr$registry_native_class$0$domain$ 
02:000599A0 class$registry_api 
--- From 'Obj\mapm_redblack.B30CE1C9.obj'
02:00059A40 class$mapM_redBlack{@Key,@Data} 
02:00059EC8 class$mapM_redBlack{@Key,@Data}$vtable$  (Idle)
--- From 'Obj\setm_redblack.93FF0DB0.obj'
02:0005A240 class$setM_redBlack{@Type} 
02:0005A4A4 class$setM_redBlack{@Type}$vtable$  (Idle)
--- From 'Obj\exceptiondump.F8208295.obj'
02:0005A740 class$exceptionDump 
--- From 'Obj\shell_api.76DAFA28.obj'
02:0005A7E0 class$shell_native 
02:0005A84C $shellExecuteInfo$shell_native_class$0$domain$ 
02:0005A8AC $appBarData$shell_native_class$0$domain$ 
--- From 'Obj\filesystem.14FC0F0E.obj'
02:0005A8F8 $shFileOpStruct$shell_native_class$0$domain$ 
--- From 'Obj\shell_api.76DAFA28.obj'
02:0005A934 $sHNameMapping$shell_native_class$0$domain$ 
02:0005A978 $shQueryRBinfo$shell_native_class$0$domain$ 
02:0005AA24 $notifyIcondata$shell_native_class$0$domain$ 
02:0005AA84 $sHFileInfo$shell_native_class$0$domain$ 
--- From 'Obj\filesystem.14FC0F0E.obj'
02:0005AAD0 $browseinfo$shell_native_class$0$domain$ 
--- From 'Obj\shell_api.76DAFA28.obj'
02:0005AAF0 $browseCallbackProc$shell_native_class$0$domain$ 
02:0005AB66 $shard$shell_native_class$0$domain$ 
02:0005ABB0 $$inline_128$shell_native_class$1$domain$ 
02:0005ABE0 $$inline_256$shell_native_class$1$domain$ 
02:0005AC10 $$inline_64$shell_native_class$1$domain$ 
02:0005AC40 $$inline_260$shell_native_class$1$domain$ 
02:0005AC70 $$inline_80$shell_native_class$1$domain$ 
02:0005AF70 class$shell_api 
--- From 'Obj\varm.637998CB.obj'
02:0005B000 class$varM_unsigned 
02:0005B0D4 class$varM_unsigned$vtable$ 
02:0005B1C0 class$varM_reference{@Term} 
02:0005B1FC $reference$varM_reference{@Term}_class$0$domain$ 
02:0005B298 class$varM_reference{@Term}$vtable$ 
02:0005B3E0 class$varM_optional{@Term} 
02:0005B4D0 class$varM_optional{@Term}$vtable$ 
02:0005B5F0 class$varM_integer 
02:0005B6C4 class$varM_integer$vtable$ 
02:0005B7A0 class$varM_boolean 
02:0005B874 class$varM_boolean$vtable$ 
02:0005B940 class$varM{@Term} 
02:0005BB60 class$varM{@Term}$vtable$ 
--- From 'Obj\binary.81E0542A.obj'
02:0005BF70 class$outputStream_binary 
02:0005C238 class$outputStream_binary$vtable$  (Idle)
02:0005C490 class$inputStream_binary 
02:0005C7A8 class$inputStream_binary$vtable$  (Idle)
02:0005C9A0 class$binary_exception 
02:0005CA30 class$binary 
--- From 'Obj\filesystem.14FC0F0E.obj'
02:0005CA90 class$outputStream_file 
02:0005CD70 class$outputStream_file$vtable$  (Idle)
02:0005CFC0 class$messageFile 
02:0005D15C class$messageFile$vtable$ 
02:0005D5D0 class$inputStream_file 
02:0005DA18 class$inputStream_file$vtable$  (Idle)
02:0005DD00 class$fileVersion 
02:0005DD40 $versionInformation$fileVersion_class$0$domain$ 
02:0005DD8C $fileVersionInformation$fileVersion_class$0$domain$ 
02:0005E020 class$fileSystem_exception 
02:0005E0C0 class$filename 
02:0005E130 class$file 
02:0005E182 $overwrite$file_class$0$domain$ 
02:0005E230 class$directory 
02:0005E29A $volumeType$directory_class$0$domain$ 
--- From 'Obj\string.79FC483E.obj'
02:0005E380 class$string_exception 
02:0005E410 class$string 
02:0005E456 $caseSensitivity$string_class$0$domain$ 
02:0005E49E $adjustBehaviour$string_class$0$domain$ 
02:0005E4DA $adjustSide$string_class$0$domain$ 
02:0005E690 class$outputStream_string 
02:0005EA90 class$outputStream_string$vtable$  (Idle)
02:0005F040 class$inputStream_string 
02:0005F364 class$inputStream_string$vtable$  (Idle)
--- From 'Obj\boolean.223D1EF3.obj'
02:0005F560 class$boolean 
--- From 'Obj\string_api.9F0D2E24.obj'
02:0005F5D0 class$string_native 
--- From 'Obj\console.22208CC2.obj'
02:0005F670 class$inputSupport 
02:0005F730 class$inputSupport$vtable$ 
02:0005F8B0 class$outputSupport 
02:0005F98C class$outputSupport$vtable$ 
--- From 'Obj\exe.0BB6E1A4.obj'
02:0005FB70 class$mainExe 
--- From 'Obj\list.90A37E7A.obj'
02:0005FC60 class$list 
--- From 'Obj\std.01821D38.obj'
02:00060580 class$std 
--- From 'Obj\string8.31126D59.obj'
02:000605D0 class$string8 
--- From 'Obj\string8_api.876B157C.obj'
02:00060640 class$string8_native 
02:000606E0 class$string8_api 
--- From 'Obj\math.8BE40BD3.obj'
02:00060770 class$math_exception 
02:000607F0 class$math 
02:00060814 $inCircle$math_class$0$domain$ 
02:00060840 $aPeriod$math_class$0$domain$ 
02:0006086C $uReal$math_class$0$domain$ 
--- From 'Obj\registry.750278BD.obj'
02:00060900 class$registry_exception 
02:00060990 class$registry 
02:00060A06 $rootKey$registry_class$0$domain$ 
02:00060A5E $registryView$registry_class$0$domain$ 
--- From 'Obj\systeminformation_api.720D241D.obj'
02:00060BF0 class$systemInformation_native 
02:00060C68 $system_Info$systemInformation_native_class$0$domain$ 
02:00060CC8 $osVersionInfo$systemInformation_native_class$0$domain$ 
02:00060D44 $osVersionInfoEX$systemInformation_native_class$0$domain$ 
02:00060DF8 $nonclientMetricsXP$systemInformation_native_class$0$domain$ 
02:00060EB4 $nonclientMetrics$systemInformation_native_class$0$domain$ 
02:00060EE4 $$inline_128$systemInformation_native_class$1$domain$ 
02:00061070 class$systemInformation_api 
--- From 'Obj\namedvalue.A8464E91.obj'
02:000611D0 class$namedValue 
--- From 'Obj\reflection.87B371B1.obj'
02:00061250 class$pfc\reflection\reflection_native 
02:00061288 $anyTermValue$pfc\reflection\reflection_native_class$0$domain$ 
02:000612BC $factDbValue$pfc\reflection\reflection_native_class$0$domain$ 
02:000612F0 $prologPredicateValue$pfc\reflection\reflection_native_class$0$domain$ 
02:00061400 class$pfc\reflection\reflection 
02:00061542 $typeKind$pfc\reflection\reflection_class$0$domain$ 
02:00061602 $predicateMode$pfc\reflection\reflection_class$0$domain$ 
02:00061634 $functor$pfc\reflection\reflection_class$0$domain$ 
02:0006169A $callingConvention$pfc\reflection\reflection_class$0$domain$ 
--- From 'Obj\memory_api.066136AF.obj'
02:00061B70 class$memory_native 
02:00061BBC $memory_basic_information$memory_native_class$0$domain$ 
02:00061C24 $memoryStatusEx$memory_native_class$0$domain$ 
02:00061D10 class$memory_api 
--- From 'Obj\runtime_api.AAF7A8D0.obj'
02:00061DA0 class$runtime_api 
--- From 'Obj\event.5E0B1F78.obj'
02:00061EF0 class$event7{@Source,@Type1,@Type2,@Type3,@Type4,@Type5,@Type6,@Type7} 
02:000623A0 class$event7{@Source,@Type1,@Type2,@Type3,@Type4,@Type5,@Type6,@Type7}$vtable$ 
02:00063210 class$event6{@Source,@Type1,@Type2,@Type3,@Type4,@Type5,@Type6} 
02:00063614 class$event6{@Source,@Type1,@Type2,@Type3,@Type4,@Type5,@Type6}$vtable$ 
02:00064210 class$event5{@Source,@Type1,@Type2,@Type3,@Type4,@Type5} 
02:00064574 class$event5{@Source,@Type1,@Type2,@Type3,@Type4,@Type5}$vtable$ 
02:00064F40 class$event4{@Source,@Type1,@Type2,@Type3,@Type4} 
02:00065270 class$event4{@Source,@Type1,@Type2,@Type3,@Type4}$vtable$ 
02:00065B60 class$event3{@Source,@Type1,@Type2,@Type3} 
02:00065E5C class$event3{@Source,@Type1,@Type2,@Type3}$vtable$ 
02:00066680 class$event2{@Source,@Type1,@Type2} 
02:00066948 class$event2{@Source,@Type1,@Type2}$vtable$ 
02:000670A0 class$event1{@Source,@Type1} 
02:00067334 class$event1{@Source,@Type1}$vtable$ 
02:000679C0 class$event0{@Source} 
02:00067C20 class$event0{@Source}$vtable$ 
--- From 'Obj\time_api.3BF8D4E6.obj'
02:000681D0 class$time_native 
02:00068238 $systemTime$time_native_class$0$domain$ 
02:000682B4 $timeZoneAPI$time_native_class$0$domain$ 
02:000682E8 $fileTime$time_native_class$0$domain$ 
02:00068348 $reg_tzi_format$time_native_class$0$domain$ 
02:00068378 $$inline_32$time_native_class$1$domain$ 
02:00068480 class$time_api 
--- From 'Obj\locale_api.2F2FFAF4.obj'
02:00068500 class$locale_native 
02:00068524 $stdBoolFunc$locale_native_class$1$domain$ 
02:0006853C $stdBoolFunc$locale_native_class$2$domain$ 
02:00068554 $stdBoolFunc$locale_native_class$4$domain$ 
02:0006856C $stdBoolFunc$locale_native_class$5$domain$ 
02:000685A8 $numberfmt$locale_native_class$0$domain$ 
02:00068670 class$locale_api 
--- From 'Obj\gui_api.9DA8CF80.obj'
02:00068700 class$gui_native 
--- From 'Obj\vpidomains.97964869.obj'
02:00068794 $logfont$gui_native_class$0$domain$ 
--- From 'Obj\gui_api.9DA8CF80.obj'
02:000687D0 $mouseMovePoint$gui_native_class$0$domain$ 
02:000687F0 $enumDesktopProc$gui_native_class$0$domain$ 
02:00068808 $enumWindowStationProc$gui_native_class$0$domain$ 
02:00068838 $copyDataStruct$gui_native_class$0$domain$ 
02:00068874 $trackMouseEvent$gui_native_class$0$domain$ 
02:000688D4 $msg$gui_native_class$0$domain$ 
02:000688F4 $sendAsyncProc$gui_native_class$0$domain$ 
02:0006890C $wndProc$gui_native_class$0$domain$ 
02:00068960 $wndClassEx$gui_native_class$0$domain$ 
02:000689BC $createstruct$gui_native_class$0$domain$ 
02:000689FC $flashInfo$gui_native_class$0$domain$ 
02:00068A44 $windowPos$gui_native_class$0$domain$ 
02:00068AB4 $windowPlacement$gui_native_class$0$domain$ 
02:00068B34 $windowInfo$gui_native_class$0$domain$ 
02:00068B90 $monitorInfo$gui_native_class$0$domain$ 
02:00068BF8 $monitorInfoEx$gui_native_class$0$domain$ 
02:00068C18 $monitorEnumProc$gui_native_class$0$domain$ 
02:00068C6C $dlgTemplate$gui_native_class$0$domain$ 
02:00068CC8 $dlgItemTemplate$gui_native_class$0$domain$ 
02:00068D78 $dlgTemplateEx$gui_native_class$0$domain$ 
02:00068D98 $timerProc$gui_native_class$0$domain$ 
02:00068DD4 $accel$gui_native_class$0$domain$ 
02:00068E30 $menuItemInfo$gui_native_class$0$domain$ 
02:00068E70 $drawTextParams$gui_native_class$0$domain$ 
02:00068E90 $grayStringProc$gui_native_class$0$domain$ 
02:00068EA8 $drawStateProc$gui_native_class$0$domain$ 
02:00068ED4 $size$gui_native_class$0$domain$ 
02:00068F80 $textmetric$gui_native_class$0$domain$ 
02:00068FE8 $paintStruct$gui_native_class$0$domain$ 
02:00069008 $propEnumProc$gui_native_class$0$domain$ 
02:00069060 $helpInfo$gui_native_class$0$domain$ 
02:00069080 $wndEnumProc$gui_native_class$0$domain$ 
02:000690BA $gaFlags$gui_native_class$0$domain$ 
02:000690E0 $hookProc$gui_native_class$0$domain$ 
02:00069118 $kbdllhookstruct$gui_native_class$0$domain$ 
02:00069158 $iconInfo$gui_native_class$0$domain$ 
02:000691A4 $buttonImageList$gui_native_class$0$domain$ 
02:000691C4 $button_imageList_align$gui_native_class$0$domain$ 
02:0006920C $nmBcHotItem$gui_native_class$0$domain$ 
02:00069260 $button_splitInfo$gui_native_class$0$domain$ 
02:000692B0 $nmBcDropdown$gui_native_class$0$domain$ 
02:000692E8 $nmhdr$gui_native_class$0$domain$ 
02:00069354 $nmCustomDraw$gui_native_class$0$domain$ 
02:0006939C $scrollInfo$gui_native_class$0$domain$ 
02:00069420 $scrollBarInfo$gui_native_class$0$domain$ 
02:00069458 $logbrush$gui_native_class$0$domain$ 
02:000694A0 $tcItem$gui_native_class$0$domain$ 
02:000694D4 $tagInitCommonControlsEx$gui_native_class$0$domain$ 
02:00069514 $logPalette$gui_native_class$0$domain$ 
02:00069558 $mouseInput$gui_native_class$0$domain$ 
02:000695A8 $keybdInput$gui_native_class$0$domain$ 
02:000695EC $hardwareInput$gui_native_class$0$domain$ 
02:0006960C $inputUnion$gui_native_class$0$domain$ 
02:00069658 $input$gui_native_class$0$domain$ 
02:000696C8 $toolinfo$gui_native_class$0$domain$ 
02:00069730 $nmttdispInfo$gui_native_class$0$domain$ 
02:0006977C $blendFunction$gui_native_class$0$domain$ 
02:000697E4 $chooseFont$gui_native_class$0$domain$ 
02:00069888 $printdlg$gui_native_class$0$domain$ 
02:00069908 $printdlgEx$gui_native_class$0$domain$ 
02:00069948 $inputUnion_mi$gui_native_class$0$domain$ 
02:00069988 $inputUnion_ki$gui_native_class$0$domain$ 
02:000699C8 $inputUnion_hi$gui_native_class$0$domain$ 
02:000699F8 $$inline_32$gui_native_class$1$domain$ 
02:00069A28 $$inline_256$gui_native_class$1$domain$ 
02:00069A58 $$inline_80$gui_native_class$1$domain$ 
02:0006A1D0 class$gui_api 
02:0006A214 $scrollInfo$gui_api_class$0$domain$ 
02:0006A254 $windowPlacement$gui_api_class$0$domain$ 
02:0006A2E0 $dlgTemplate$gui_api_class$0$domain$ 
02:0006A344 $varArray$gui_api_class$0$domain$ 
02:0006A3C4 $dlgItemTemplate$gui_api_class$0$domain$ 
02:0006A400 $monitorInfo$gui_api_class$0$domain$ 
--- From 'Obj\vpidomains.97964869.obj'
02:0006A600 class$vpiOwnerDraw 
02:0006A690 class$vpiDomains 
02:0006A6C8 $pnt$vpiDomains_class$0$domain$ 
02:0006A704 $rct$vpiDomains_class$0$domain$ 
02:0006A738 $brush$vpiDomains_class$0$domain$ 
02:0006A770 $pen$vpiDomains_class$0$domain$ 
02:0006A7B8 $drawtools$vpiDomains_class$0$domain$ 
02:0006A818 $menu$vpiDomains_class$0$domain$ 
02:0006A840 $keyModifier$vpiDomains_class$0$domain$ 
02:0006A888 $acceleratorKey$vpiDomains_class$0$domain$ 
02:0006A928 $menuItem$vpiDomains_class$0$domain$ 
02:0006AC90 $event$vpiDomains_class$0$domain$ 
02:0006ADC0 $controlInfo$vpiDomains_class$0$domain$ 
02:0006AE64 $stateInfo$vpiDomains_class$0$domain$ 
02:0006AFB4 $windef$vpiDomains_class$0$domain$ 
02:0006B00C $wdef$vpiDomains_class$0$domain$ 
02:0006B02C $errhandler$vpiDomains_class$0$domain$ 
02:0006B044 $eHandler$vpiDomains_class$0$domain$ 
02:0006B074 $accelerator$vpiDomains_class$0$domain$ 
02:0006B0DC $bitmapId$vpiDomains_class$0$domain$ 
02:0006B118 $ddeserviceInfo$vpiDomains_class$0$domain$ 
02:0006B184 $ddedata$vpiDomains_class$0$domain$ 
02:0006B2E8 $ddeevent$vpiDomains_class$0$domain$ 
02:0006B35A $alignment$vpiDomains_class$0$domain$ 
--- From 'Obj\exception.311FF4B8.obj'
02:0006BBF0 class$runtime_exception 
02:0006BC80 class$exception_exception 
02:0006BD20 class$exception 
02:0006BD5A $kind$exception_class$0$domain$ 
02:0006BD94 $programPointDescriptor$exception_class$0$domain$ 
02:0006BDF4 $descriptor$exception_class$0$domain$ 
02:0006BE3C $traceInfo$exception_class$0$domain$ 
02:0006BE94 $lineInfo$exception_class$0$domain$ 
02:0006BFB0 class$errorDescriptorInformation 
02:0006C0CC class$errorDescriptorInformation$vtable$ 
--- From 'Obj\programcontrol.D3F4CEF5.obj'
02:0006C2C0 class$programControl 
02:0006C2E4 $exceptionRaiser$programControl_class$0$domain$ 
--- From 'Obj\multithread_api.53CE32BC.obj'
02:0006C3D0 class$multiThread_native 
02:0006C3F4 $timerAPCProc$multiThread_native_class$0$domain$ 
02:0006C48C $startupInfo$multiThread_native_class$0$domain$ 
02:0006C4C8 $processInformation$multiThread_native_class$0$domain$ 
02:0006C4E8 $threadRunnable$multiThread_native_class$0$domain$ 
02:0006C524 $critical_section$multiThread_native_class$0$domain$ 
02:0006C564 $m128A$multiThread_native_class$0$domain$ 
02:0006C5BC $selectorEntry$multiThread_native_class$0$domain$ 
02:0006C60C $cache_descriptor$multiThread_native_class$0$domain$ 
02:0006C664 $system_logical_processor_information$multiThread_native_class$0$domain$ 
02:0006C840 class$multiThread_api 
--- From 'Obj\windowsapi.9B3D04D6.obj'
02:0006C9A0 class$windowsAPI 
02:0006CA00 $security_descriptor$windowsAPI_class$0$domain$ 
02:0006CA50 $acl$windowsAPI_class$0$domain$ 
02:0006CA88 $security_attributes$windowsAPI_class$0$domain$ 
--- From 'Obj\console.22208CC2.obj'
02:0006CB50 class$outputStream_console 
02:0006CDC4 class$outputStream_console$vtable$  (Idle)
02:0006D020 class$inputStream_console 
02:0006D3D0 class$inputStream_console$vtable$  (Idle)
02:0006D650 class$console 
02:0006D70C $event$console_class$0$domain$ 
--- From 'Obj\core.610F2EE0.obj'
02:0006D950 class$core 
02:0006D980 $unit$core_class$0$domain$ 
02:0006D9A0 $unsigned8$core_class$0$domain$ 
02:0006D9C0 $unsigned16$core_class$0$domain$ 
--- From 'Obj\memory.F1BE59D6.obj'
02:0006D9F4 $unsigned64_struct$core_class$0$domain$ 
--- From 'Obj\core.610F2EE0.obj'
02:0006DA14 $integer8$core_class$0$domain$ 
02:0006DA34 $integer16$core_class$0$domain$ 
--- From 'Obj\memory.F1BE59D6.obj'
02:0006DA68 $integer64_struct$core_class$0$domain$ 
--- From 'Obj\filesystem_api.EE6511E1.obj'
02:0006DA9C $namedValue$core_class$0$domain$ 
--- From 'Obj\core.610F2EE0.obj'
02:0006DABC $classInfo$core_class$0$domain$ 
02:0006DAEC $exception$core_class$0$domain$ 
02:0006DB60 $nativeGuid$core_class$0$domain$ 
02:0006DB80 $byteCountOptional$core_class$0$domain$ 
--- From 'Obj\exe_api.F27809B9.obj'
02:0006DBA0 $byteCount$core_class$0$domain$ 
--- From 'Obj\core.610F2EE0.obj'
02:0006DBC0 $charCountOptional$core_class$0$domain$ 
02:0006DBE0 $charCount$core_class$0$domain$ 
02:0006DC00 $positiveOptional$core_class$0$domain$ 
--- From 'Obj\exe_api.F27809B9.obj'
02:0006DC20 $positive$core_class$0$domain$ 
--- From 'Obj\memory.F1BE59D6.obj'
02:0006DC54 $tuple$core_class$2$domain$ 
--- From 'Obj\core.610F2EE0.obj'
02:0006DC8C $tuple$core_class$3$domain$ 
02:0006DCC8 $tuple$core_class$4$domain$ 
02:0006DD08 $tuple$core_class$5$domain$ 
02:0006DD4C $tuple$core_class$6$domain$ 
02:0006DD94 $tuple$core_class$7$domain$ 
02:0006DDE0 $tuple$core_class$8$domain$ 
02:0006DE30 $tuple$core_class$9$domain$ 
02:0006DE84 $tuple$core_class$10$domain$ 
02:0006DEDC $tuple$core_class$11$domain$ 
02:0006DF38 $tuple$core_class$12$domain$ 
02:0006DF84 $optional$core_class$1$domain$ 
02:0006DFD8 $either$core_class$2$domain$ 
02:0006DFFC $function$core_class$1$domain$ 
02:0006E014 $function$core_class$2$domain$ 
02:0006E02C $function$core_class$3$domain$ 
02:0006E044 $function$core_class$4$domain$ 
02:0006E05C $function$core_class$5$domain$ 
02:0006E074 $function$core_class$6$domain$ 
02:0006E08C $function$core_class$7$domain$ 
02:0006E0A4 $function$core_class$8$domain$ 
02:0006E0BC $function$core_class$9$domain$ 
02:0006E0D4 $function$core_class$10$domain$ 
02:0006E0EC $function$core_class$11$domain$ 
02:0006E104 $function_dt$core_class$1$domain$ 
02:0006E11C $function_dt$core_class$2$domain$ 
02:0006E134 $function_dt$core_class$3$domain$ 
02:0006E14C $function_dt$core_class$4$domain$ 
02:0006E164 $function_dt$core_class$5$domain$ 
02:0006E17C $function_dt$core_class$6$domain$ 
02:0006E194 $function_dt$core_class$7$domain$ 
02:0006E1AC $function_dt$core_class$8$domain$ 
02:0006E1C4 $function_dt$core_class$9$domain$ 
02:0006E1DC $function_dt$core_class$10$domain$ 
02:0006E1F4 $function_dt$core_class$11$domain$ 
02:0006E20C $function_nd$core_class$1$domain$ 
02:0006E224 $function_nd$core_class$2$domain$ 
02:0006E23C $function_nd$core_class$3$domain$ 
02:0006E254 $function_nd$core_class$4$domain$ 
02:0006E26C $function_nd$core_class$5$domain$ 
02:0006E284 $function_nd$core_class$6$domain$ 
02:0006E29C $function_nd$core_class$7$domain$ 
02:0006E2B4 $function_nd$core_class$8$domain$ 
02:0006E2CC $function_nd$core_class$9$domain$ 
02:0006E2E4 $function_nd$core_class$10$domain$ 
02:0006E2FC $function_nd$core_class$11$domain$ 
02:0006E314 $predicate$core_class$0$domain$ 
02:0006E32C $predicate$core_class$1$domain$ 
02:0006E344 $predicate$core_class$2$domain$ 
02:0006E35C $predicate$core_class$3$domain$ 
02:0006E374 $predicate$core_class$4$domain$ 
02:0006E38C $predicate$core_class$5$domain$ 
02:0006E3A4 $predicate$core_class$6$domain$ 
02:0006E3BC $predicate$core_class$7$domain$ 
02:0006E3D4 $predicate$core_class$8$domain$ 
02:0006E3EC $predicate$core_class$9$domain$ 
02:0006E404 $predicate$core_class$10$domain$ 
02:0006E41C $predicate_dt$core_class$0$domain$ 
02:0006E434 $predicate_dt$core_class$1$domain$ 
02:0006E44C $predicate_dt$core_class$2$domain$ 
02:0006E464 $predicate_dt$core_class$3$domain$ 
02:0006E47C $predicate_dt$core_class$4$domain$ 
02:0006E494 $predicate_dt$core_class$5$domain$ 
02:0006E4AC $predicate_dt$core_class$6$domain$ 
02:0006E4C4 $predicate_dt$core_class$7$domain$ 
02:0006E4DC $predicate_dt$core_class$8$domain$ 
02:0006E4F4 $predicate_dt$core_class$9$domain$ 
02:0006E50C $predicate_dt$core_class$10$domain$ 
02:0006E524 $predicate_nd$core_class$0$domain$ 
02:0006E53C $predicate_nd$core_class$1$domain$ 
02:0006E554 $predicate_nd$core_class$2$domain$ 
02:0006E56C $predicate_nd$core_class$3$domain$ 
02:0006E584 $predicate_nd$core_class$4$domain$ 
02:0006E59C $predicate_nd$core_class$5$domain$ 
02:0006E5B4 $predicate_nd$core_class$6$domain$ 
02:0006E5CC $predicate_nd$core_class$7$domain$ 
02:0006E5E4 $predicate_nd$core_class$8$domain$ 
02:0006E5FC $predicate_nd$core_class$9$domain$ 
02:0006E614 $predicate_nd$core_class$10$domain$ 
02:0006E62C $comparator$core_class$1$domain$ 
02:0006E644 $comparator$core_class$2$domain$ 
02:0006E672 $sortOrder$core_class$0$domain$ 
--- From 'Obj\filesystem_api.EE6511E1.obj'
02:0006E828 $value$core_class$0$domain$ 
--- From 'Obj\core.610F2EE0.obj'
02:0006E8A0 $sourceCursor$core_class$0$domain$ 
02:0006E8D8 $programPoint$core_class$0$domain$ 
02:0006E90E $allowBoolean$core_class$0$domain$ 
02:0006E946 $defaultActionBoolean$core_class$0$domain$ 
--- From 'Obj\stream.99E3A2B3.obj'
02:0006EE40 class$stream_exception 
02:0006EED0 class$stdioState 
02:0006EF74 class$stdioState$vtable$ 
02:0006F0B0 class$stdio 
02:0006F170 class$outputStream_null 
02:0006F1DC class$outputStream_null$vtable$ 
02:0006F310 class$inputStream_null 
02:0006F37C class$inputStream_null$vtable$ 
--- From 'Obj\console_api.5E6636FD.obj'
02:0006F4C0 class$console_native 
02:0006F504 $coord$console_native_class$0$domain$ 
02:0006F574 $consoleScreenBufferInfo$console_native_class$0$domain$ 
02:0006F5CC $key_event_record$console_native_class$0$domain$ 
02:0006F620 $mouse_event_record$console_native_class$0$domain$ 
02:0006F660 $char_info$console_native_class$0$domain$ 
02:0006F6AC $small_rect$console_native_class$0$domain$ 
02:0006F6CC $handlerRoutine$console_native_class$0$domain$ 
02:0006F850 class$console_api 
--- From 'Obj\exe_api.F27809B9.obj'
02:0006F8E0 class$exe_native 
02:0006F970 class$exe_api 
02:0006F9B6 $runMode$exe_api_class$0$domain$ 
02:0006FA0A $coInit$exe_api_class$0$domain$ 
--- From 'Obj\main.A22FE9BF.obj'
02:0006FB40 class$_builtIn 
02:0006FB64 $integer$_builtIn_class$0$domain$ 
--- From 'Obj\filesystem_api.EE6511E1.obj'
02:0006FB84 $unsigned$_builtIn_class$0$domain$ 
--- From 'Obj\main.A22FE9BF.obj'
02:0006FBA4 $real$_builtIn_class$0$domain$ 
02:0006FBD0 $real32$_builtIn_class$0$domain$ 
02:0006FBFC $$byte$_builtIn_class$0$domain$ 
--- From 'Obj\filesystem_api.EE6511E1.obj'
02:0006FC1C $string$_builtIn_class$0$domain$ 
--- From 'Obj\main.A22FE9BF.obj'
02:0006FC30 $symbol$_builtIn_class$0$domain$ 
02:0006FC44 $string8$_builtIn_class$0$domain$ 
02:0006FC58 $char$_builtIn_class$0$domain$ 
02:0006FC6C $binary$_builtIn_class$0$domain$ 
02:0006FC84 $binaryNonAtomic$_builtIn_class$0$domain$ 
--- From 'Obj\memory.F1BE59D6.obj'
02:0006FC9C $pointer$_builtIn_class$0$domain$ 
02:0006FCB0 $handle$_builtIn_class$0$domain$ 
--- From 'Obj\main.A22FE9BF.obj'
02:0006FCC4 $factdb$_builtIn_class$0$domain$ 
02:0006FCD8 $...$_builtIn_class$0$domain$ 
02:0006FCEC $integer64$_builtIn_class$0$domain$ 
02:0006FD14 $unsigned64$_builtIn_class$0$domain$ 
02:0006FD3C $any$_builtIn_class$0$domain$ 
02:0006FD50 $integerNative$_builtIn_class$0$domain$ 
02:0006FD70 $unsignedNative$_builtIn_class$0$domain$ 
--- From 'Obj\memory.F1BE59D6.obj'
02:0006FDC0 $*$_builtIn_class$1$domain$ 
--- From 'Obj\main.A22FE9BF.obj'
02:0006FDF0 $_someType$_builtIn_class$0$domain$ 
02:0006FE26 $boolean$_builtIn_class$0$domain$ 
02:0006FE6A $compareResult$_builtIn_class$0$domain$ 
--- From 'Obj\filesystem_api.EE6511E1.obj'
02:0006FEA0 $$inline_1$_builtIn_class$1$domain$ 
02:000700F0 class$_global 
--- From 'Obj\main.A22FE9BF.obj'
02:00070130 class$main 
--- From 'Obj\filesystem_api.EE6511E1.obj'
02:00070170 class$lZ_fileSystem_native 
02:000701CC $ofStruct$lZ_fileSystem_native_class$0$domain$ 
02:000702A0 class$fileSystem_native 
02:0007032C $fileInfo$fileSystem_native_class$0$domain$ 
02:0007039C $fileAttributesInfo$fileSystem_native_class$0$domain$ 
02:00070434 $win32_find_data$fileSystem_native_class$0$domain$ 
02:00070542 $file_info_by_handle_class$fileSystem_native_class$0$domain$ 
02:000705AC $fileIOCompletionRoutine$fileSystem_native_class$0$domain$ 
02:0007060A $fileAction$fileSystem_native_class$0$domain$ 
02:00070670 $file_notify_information$fileSystem_native_class$0$domain$ 
02:000706B0 $overlapped$fileSystem_native_class$0$domain$ 
02:0007076C $openFileName$fileSystem_native_class$0$domain$ 
02:0007078C $oFNHookProc$fileSystem_native_class$0$domain$ 
02:000707B8 $uSE_INFO_0$fileSystem_native_class$0$domain$ 
02:000707E8 $$inline_260$fileSystem_native_class$1$domain$ 
02:00070818 $$inline_14$fileSystem_native_class$1$domain$ 
02:00070EA0 class$fileSystem_api 
02:00070F2E $fileAttributeAtom$fileSystem_api_class$0$domain$ 
02:00070F9A $accessPermit$fileSystem_api_class$0$domain$ 
--- From 'Obj\memory.F1BE59D6.obj'
02:00071400 class$weakReference{@Type} 
02:000714C4 class$weakReference{@Type}$vtable$ 
02:00071610 class$weakPointer 
02:00071718 class$weakPointer$vtable$ 
02:00071830 class$memory 
02:00071870 $contextMap$memory_class$0$domain$ 
02:000718B2 $memoryKind$memory_class$0$domain$ 
02:000718E8 $pBinary$memory_class$0$domain$ 
02:00071918 $pBinaryNonAtomic$memory_class$0$domain$ 
02:00071948 $pByteCount$memory_class$0$domain$ 
02:00071980 $pChar$memory_class$0$domain$ 
02:000719B8 $pChar8$memory_class$0$domain$ 
02:000719E8 $pCharCount$memory_class$0$domain$ 
02:00071A18 $pHandle$memory_class$0$domain$ 
02:00071A48 $pInteger$memory_class$0$domain$ 
02:00071A80 $pInteger16$memory_class$0$domain$ 
02:00071AB8 $pInteger64$memory_class$0$domain$ 
02:00071AF0 $pInteger8$memory_class$0$domain$ 
02:00071B20 $pIntegerNative$memory_class$0$domain$ 
02:00071B50 $pObject$memory_class$0$domain$ 
02:00071B80 $pPointer$memory_class$0$domain$ 
02:00071BB8 $pReal$memory_class$0$domain$ 
02:00071BE8 $pReal32$memory_class$0$domain$ 
02:00071C18 $pString$memory_class$0$domain$ 
02:00071C48 $pString8$memory_class$0$domain$ 
02:00071C78 $pUnsigned$memory_class$0$domain$ 
02:00071CB0 $pUnsigned16$memory_class$0$domain$ 
02:00071CE8 $pUnsigned64$memory_class$0$domain$ 
02:00071D20 $pUnsigned8$memory_class$0$domain$ 
02:00071D50 $pUnsignedNative$memory_class$0$domain$ 
02:00071FF0 class$bit 
02:00072014 $unsigned4$bit_class$0$domain$ 
Frame 073000   Size 000030.  Name=< .gcroot>, 	Chars=C0000040h. [IRW]
073000:000000 000024   .gcroot::.gcroot::.gcroot F=4
Frame 074000   Size 0006E0.  Name=<  VIPini>, 	Chars=40000040h. [IR]
074000:000000 000004   VIPini$A::VIPini$A::VIPini F=4
--- From 'Obj\main.A22FE9BF.obj'
04:00074000 _VIPStartOfClassDescriptors 
074000:000004 00028C   VIPini$C::VIPini$C::VIPini F=4
074000:000290 000008   VIPini$E::VIPini$E::VIPini F=4
Frame 075000   Size 000010.  Name=<  VIPsym>, 	Chars=40000040h. [IR]
075000:000000 000004   VIPsym$A::VIPsym$A::VIPsym F=4
--- From 'Obj\main.A22FE9BF.obj'
05:00075000 _VIPStartOfSymbols 
075000:000004 000000   VIPsym$C::VIPsym$C::VIPsym F=4
075000:000004 000008   VIPsym$E::VIPsym$E::VIPsym F=4
Frame 076000   Size 000F10.  Name=<  VIPtpd>, 	Chars=40000040h. [IR]
076000:000000 000004   VIPtpd$A::VIPtpd$A::VIPtpd F=4
--- From 'Obj\main.A22FE9BF.obj'
06:00076000 _VIPStartOfTypeDescriptors 
076000:000004 000EFC   VIPtpd$C::VIPtpd$C::VIPtpd F=4
076000:000F00 000008   VIPtpd$E::VIPtpd$E::VIPtpd F=4
Frame 077000   Size 000DD0.  Name=<  VIPtpl>, 	Chars=40000040h. [IR]
077000:000000 000004   VIPtpl$A::VIPtpl$A::VIPtpl F=4
--- From 'Obj\main.A22FE9BF.obj'
07:00077000 _VIPStartOfTypeLibraries 
077000:000004 000DBC   VIPtpl$C::VIPtpl$C::VIPtpl F=4
077000:000DC0 000008   VIPtpl$E::VIPtpl$E::VIPtpl F=4
Frame 078000   Size 000170.  Name=<   .data>, 	Chars=C0000040h. [IRW]
078000:000000 00015C   .data::DATA::DGROUP F=4
078000:00015C 00000C   .bss::BSS::DGROUP F=4
Frame 079000   Size 000320.  Name=<  PRODBG>, 	Chars=40000040h. [IR]
079000:000000 000320   PRODBG::PRODBG::PRODBG F=4
--- Total Cnt   =  3823 --------
[import] 'Obj\multithread_api.53CE32BC.obj' KERNEL32.dll. _SetThreadContext@8 
[import] 'Obj\string.79FC483E.obj' USER32.dll. _IsCharAlphaNumericW@4 
[import] 'Obj\multithread_api.53CE32BC.obj' KERNEL32.dll. _GetProcAddress@8 
[import] 'Obj\memory.F1BE59D6.obj' vipKernel.dll. ?AllocAtomicHeapWithContext@Kernel@VIP@@YGQAEIII@Z 
[import] 'Obj\exe_api.F27809B9.obj' KERNEL32.dll. _GetModuleHandleW@4 
[import] 'Obj\registry_api.1F62FF31.obj' ADVAPI32.dll. _RegOpenKeyExW@20 
[import] 'Obj\multithread_api.53CE32BC.obj' KERNEL32.dll. _CancelWaitableTimer@4 
[import] 'Obj\gui_api.9DA8CF80.obj' USER32.dll. _SetScrollInfo@16 
[import] 'Obj\multithread_api.53CE32BC.obj' KERNEL32.dll. _SetWaitableTimer@24 
[import] 'Obj\registry_api.1F62FF31.obj' ADVAPI32.dll. _RegDeleteKeyW@8 
[import] 'Obj\memory.F1BE59D6.obj' vipRun.dll. ?bitOr@RunTime@VIP@@YAIII@Z 
[import] 'Obj\systeminformation_api.720D241D.obj' USER32.dll. _SystemParametersInfoW@16 
[import] 'Obj\multithread_api.53CE32BC.obj' KERNEL32.dll. _OpenWaitableTimerW@12 
[import] 'Obj\exe_api.F27809B9.obj' vipKernel.dll. ?VIP_ErrorExit7@Kernel@VIP@@YGXPBVtrapInfo_interface@12@@Z 
[import] 'Obj\gui_api.9DA8CF80.obj' vipRun.dll. ?subInteger64_prolog@RunTime@VIP@@YG_J_J0@Z 
[import] 'Obj\gui_api.9DA8CF80.obj' USER32.dll. _GetScrollInfo@12 
[import] 'Obj\multithread_api.53CE32BC.obj' KERNEL32.dll. _CreateWaitableTimerW@12 
[import] 'Obj\gui_api.9DA8CF80.obj' vipRun.dll. ?firstBranchObjectConversion@RunTime@VIP@@YGQBVRObject@12@QBVscopeDescriptor@12@QBV312@H@Z 
[import] 'Obj\multithread_api.53CE32BC.obj' KERNEL32.dll. _ReleaseSemaphore@12 
[import] 'Obj\registry_api.1F62FF31.obj' ADVAPI32.dll. _RegQueryValueExW@24 
[import] 'Obj\filesystem.14FC0F0E.obj' KERNEL32.dll. _GetFileType@4 
[import] 'Obj\registry_api.1F62FF31.obj' ADVAPI32.dll. _RegEnumValueW@32 
[import] 'Obj\multithread_api.53CE32BC.obj' KERNEL32.dll. _OpenSemaphoreW@12 
[import] 'Obj\filesystem_api.EE6511E1.obj' vipKernel.dll. ?MEM_alloc_listElementWithContextP@Kernel@VIP@@YGPBU?$__packedList_struct@E@@XZ 
[import] 'Obj\console.22208CC2.obj' vipRun.dll. ?InitInputParser@RunTime@VIP@@YGPAVRInputStreamImpl@12@QAVRROBufferProvider@12@@Z 
[import] 'Obj\systeminformation_api.720D241D.obj' KERNEL32.dll. _GetComputerNameExW@12 
[import] 'Obj\multithread_api.53CE32BC.obj' KERNEL32.dll. _CreateSemaphoreW@16 
[import] 'Obj\gui_api.9DA8CF80.obj' USER32.dll. _GetScrollRange@16 
[import] 'Obj\multithread_api.53CE32BC.obj' KERNEL32.dll. _ReleaseMutex@4 
[import] 'Obj\gui_api.9DA8CF80.obj' USER32.dll. _SetScrollRange@20 
[import] 'Obj\gui_api.9DA8CF80.obj' vipRun.dll. ?ConvertExUR@RunTime@VIP@@YGNPBVbaseUnsignedDWordTypeDescriptor@12@PBV?$numericTypeDescriptor@N@12@IH@Z 
[import] 'Obj\systeminformation_api.720D241D.obj' ADVAPI32.dll. _GetUserNameW@8 
[import] 'Obj\multithread_api.53CE32BC.obj' KERNEL32.dll. _OpenMutexW@12 
[import] 'Obj\systeminformation_api.720D241D.obj' KERNEL32.dll. _GetNativeSystemInfo@4 
[import] 'Obj\gui_api.9DA8CF80.obj' vipRun.dll. ?ConvertExIR@RunTime@VIP@@YGNPBVbaseIntegerDWordTypeDescriptor@12@PBV?$numericTypeDescriptor@N@12@HH@Z 
[import] 'Obj\memory.F1BE59D6.obj' vipRun.dll. __imp_?enumericFunctorDescriptorVTBL_ptr@RunTime@VIP@@3PAXA 
[import] 'Obj\multithread_api.53CE32BC.obj' KERNEL32.dll. _CreateMutexW@12 
[import] 'Obj\filesystem_api.EE6511E1.obj' KERNEL32.dll. _GetTempPathW@8 
[import] 'Obj\gui_api.9DA8CF80.obj' vipRun.dll. ?int64mod_prolog@RunTime@VIP@@YG_J_J0@Z 
[import] 'Obj\systeminformation_api.720D241D.obj' KERNEL32.dll. _GetSystemInfo@4 
[import] 'Obj\multithread_api.53CE32BC.obj' KERNEL32.dll. _PulseEvent@4 
[import] 'Obj\systeminformation_api.720D241D.obj' KERNEL32.dll. _GetVersionExW@4 
[import] 'Obj\filesystem.14FC0F0E.obj' VERSION.dll. _VerQueryValueW@16 
[import] 'Obj\programcontrol.D3F4CEF5.obj' vipKernel.dll. ?AllocHeapWCTS@Kernel@VIP@@YGQAEIIII@Z 
[import] 'Obj\multithread_api.53CE32BC.obj' KERNEL32.dll. _ResetEvent@4 
[import] 'Obj\exception.311FF4B8.obj' vipRun.dll. ?Unify@RunTime@VIP@@YGXQBVtypeLibrary@12@PAX1@Z 
[import] 'Obj\filesystem.14FC0F0E.obj' VERSION.dll. _GetFileVersionInfoSizeW@8 
[import] 'Obj\console_api.5E6636FD.obj' KERNEL32.dll. _SetStdHandle@8 
[import] 'Obj\memory.F1BE59D6.obj' vipKernel.dll. ?RegisterWeakPointer@Kernel@VIP@@YGXPAPAXPAX@Z 
[import] 'Obj\console_api.5E6636FD.obj' KERNEL32.dll. _SetConsoleCtrlHandler@8 
[import] 'Obj\memory_api.066136AF.obj' KERNEL32.dll. _GlobalUnlock@4 
[import] 'Obj\multithread_api.53CE32BC.obj' KERNEL32.dll. _GetCurrentProcess@0 
[import] 'Obj\time_api.3BF8D4E6.obj' KERNEL32.dll. _SystemTimeToTzSpecificLocalTime@12 
[import] 'Obj\gui_api.9DA8CF80.obj' GDI32.dll. _GetTextExtentPoint32W@16 
[import] 'Obj\memory_api.066136AF.obj' KERNEL32.dll. _GlobalSize@4 
[import] 'Obj\gui_api.9DA8CF80.obj' USER32.dll. _RegisterClassExW@4 
[import] 'Obj\time_api.3BF8D4E6.obj' KERNEL32.dll. _GetTimeZoneInformation@4 
[import] 'Obj\main.A22FE9BF.obj' vipRun.dll. __imp_?integer32TypeDescriptorVTBL_ptr@RunTime@VIP@@3PAXA 
[import] 'Obj\console.22208CC2.obj' vipRun.dll. ?ConvertExUI@RunTime@VIP@@YGHPBVbaseUnsignedDWordTypeDescriptor@12@PBV?$numericTypeDescriptor@H@12@IH@Z 
[import] 'Obj\core.610F2EE0.obj' vipRun.dll. __imp_?unsigned16TypeDescriptorVTBL_ptr@RunTime@VIP@@3PAXA 
[import] 'Obj\memory.F1BE59D6.obj' vipKernel.dll. ?UnRegisterWeakPointer@Kernel@VIP@@YGXPAPAX@Z 
[import] 'Obj\gui_api.9DA8CF80.obj' vipRun.dll. ?ConvertExIU@RunTime@VIP@@YGIPBVbaseIntegerDWordTypeDescriptor@12@PBV?$numericTypeDescriptor@I@12@HH@Z 
[import] 'Obj\memory_api.066136AF.obj' vipKernel.dll. ?OSlstrlen@Kernel@VIP@@YGHPBG@Z 
[import] 'Obj\gui_api.9DA8CF80.obj' USER32.dll. _BeginPaint@8 
[import] 'Obj\memory_api.066136AF.obj' KERNEL32.dll. _LocalFree@4 
[import] 'Obj\gui_api.9DA8CF80.obj' USER32.dll. _EndPaint@8 
[import] 'Obj\time_api.3BF8D4E6.obj' KERNEL32.dll. _SystemTimeToFileTime@8 
[import] 'Obj\console.22208CC2.obj' KERNEL32.dll. _ReadConsoleInputW@16 
[import] 'Obj\multithread_api.53CE32BC.obj' KERNEL32.dll. _SetEvent@4 
[import] 'Obj\console.22208CC2.obj' KERNEL32.dll. _WaitForSingleObject@8 
[import] 'Obj\filesystem.14FC0F0E.obj' VERSION.dll. _GetFileVersionInfoW@16 
[import] 'Obj\exe_api.F27809B9.obj' ole32.dll. _CoInitializeEx@8 
[import] 'Obj\time_api.3BF8D4E6.obj' KERNEL32.dll. _FileTimeToSystemTime@8 
[import] 'Obj\exe_api.F27809B9.obj' ole32.dll. _OleInitialize@4 
[import] 'Obj\multithread_api.53CE32BC.obj' KERNEL32.dll. _OpenEventW@12 
[import] 'Obj\console.22208CC2.obj' KERNEL32.dll. _GetNumberOfConsoleInputEvents@8 
[import] 'Obj\memory.F1BE59D6.obj' vipRun.dll. ?Comparison_U64@RunTime@VIP@@YG?AW4compareResult@_builtIn_class@@_K0@Z 
[import] 'Obj\gui_api.9DA8CF80.obj' KERNEL32.dll. _SetLastError@4 
[import] 'Obj\time_api.3BF8D4E6.obj' KERNEL32.dll. _GetSystemTimeAsFileTime@4 
[import] 'Obj\gui_api.9DA8CF80.obj' USER32.dll. _GetWindowLongW@8 
[import] 'Obj\runtime_api.AAF7A8D0.obj' USER32.dll. _GetSystemMetrics@4 
[import] 'Obj\console_api.5E6636FD.obj' KERNEL32.dll. _SetConsoleCP@4 
[import] 'Obj\gui_api.9DA8CF80.obj' GDI32.dll. _SelectObject@8 
[import] 'Obj\console.22208CC2.obj' KERNEL32.dll. _GetConsoleCP@0 
[import] 'Obj\multithread_api.53CE32BC.obj' KERNEL32.dll. _CreateEventW@16 
[import] 'Obj\time_api.3BF8D4E6.obj' vipRun.dll. ?trunc@RunTime@VIP@@YANN@Z 
[import] 'Obj\programcontrol.D3F4CEF5.obj' vipKernel.dll. ?SetPrologExceptionPredicate@Kernel@VIP@@YGXQBVRPrologExceptionPredicateStruct@12@PAPAV312@@Z 
[import] 'Obj\shell_api.76DAFA28.obj' SHELL32.dll. _ShellExecuteExW@4 
[import] 'Obj\gui_api.9DA8CF80.obj' GDI32.dll. _CreateFontIndirectW@4 
[import] 'Obj\shell_api.76DAFA28.obj' SHLWAPI.dll. _SHCreateStreamOnFileEx@24 
[import] 'Obj\filesystem.14FC0F0E.obj' vipRun.dll. ?searchBackCh@RunTime@VIP@@YGIPBGG@Z 
[import] 'Obj\gui_api.9DA8CF80.obj' USER32.dll. _SetWindowLongW@12 
[import] 'Obj\string.79FC483E.obj' KERNEL32.dll. _lstrlenW@4 
[import] 'Obj\math.8BE40BD3.obj' vipRun.dll. ?roundToUnsigned64@RunTime@VIP@@YG_KN@Z 
[import] 'Obj\memory.F1BE59D6.obj' vipKernel.dll. ?MEM_alloc_listElementWCAP@Kernel@VIP@@YGPBU?$__packedList_struct@E@@XZ 
[import] 'Obj\math.8BE40BD3.obj' vipRun.dll. ?roundToUnsigned@RunTime@VIP@@YGIN@Z 
[import] 'Obj\filesystem.14FC0F0E.obj' KERNEL32.dll. _CopyFileW@12 
[import] 'Obj\math.8BE40BD3.obj' vipRun.dll. ?roundToInteger@RunTime@VIP@@YGHN@Z 
[import] 'Obj\filesystem.14FC0F0E.obj' KERNEL32.dll. _MoveFileExW@12 
[import] 'Obj\math.8BE40BD3.obj' vipRun.dll. ?round@RunTime@VIP@@YANN@Z 
[import] 'Obj\filesystem.14FC0F0E.obj' KERNEL32.dll. _DeleteFileW@4 
[import] 'Obj\main.A22FE9BF.obj' vipRun.dll. __imp_?charTypeDescriptorVTBL_ptr@RunTime@VIP@@3PAXA 
[import] 'Obj\filesystem.14FC0F0E.obj' KERNEL32.dll. _GetFileAttributesW@4 
[import] 'Obj\main.A22FE9BF.obj' vipRun.dll. __imp_?pointerTypeDescriptorVTBL_ptr@RunTime@VIP@@3PAXA 
[import] 'Obj\memory.F1BE59D6.obj' vipRun.dll. ?bitAnd@RunTime@VIP@@YAIII@Z 
[import] 'Obj\console.22208CC2.obj' KERNEL32.dll. _SetConsoleTextAttribute@8 
[import] 'Obj\filesystem.14FC0F0E.obj' KERNEL32.dll. _FindFirstFileW@8 
[import] 'Obj\memory.F1BE59D6.obj' vipRun.dll. __imp_?alignedFunctorlessFunctorDescriptorVTBL_ptr@RunTime@VIP@@3PAXA 
[import] 'Obj\filesystem_api.EE6511E1.obj' vipRun.dll. __imp_?prologArrowTypeDescriptorVTBL_ptr@RunTime@VIP@@3PAXA 
[import] 'Obj\main.A22FE9BF.obj' vipRun.dll. __imp_?unsigned64TypeDescriptorVTBL_ptr@RunTime@VIP@@3PAXA 
[import] 'Obj\exception.311FF4B8.obj' KERNEL32.dll. _GetCurrentThreadId@0 
[import] 'Obj\main.A22FE9BF.obj' vipRun.dll. __imp_?anyTypeDescriptorVTBL_ptr@RunTime@VIP@@3PAXA 
[import] 'Obj\filesystem_api.EE6511E1.obj' KERNEL32.dll. _FindClose@4 
[import] 'Obj\console.22208CC2.obj' KERNEL32.dll. _SetConsoleTitleW@4 
[import] 'Obj\filesystem.14FC0F0E.obj' KERNEL32.dll. _FindNextFileW@8 
[import] 'Obj\console.22208CC2.obj' KERNEL32.dll. _GetConsoleTitleW@8 
[import] 'Obj\memory.F1BE59D6.obj' vipKernel.dll. ?memProf_ContextOpen@Kernel@VIP@@YGIII@Z 
[import] 'Obj\console.22208CC2.obj' KERNEL32.dll. _FreeConsole@0 
[import] 'Obj\memory.F1BE59D6.obj' vipRun.dll. ?sizeOfTerm@RunTime@VIP@@YGIQBVtypeLibrary@12@PAX@Z 
[import] 'Obj\math.8BE40BD3.obj' vipRun.dll. ?arctan@RunTime@VIP@@YANN@Z 
[import] 'Obj\filesystem.14FC0F0E.obj' KERNEL32.dll. _GetTempFileNameW@16 
[import] 'Obj\gui_api.9DA8CF80.obj' USER32.dll. _CreateDialogParamW@20 
[import] 'Obj\filesystem_api.EE6511E1.obj' KERNEL32.dll. _CreateFileW@28 
[import] 'Obj\memory.F1BE59D6.obj' vipRun.dll. __imp_?factFunctorDescriptorVTBL_ptr@RunTime@VIP@@3PAXA 
[import] 'Obj\memory.F1BE59D6.obj' vipKernel.dll. ?memProf_ContextClose@Kernel@VIP@@YGXI@Z 
[import] 'Obj\console.22208CC2.obj' KERNEL32.dll. _FlushConsoleInputBuffer@4 
[import] 'Obj\memory.F1BE59D6.obj' vipKernel.dll. ?AllocUncollectableHeap@Kernel@VIP@@YGPAEI@Z 
[import] 'Obj\filesystem_api.EE6511E1.obj' KERNEL32.dll. _GetFileSizeEx@8 
[import] 'Obj\memory.F1BE59D6.obj' vipKernel.dll. ?AllocHeap@Kernel@VIP@@YGPAEI@Z 
[import] 'Obj\filesystem_api.EE6511E1.obj' KERNEL32.dll. _SetFilePointerEx@20 
[import] 'Obj\memory.F1BE59D6.obj' vipKernel.dll. ?AllocAtomicHeap@Kernel@VIP@@YGPAEI@Z 
[import] 'Obj\filesystem_api.EE6511E1.obj' KERNEL32.dll. _GetVolumeInformationW@32 
[import] 'Obj\filesystem_api.EE6511E1.obj' KERNEL32.dll. _CloseHandle@4 
[import] 'Obj\filesystem_api.EE6511E1.obj' vipRun.dll. __imp_?inlineTypeDescriptorVTBL_ptr@RunTime@VIP@@3PAXA 
[import] 'Obj\filesystem.14FC0F0E.obj' KERNEL32.dll. _SetFileAttributesW@8 
[import] 'Obj\gui_api.9DA8CF80.obj' USER32.dll. _SetClassLongW@12 
[import] 'Obj\filesystem_api.EE6511E1.obj' KERNEL32.dll. _GetFileAttributesExW@12 
[import] 'Obj\string8_api.876B157C.obj' KERNEL32.dll. _WideCharToMultiByte@32 
[import] 'Obj\filesystem.14FC0F0E.obj' KERNEL32.dll. _SetFileTime@16 
[import] 'Obj\console.22208CC2.obj' KERNEL32.dll. _ReadConsoleW@20 
[import] 'Obj\filesystem.14FC0F0E.obj' KERNEL32.dll. _GetFullPathNameW@16 
[import] 'Obj\gui_api.9DA8CF80.obj' USER32.dll. _InvalidateRect@12 
[import] 'Obj\memory.F1BE59D6.obj' KERNEL32.dll. _IsBadReadPtr@8 
[import] 'Obj\filesystem_api.EE6511E1.obj' vipRun.dll. ?toString@RunTime@VIP@@YGPBGQBVtypeLibrary@12@PAX@Z 
[import] 'Obj\filesystem.14FC0F0E.obj' SHELL32.dll. _SHFileOperationW@4 
[import] 'Obj\namedvalue.A8464E91.obj' vipRun.dll. ?Error_TermsCannotBeMatched2@RunTime@VIP@@YGXQBVtypeLibrary@12@PAXPBG@Z 
[import] 'Obj\filesystem.14FC0F0E.obj' vipKernel.dll. ?OSCompareMemory@Kernel@VIP@@YGHPBX0I@Z 
[import] 'Obj\main.A22FE9BF.obj' vipRun.dll. __imp_?packedCompoundFunctorDescriptorVTBL_ptr@RunTime@VIP@@3PAXA 
[import] 'Obj\memory.F1BE59D6.obj' KERNEL32.dll. _IsBadWritePtr@8 
[import] 'Obj\main.A22FE9BF.obj' vipRun.dll. __imp_?packedCompoundTypeDescriptorVTBL_ptr@RunTime@VIP@@3PAXA 
[import] 'Obj\gui_api.9DA8CF80.obj' USER32.dll. _CreateAcceleratorTableW@8 
[import] 'Obj\filesystem_api.EE6511E1.obj' KERNEL32.dll. _MoveFileW@8 
[import] 'Obj\filesystem.14FC0F0E.obj' ADVAPI32.dll. _IsTextUnicode@12 
[import] 'Obj\filesystem_api.EE6511E1.obj' KERNEL32.dll. _GetDiskFreeSpaceExW@16 
[import] 'Obj\memory.F1BE59D6.obj' vipRun.dll. ?bitNot@RunTime@VIP@@YAII@Z 
[import] 'Obj\gui_api.9DA8CF80.obj' USER32.dll. _GetForegroundWindow@0 
[import] 'Obj\inputstreamsupport.B96A0569.obj' vipRun.dll. ?RetractFactDataBaseWCTS@RunTime@VIP@@YGXQBVfactDbValue@12@@Z 
[import] 'Obj\filesystem_api.EE6511E1.obj' KERNEL32.dll. _SetCurrentDirectoryW@4 
[import] 'Obj\filesystem.14FC0F0E.obj' KERNEL32.dll. _SearchPathW@24 
[import] 'Obj\console.22208CC2.obj' vipRun.dll. ?InitWrite@RunTime@VIP@@YGPAVROutputStreamImpl@12@QAVRBufferProvider@12@@Z 
[import] 'Obj\gui_api.9DA8CF80.obj' USER32.dll. _GetMessageW@16 
[import] 'Obj\event.5E0B1F78.obj' vipKernel.dll. ?Stkb3@Kernel@VIP@@YAXXZ 
[import] 'Obj\memory.F1BE59D6.obj' vipKernel.dll. ?ReleaseHeap@Kernel@VIP@@YGXPAE@Z 
[import] 'Obj\memory.F1BE59D6.obj' vipKernel.dll. ?OSCopyMemory@Kernel@VIP@@YAXPAXPBXI@Z 
[import] 'Obj\gui_api.9DA8CF80.obj' USER32.dll. _ReleaseDC@8 
[import] 'Obj\console.22208CC2.obj' KERNEL32.dll. _WriteConsoleW@20 
[import] 'Obj\filesystem.14FC0F0E.obj' KERNEL32.dll. _GetDriveTypeW@4 
[import] 'Obj\math.8BE40BD3.obj' vipRun.dll. ?Comparison_I64@RunTime@VIP@@YG?AW4compareResult@_builtIn_class@@_J0@Z 
[import] 'Obj\filesystem.14FC0F0E.obj' SHELL32.dll. _SHGetFolderPathW@20 
[import] 'Obj\memory.F1BE59D6.obj' vipRun.dll. ?bitRight@RunTime@VIP@@YAIII@Z 
[import] 'Obj\filesystem.14FC0F0E.obj' KERNEL32.dll. _GetSystemDirectoryW@8 
[import] 'Obj\gui_api.9DA8CF80.obj' vipRun.dll. ?ConvertExUU@RunTime@VIP@@YGIPBVbaseUnsignedDWordTypeDescriptor@12@PBV?$numericTypeDescriptor@I@12@IH@Z 
[import] 'Obj\filesystem.14FC0F0E.obj' KERNEL32.dll. _GetWindowsDirectoryW@8 
[import] 'Obj\filesystem_api.EE6511E1.obj' KERNEL32.dll. _DuplicateHandle@28 
[import] 'Obj\filesystem.14FC0F0E.obj' SHELL32.dll. _SHBrowseForFolderW@4 
[import] 'Obj\gui_api.9DA8CF80.obj' USER32.dll. _SetFocus@4 
[import] 'Obj\filesystem.14FC0F0E.obj' SHELL32.dll. _SHGetPathFromIDListW@8 
[import] 'Obj\filesystem_api.EE6511E1.obj' KERNEL32.dll. _GetOverlappedResult@16 
[import] 'Obj\filesystem.14FC0F0E.obj' ole32.dll. _CoTaskMemFree@4 
[import] 'Obj\memory.F1BE59D6.obj' vipRun.dll. __imp_?functor_typeLibraryVTBL_ptr@RunTime@VIP@@3PAXA 
[import] 'Obj\gui_api.9DA8CF80.obj' USER32.dll. _SendMessageW@16 
[import] 'Obj\locale_api.2F2FFAF4.obj' KERNEL32.dll. _GetLocaleInfoW@16 
[import] 'Obj\gui_api.9DA8CF80.obj' USER32.dll. _GetDC@4 
[import] 'Obj\memory.F1BE59D6.obj' vipRun.dll. __imp_?functorlessFunctorDescriptorVTBL_ptr@RunTime@VIP@@3PAXA 
[import] 'Obj\exception.311FF4B8.obj' vipKernel.dll. ?VIP_ErrorExitCreate@Kernel@VIP@@YGPAVtrapInfo_interface@12@I@Z 
[import] 'Obj\time_api.3BF8D4E6.obj' KERNEL32.dll. _GetTimeFormatW@24 
[import] 'Obj\list.90A37E7A.obj' vipRun.dll. ?isListMember_prolog@RunTime@VIP@@YAXXZ 
[import] 'Obj\time_api.3BF8D4E6.obj' KERNEL32.dll. _GetDateFormatW@24 
[import] 'Obj\memory.F1BE59D6.obj' vipRun.dll. ?AllocListElementByTypeP@RunTime@VIP@@YGPBU?$__packedList_struct@E@@QBVtypeLibrary@12@@Z 
[import] 'Obj\binary.81E0542A.obj' vipRun.dll. ?calculateCRC@RunTime@VIP@@YAHQBVTBinary@@H@Z 
[import] 'Obj\gui_api.9DA8CF80.obj' USER32.dll. _GetMenu@4 
[import] 'Obj\memory_api.066136AF.obj' KERNEL32.dll. _GlobalMemoryStatusEx@4 
[import] 'Obj\gui_api.9DA8CF80.obj' USER32.dll. _GetMenuItemCount@4 
[import] 'Obj\console.22208CC2.obj' vipRun.dll. ?Error_DetermFactIsAlreadyAsserted@RunTime@VIP@@YAXQBVtypeLibrary@12@I@Z 
[import] 'Obj\exception.311FF4B8.obj' vipKernel.dll. ?GetLineFromAddrProlog@Kernel@VIP@@YGXPBXPAIPAPBG@Z 
[import] 'Obj\time_api.3BF8D4E6.obj' vipRun.dll. ?addUnsigned64_prolog@RunTime@VIP@@YG_K_K0@Z 
[import] 'Obj\exe_api.F27809B9.obj' KERNEL32.dll. _GetModuleFileNameW@12 
[import] 'Obj\time_api.3BF8D4E6.obj' vipRun.dll. ?uint64mod_prolog@RunTime@VIP@@YG_K_K0@Z 
[import] 'Obj\exception.311FF4B8.obj' KERNEL32.dll. _VirtualQuery@12 
[import] 'Obj\memory_api.066136AF.obj' KERNEL32.dll. _GlobalFree@4 
[import] 'Obj\exception.311FF4B8.obj' KERNEL32.dll. _SetErrorMode@4 
[import] 'Obj\filesystem_api.EE6511E1.obj' KERNEL32.dll. _ReadDirectoryChangesW@32 
[import] 'Obj\gui_api.9DA8CF80.obj' USER32.dll. _GetMenuItemInfoW@16 
[import] 'Obj\string8_api.876B157C.obj' KERNEL32.dll. _MultiByteToWideChar@24 
[import] 'Obj\gui_api.9DA8CF80.obj' USER32.dll. _InsertMenuItemW@16 
[import] 'Obj\string8.31126D59.obj' KERNEL32.dll. _IsBadStringPtrA@8 
[import] 'Obj\exe.0BB6E1A4.obj' KERNEL32.dll. _GetCommandLineW@0 
[import] 'Obj\time_api.3BF8D4E6.obj' KERNEL32.dll. _TzSpecificLocalTimeToSystemTime@12 
[import] 'Obj\gui_api.9DA8CF80.obj' USER32.dll. _EndMenu@0 
[import] 'Obj\string8.31126D59.obj' KERNEL32.dll. _IsValidCodePage@4 
[import] 'Obj\exe.0BB6E1A4.obj' vipKernel.dll. ?GarbageCollector@Kernel@VIP@@YAXXZ 
[import] 'Obj\gui_api.9DA8CF80.obj' USER32.dll. _AdjustWindowRectEx@16 
[import] 'Obj\gui_api.9DA8CF80.obj' USER32.dll. _MoveWindow@24 
[import] 'Obj\multithread_api.53CE32BC.obj' KERNEL32.dll. _GetThreadSelectorEntry@12 
[import] 'Obj\outputstreamsupport.9F52D3AC.obj' vipRun.dll. ?writeBytes2Stream@RunTime@VIP@@YGXQAVROutputStreamImpl@12@QBEI@Z 
[import] 'Obj\std.01821D38.obj' vipRun.dll. ?addUnsigned64WOO_prolog@RunTime@VIP@@YG_K_K0@Z 
[import] 'Obj\outputstreamsupport.9F52D3AC.obj' vipRun.dll. ?saveDatabase@RunTime@VIP@@YGXQBVfactDbValue@12@QAVROutputStreamImpl@12@@Z 
[import] 'Obj\stream.99E3A2B3.obj' vipRun.dll. ?Error_SingleFactHasNoValue@RunTime@VIP@@YAXQBVtypeLibrary@12@I@Z 
[import] 'Obj\outputstreamsupport.9F52D3AC.obj' vipRun.dll. ?format2Stream@RunTime@VIP@@YGXQAVROutputStreamImpl@12@QBGQBVrEllipsisArguments@12@@Z 
[import] 'Obj\filesystem_api.EE6511E1.obj' vipRun.dll. ?LoadProcAddress@RunTime@VIP@@YGP6GHXZQBGQBDPAP6GHXZ@Z 
[import] 'Obj\outputstreamsupport.9F52D3AC.obj' vipRun.dll. ?write2Stream@RunTime@VIP@@YGXQAVROutputStreamImpl@12@IIQBVrEllipsisArguments@12@@Z 
[import] 'Obj\memory.F1BE59D6.obj' vipKernel.dll. ?StkTrap@Kernel@VIP@@YAXXZ 
[import] 'Obj\gui_api.9DA8CF80.obj' USER32.dll. _OpenClipboard@4 
[import] 'Obj\registry_api.1F62FF31.obj' ADVAPI32.dll. _RegEnumKeyExW@32 
[import] 'Obj\gui_api.9DA8CF80.obj' USER32.dll. _CloseClipboard@0 
[import] 'Obj\varm.637998CB.obj' vipRun.dll. ?objectConversion@RunTime@VIP@@YGQBVRObject@12@QBVscopeDescriptor@12@QBV312@H@Z 
[import] 'Obj\gui_api.9DA8CF80.obj' USER32.dll. _GetClipboardOwner@0 
[import] 'Obj\exe_api.F27809B9.obj' vipRun.dll. ?ErrorRangeSigned@RunTime@VIP@@YGXQBV?$numericTypeDescriptor@H@12@H@Z 
[import] 'Obj\gui_api.9DA8CF80.obj' USER32.dll. _SetClipboardViewer@4 
[import] 'Obj\systeminformation_api.720D241D.obj' KERNEL32.dll. _GetComputerNameW@8 
[import] 'Obj\inputstreamsupport.B96A0569.obj' vipRun.dll. ?ParseString@RunTime@VIP@@YGPBGQAVRInputStreamImpl@12@I@Z 
[import] 'Obj\systeminformation_api.720D241D.obj' Secur32.dll. _GetUserNameExW@12 
[import] 'Obj\gui_api.9DA8CF80.obj' USER32.dll. _GetClipboardViewer@0 
[import] 'Obj\console.22208CC2.obj' USER32.dll. _MessageBoxW@16 
[import] 'Obj\inputstreamsupport.B96A0569.obj' vipRun.dll. ?ParseBytes@RunTime@VIP@@YGPBVTBinary@@QAVRInputStreamImpl@12@I@Z 
[import] 'Obj\gui_api.9DA8CF80.obj' USER32.dll. _GetUpdateRect@12 
[import] 'Obj\gui_api.9DA8CF80.obj' USER32.dll. _ChangeClipboardChain@8 
[import] 'Obj\exception.311FF4B8.obj' vipRun.dll. ?tryString2Term@RunTime@VIP@@YGXQBVtypeLibrary@12@PBGPAPAX@Z 
[import] 'Obj\inputstreamsupport.B96A0569.obj' vipRun.dll. ?consultDatabase@RunTime@VIP@@YGXQBVfactDbValue@12@QAVRInputStreamImpl@12@@Z 
[import] 'Obj\gui_api.9DA8CF80.obj' USER32.dll. _GetWindowPlacement@8 
[import] 'Obj\gui_api.9DA8CF80.obj' USER32.dll. _SetClipboardData@8 
[import] 'Obj\memory.F1BE59D6.obj' vipKernel.dll. ?Cut_Prolog@Kernel@VIP@@YAXXZ 
[import] 'Obj\inputstreamsupport.B96A0569.obj' vipRun.dll. ?ParseFromStream@RunTime@VIP@@YGPAXQBVtypeLibrary@12@QAVRInputStreamImpl@12@I@Z 
[import] 'Obj\gui_api.9DA8CF80.obj' GDI32.dll. _GetTextMetricsW@8 
[import] 'Obj\memory.F1BE59D6.obj' vipRun.dll. ?bitXor@RunTime@VIP@@YAIII@Z 
[import] 'Obj\core.610F2EE0.obj' vipRun.dll. __imp_?integer8TypeDescriptorVTBL_ptr@RunTime@VIP@@3PAXA 
[import] 'Obj\gui_api.9DA8CF80.obj' USER32.dll. _GetClipboardData@4 
[import] 'Obj\main.A22FE9BF.obj' vipRun.dll. __imp_?real64TypeDescriptorVTBL_ptr@RunTime@VIP@@3PAXA 
[import] 'Obj\inputstreamsupport.B96A0569.obj' vipRun.dll. ?ParseLineCRLF@RunTime@VIP@@YGPBGQAVRInputStreamImpl@12@@Z 
[import] 'Obj\math.8BE40BD3.obj' vipRun.dll. ?universalNumericConvert4_ex@RunTime@VIP@@YGXPBVnumericTypeDescriptor_internal@12@0HPAX_N@Z 
[import] 'Obj\gui_api.9DA8CF80.obj' USER32.dll. _RegisterClipboardFormatW@4 
[import] 'Obj\list.90A37E7A.obj' vipRun.dll. ?CompareTerms_Prolog@RunTime@VIP@@YA?AW4compareResult@_builtIn_class@@XZ 
[import] 'Obj\inputstreamsupport.B96A0569.obj' vipRun.dll. ?ParseLine@RunTime@VIP@@YGPBGQAVRInputStreamImpl@12@@Z 
[import] 'Obj\exe_api.F27809B9.obj' ole32.dll. _OleUninitialize@0 
[import] 'Obj\gui_api.9DA8CF80.obj' USER32.dll. _CountClipboardFormats@0 
[import] 'Obj\gui_api.9DA8CF80.obj' USER32.dll. _CreateDialogIndirectParamW@20 
[import] 'Obj\inputstreamsupport.B96A0569.obj' vipRun.dll. ?ungetChar@RunTime@VIP@@YGXQAVRInputStreamImpl@12@@Z 
[import] 'Obj\console.22208CC2.obj' KERNEL32.dll. _GetConsoleOutputCP@0 
[import] 'Obj\filesystem_api.EE6511E1.obj' vipRun.dll. __imp_?interfaceTypeDescriptorVTBL_ptr@RunTime@VIP@@3PAXA 
[import] 'Obj\shell_api.76DAFA28.obj' SHELL32.dll. _ShellExecuteW@24 
[import] 'Obj\gui_api.9DA8CF80.obj' USER32.dll. _EnumClipboardFormats@4 
[import] 'Obj\shell_api.76DAFA28.obj' SHELL32.dll. _CommandLineToArgvW@8 
[import] 'Obj\memory.F1BE59D6.obj' vipRun.dll. __imp_?scopeDescriptorVTBL_ptr@RunTime@VIP@@3PAXA 
[import] 'Obj\math.8BE40BD3.obj' vipRun.dll. ?roundToInteger64@RunTime@VIP@@YG_JN@Z 
[import] 'Obj\inputstreamsupport.B96A0569.obj' vipRun.dll. ?ParseChar@RunTime@VIP@@YGGQAVRInputStreamImpl@12@@Z 
[import] 'Obj\main.A22FE9BF.obj' vipRun.dll. __imp_?symbolTypeDescriptorVTBL_ptr@RunTime@VIP@@3PAXA 
[import] 'Obj\gui_api.9DA8CF80.obj' USER32.dll. _GetClipboardFormatNameW@12 
[import] 'Obj\main.A22FE9BF.obj' vipRun.dll. __imp_?binaryTypeDescriptorVTBL_ptr@RunTime@VIP@@3PAXA 
[import] 'Obj\memory.F1BE59D6.obj' vipRun.dll. ?bitOr64@RunTime@VIP@@YA_K_K0@Z 
[import] 'Obj\main.A22FE9BF.obj' vipRun.dll. __imp_?factDbTypeDescriptorVTBL_ptr@RunTime@VIP@@3PAXA 
[import] 'Obj\varm.637998CB.obj' vipRun.dll. ?sizeOfDomain@RunTime@VIP@@YGIQBVtypeLibrary@12@@Z 
[import] 'Obj\console.22208CC2.obj' KERNEL32.dll. _GetConsoleScreenBufferInfo@8 
[import] 'Obj\gui_api.9DA8CF80.obj' USER32.dll. _EmptyClipboard@0 
[import] 'Obj\math.8BE40BD3.obj' vipRun.dll. ?ln@RunTime@VIP@@YANN@Z 
[import] 'Obj\gui_api.9DA8CF80.obj' USER32.dll. _IsClipboardFormatAvailable@4 
[import] 'Obj\console.22208CC2.obj' KERNEL32.dll. _SetConsoleCursorPosition@8 
[import] 'Obj\memory.F1BE59D6.obj' vipKernel.dll. ?OSMoveMemory@Kernel@VIP@@YAXPAXPBXI@Z 
[import] 'Obj\console.22208CC2.obj' KERNEL32.dll. _FillConsoleOutputCharacterW@20 
[import] 'Obj\memory.F1BE59D6.obj' vipKernel.dll. ?AllocHeapWithContext@Kernel@VIP@@YGQAEIII@Z 
[import] 'Obj\console.22208CC2.obj' KERNEL32.dll. _SetConsoleMode@8 
[import] 'Obj\memory.F1BE59D6.obj' vipKernel.dll. ?LocalCut2@Kernel@VIP@@YAXPAE@Z 
[import] 'Obj\gui_api.9DA8CF80.obj' USER32.dll. _GetClassLongW@8 
[import] 'Obj\gui_api.9DA8CF80.obj' USER32.dll. _GetPriorityClipboardFormat@8 
[import] 'Obj\memory.F1BE59D6.obj' vipRun.dll. ?compareTerms@RunTime@VIP@@YG?AW4compareResult@_builtIn_class@@QBVtypeLibrary@12@PAX1@Z 
[import] 'Obj\gui_api.9DA8CF80.obj' USER32.dll. _GetOpenClipboardWindow@0 
[import] 'Obj\filesystem_api.EE6511E1.obj' KERNEL32.dll. _ReadFile@20 
[import] 'Obj\memory.F1BE59D6.obj' vipRun.dll. ?bitNot64@RunTime@VIP@@YA_K_K@Z 
[import] 'Obj\locale_api.2F2FFAF4.obj' KERNEL32.dll. _GetNumberFormatW@24 
[import] 'Obj\memory.F1BE59D6.obj' vipKernel.dll. ?Run_Fail@Kernel@VIP@@YAXXZ 
[import] 'Obj\memory.F1BE59D6.obj' vipRun.dll. ?bitLeft@RunTime@VIP@@YAIII@Z 
[import] 'Obj\exception.311FF4B8.obj' vipRun.dll. ?getListMember_nd_prolog_opt@RunTime@VIP@@YAXXZ 
[import] 'Obj\filesystem_api.EE6511E1.obj' KERNEL32.dll. _CreateDirectoryW@8 
[import] 'Obj\gui_api.9DA8CF80.obj' USER32.dll. _DestroyWindow@4 
[import] 'Obj\filesystem_api.EE6511E1.obj' KERNEL32.dll. _GetCurrentDirectoryW@8 
[import] 'Obj\gui_api.9DA8CF80.obj' USER32.dll. _GetWindowTextLengthW@4 
[import] 'Obj\filesystem_api.EE6511E1.obj' KERNEL32.dll. _GetShortPathNameW@12 
[import] 'Obj\gui_api.9DA8CF80.obj' USER32.dll. _GetWindowRect@8 
[import] 'Obj\event.5E0B1F78.obj' vipRun.dll. ?FinishRetractWCTS@RunTime@VIP@@YGXPAVrFactItem@12@PAPAV312@@Z 
[import] 'Obj\gui_api.9DA8CF80.obj' USER32.dll. _LoadImageW@24 
[import] 'Obj\string.79FC483E.obj' vipRun.dll. ?InitInputParser@RunTime@VIP@@YGPAVRInputStreamImpl@12@QAVRROBufferProvider@12@QAEI@Z 
[import] 'Obj\gui_api.9DA8CF80.obj' USER32.dll. _GetWindowThreadProcessId@8 
[import] 'Obj\gui_api.9DA8CF80.obj' USER32.dll. _SetForegroundWindow@4 
[import] 'Obj\memory.F1BE59D6.obj' vipKernel.dll. ?Stkb2@Kernel@VIP@@YAXXZ 
[import] 'Obj\time_api.3BF8D4E6.obj' vipRun.dll. ?universalNumericConvert8_ex@RunTime@VIP@@YGXPBVnumericTypeDescriptor_internal@12@0_JPAX_N@Z 
[import] 'Obj\gui_api.9DA8CF80.obj' USER32.dll. _AttachThreadInput@12 
[import] 'Obj\gui_api.9DA8CF80.obj' vipKernel.dll. ?OSZeroMemory@Kernel@VIP@@YAXPAXI@Z 
[import] 'Obj\memory.F1BE59D6.obj' vipKernel.dll. ?GetTrapTop@Kernel@VIP@@YGQAVTBackTrackBlock@12@XZ 
[import] 'Obj\filesystem_api.EE6511E1.obj' KERNEL32.dll. _CreateIoCompletionPort@16 
[import] 'Obj\memory.F1BE59D6.obj' vipKernel.dll. ?SetTrapTop@Kernel@VIP@@YGXPAVTBackTrackBlock@12@@Z 
[import] 'Obj\main.A22FE9BF.obj' vipRun.dll. __imp_?unsigned32TypeDescriptorVTBL_ptr@RunTime@VIP@@3PAXA 
[import] 'Obj\gui_api.9DA8CF80.obj' USER32.dll. _SetActiveWindow@4 
[import] 'Obj\binary.81E0542A.obj' vipKernel.dll. ?MEM_alloc_nullfunctor@Kernel@VIP@@YGPBEI@Z 
[import] 'Obj\gui_api.9DA8CF80.obj' GDI32.dll. _Rectangle@20 
[import] 'Obj\gui_api.9DA8CF80.obj' USER32.dll. _GetParent@4 
[import] 'Obj\gui_api.9DA8CF80.obj' USER32.dll. _DrawFocusRect@8 
[import] 'Obj\memory_api.066136AF.obj' KERNEL32.dll. _GlobalAlloc@8 
[import] 'Obj\gui_api.9DA8CF80.obj' USER32.dll. _TrackMouseEvent@4 
[import] 'Obj\filesystem_api.EE6511E1.obj' KERNEL32.dll. _CancelIo@4 
[import] 'Obj\memory.F1BE59D6.obj' vipRun.dll. __imp_?typeLibraryVTBL_ptr@RunTime@VIP@@3PAXA 
[import] 'Obj\gui_api.9DA8CF80.obj' USER32.dll. _ClientToScreen@8 
[import] 'Obj\gui_api.9DA8CF80.obj' USER32.dll. _SetWindowPos@28 
[import] 'Obj\gui_api.9DA8CF80.obj' USER32.dll. _ScreenToClient@8 
[import] 'Obj\gui_api.9DA8CF80.obj' USER32.dll. _UpdateLayeredWindow@36 
[import] 'Obj\gui_api.9DA8CF80.obj' GDI32.dll. _DeleteObject@4 
[import] 'Obj\time_api.3BF8D4E6.obj' vipKernel.dll. ?RunTimeError_FloatDivideByZero@Kernel@VIP@@YAXXZ 
[import] 'Obj\registry_api.1F62FF31.obj' ADVAPI32.dll. _RegCloseKey@4 
[import] 'Obj\gui_api.9DA8CF80.obj' GDI32.dll. _GetStockObject@4 
[import] 'Obj\main.A22FE9BF.obj' vipKernel.dll. ?Succeed_Prolog@Kernel@VIP@@YAXXZ 
[import] 'Obj\gui_api.9DA8CF80.obj' USER32.dll. _MonitorFromPoint@12 
[import] 'Obj\registry_api.1F62FF31.obj' ADVAPI32.dll. _RegDeleteValueW@8 
[import] 'Obj\string.79FC483E.obj' vipRun.dll. ?log@RunTime@VIP@@YANN@Z 
[import] 'Obj\gui_api.9DA8CF80.obj' USER32.dll. _ScrollWindowEx@32 
[import] 'Obj\gui_api.9DA8CF80.obj' USER32.dll. _MonitorFromRect@8 
[import] 'Obj\filesystem_api.EE6511E1.obj' vipRun.dll. ?create@RunTime@VIP@@YAPBGI@Z 
[import] 'Obj\core.610F2EE0.obj' vipRun.dll. __imp_?integer16TypeDescriptorVTBL_ptr@RunTime@VIP@@3PAXA 
[import] 'Obj\gui_api.9DA8CF80.obj' vipRun.dll. ?ConvertExII@RunTime@VIP@@YGHPBVbaseIntegerDWordTypeDescriptor@12@PBV?$numericTypeDescriptor@H@12@HH@Z 
[import] 'Obj\math.8BE40BD3.obj' vipRun.dll. ?abs_rr@RunTime@VIP@@YANN@Z 
[import] 'Obj\exception.311FF4B8.obj' KERNEL32.dll. _FormatMessageW@28 
[import] 'Obj\gui_api.9DA8CF80.obj' USER32.dll. _MonitorFromWindow@8 
[import] 'Obj\memory.F1BE59D6.obj' vipRun.dll. __imp_?unsigned8TypeDescriptorVTBL_ptr@RunTime@VIP@@3PAXA 
[import] 'Obj\vpidomains.97964869.obj' vipRun.dll. __imp_?compoundFunctorDescriptorVTBL_ptr@RunTime@VIP@@3PAXA 
[import] 'Obj\gui_api.9DA8CF80.obj' USER32.dll. _GetClientRect@8 
[import] 'Obj\vpidomains.97964869.obj' vipRun.dll. __imp_?compoundTypeDescriptorVTBL_ptr@RunTime@VIP@@3PAXA 
[import] 'Obj\console_api.5E6636FD.obj' KERNEL32.dll. _GetStdHandle@4 
[import] 'Obj\string.79FC483E.obj' USER32.dll. _IsCharLowerW@4 
[import] 'Obj\memory.F1BE59D6.obj' vipRun.dll. ?AllocateObjectEx@RunTime@VIP@@YGPAEQBVRObjectClassDescriptorInfo@12@PAP6GXPAX@Z@Z 
[import] 'Obj\gui_api.9DA8CF80.obj' vipRun.dll. __imp_?functorlessUnionTypeDescriptorVTBL_ptr@RunTime@VIP@@3PAXA 
[import] 'Obj\main.A22FE9BF.obj' vipRun.dll. __imp_?real32TypeDescriptorVTBL_ptr@RunTime@VIP@@3PAXA 
[import] 'Obj\gui_api.9DA8CF80.obj' vipRun.dll. ?copyString2inline@RunTime@VIP@@YGXQAXQBXII@Z 
[import] 'Obj\main.A22FE9BF.obj' vipRun.dll. __imp_?string8TypeDescriptorVTBL_ptr@RunTime@VIP@@3PAXA 
[import] 'Obj\gui_api.9DA8CF80.obj' USER32.dll. _GetMonitorInfoW@8 
[import] 'Obj\main.A22FE9BF.obj' vipRun.dll. __imp_?integer64TypeDescriptorVTBL_ptr@RunTime@VIP@@3PAXA 
[import] 'Obj\string.79FC483E.obj' USER32.dll. _IsCharUpperW@4 
[import] 'Obj\math.8BE40BD3.obj' vipRun.dll. ?exp@RunTime@VIP@@YANN@Z 
[import] 'Obj\string.79FC483E.obj' vipRun.dll. ?create@RunTime@VIP@@YGPBGIPBG@Z 
[import] 'Obj\memory.F1BE59D6.obj' vipRun.dll. __imp_?factDatabaseTypeDescriptorVTBL_ptr@RunTime@VIP@@3PAXA 
[import] 'Obj\locale_api.2F2FFAF4.obj' KERNEL32.dll. _GetThreadLocale@0 
[import] 'Obj\memory.F1BE59D6.obj' vipRun.dll. ?bitAnd64@RunTime@VIP@@YA_K_K0@Z 
[import] 'Obj\string.79FC483E.obj' KERNEL32.dll. _CompareStringW@24 
[import] 'Obj\gui_api.9DA8CF80.obj' GDI32.dll. _ExtTextOutW@32 
[import] 'Obj\exception.311FF4B8.obj' vipRun.dll. ?format2String@RunTime@VIP@@YGQBGQBGQBVrEllipsisArguments@12@@Z 
[import] 'Obj\filesystem_api.EE6511E1.obj' KERNEL32.dll. _RemoveDirectoryW@4 
[import] 'Obj\exception.311FF4B8.obj' vipRun.dll. ?write2String@RunTime@VIP@@YGQBGIIQBVrEllipsisArguments@12@@Z 
[import] 'Obj\event.5E0B1F78.obj' vipRun.dll. ?AssertZNonDetermFactWCTS@RunTime@VIP@@YGXITRTerm@12@PAVrFactList@12@II@Z 
[import] 'Obj\gui_api.9DA8CF80.obj' USER32.dll. _IsDialogMessageW@8 
[import] 'Obj\std.01821D38.obj' vipRun.dll. ?addInteger64_prolog@RunTime@VIP@@YG_J_J0@Z 
[import] 'Obj\string.79FC483E.obj' vipRun.dll. ?tryCheckPosition@RunTime@VIP@@YGXIPBG@Z 
[import] 'Obj\filesystem_api.EE6511E1.obj' KERNEL32.dll. _FlushFileBuffers@4 
[import] 'Obj\gui_api.9DA8CF80.obj' USER32.dll. _TranslateAccelerator@12 
[import] 'Obj\filesystem_api.EE6511E1.obj' vipRun.dll. ?searchForChar@RunTime@VIP@@YGIPBGGI@Z 
[import] 'Obj\string.79FC483E.obj' vipRun.dll. ?frontToken@RunTime@VIP@@YG_NPBGAAPAG1@Z 
[import] 'Obj\binary.81E0542A.obj' vipRun.dll. ?binarySearch@RunTime@VIP@@YAIPBEI0I@Z 
[import] 'Obj\gui_api.9DA8CF80.obj' USER32.dll. _EnableWindow@8 
[import] 'Obj\filesystem_api.EE6511E1.obj' KERNEL32.dll. _PostQueuedCompletionStatus@16 
[import] 'Obj\string.79FC483E.obj' KERNEL32.dll. _IsBadStringPtrW@8 
[import] 'Obj\gui_api.9DA8CF80.obj' USER32.dll. _SetParent@8 
[import] 'Obj\gui_api.9DA8CF80.obj' USER32.dll. _DestroyIcon@4 
[import] 'Obj\std.01821D38.obj' vipRun.dll. ?subUnsigned64WOO_prolog@RunTime@VIP@@YG_K_K0@Z 
[import] 'Obj\string.79FC483E.obj' vipRun.dll. ?replace@RunTime@VIP@@YGPBGPBG00H_N@Z 
[import] 'Obj\registry_api.1F62FF31.obj' ADVAPI32.dll. _RegCreateKeyExW@36 
[import] 'Obj\gui_api.9DA8CF80.obj' USER32.dll. _GetIconInfo@8 
[import] 'Obj\memory_api.066136AF.obj' KERNEL32.dll. _lstrlenA@4 
[import] 'Obj\string.79FC483E.obj' vipRun.dll. ?replace@RunTime@VIP@@YGPBGPBG00H_NAAI@Z 
[import] 'Obj\memory.F1BE59D6.obj' vipRun.dll. __imp_?enumericTypeDescriptorVTBL_ptr@RunTime@VIP@@3PAXA 
[import] 'Obj\gui_api.9DA8CF80.obj' USER32.dll. _KillTimer@8 
[import] 'Obj\gui_api.9DA8CF80.obj' USER32.dll. _CreateWindowExW@48 
[import] 'Obj\gui_api.9DA8CF80.obj' USER32.dll. _SetTimer@16 
[import] 'Obj\exe_api.F27809B9.obj' ole32.dll. _CoUninitialize@0 
[import] 'Obj\filesystem_api.EE6511E1.obj' vipRun.dll. ?search@RunTime@VIP@@YG_NPBG0QAI@Z 
[import] 'Obj\filesystem_api.EE6511E1.obj' KERNEL32.dll. _GetLastError@0 
[import] 'Obj\string.79FC483E.obj' vipRun.dll. ?searchBack@RunTime@VIP@@YG_NPBG0QAI@Z 
[import] 'Obj\main.A22FE9BF.obj' vipRun.dll. __imp_?handleTypeDescriptorVTBL_ptr@RunTime@VIP@@3PAXA 
[import] 'Obj\string.79FC483E.obj' USER32.dll. _CharUpperW@4 
[import] 'Obj\math.8BE40BD3.obj' vipRun.dll. ?sqrt@RunTime@VIP@@YANN@Z 
[import] 'Obj\string.79FC483E.obj' USER32.dll. _CharLowerW@4 
[import] 'Obj\string8_api.876B157C.obj' USER32.dll. _CharNextExA@12 
[import] 'Obj\gui_api.9DA8CF80.obj' USER32.dll. _GetMenuItemRect@16 
[import] 'Obj\filesystem_api.EE6511E1.obj' KERNEL32.dll. _SetVolumeLabelW@8 
[import] 'Obj\string.79FC483E.obj' vipRun.dll. ?isAlpha@RunTime@VIP@@YG_NPBG@Z 
[import] 'Obj\filesystem_api.EE6511E1.obj' KERNEL32.dll. _WriteFile@20 
[import] '..\..\..\_intermediate\sourceVS\vipInit\Win32\ReleasePE\VIPMain.obj' vipKernel.dll. ?KernelUnitInitialization@Kernel@VIP@@YGHPAX@Z 
[import] 'Obj\memory.F1BE59D6.obj' vipRun.dll. __imp_?functorlessTypeDescriptorVTBL_ptr@RunTime@VIP@@3PAXA 
[import] '..\..\..\_intermediate\sourceVS\vipInit\Win32\ReleasePE\VIPMain.obj' vipKernel.dll. ?ExeInitialization@Kernel@VIP@@YAHXZ 
[import] 'Obj\memory_api.066136AF.obj' KERNEL32.dll. _GlobalLock@4 
[import] '..\..\..\_intermediate\sourceVS\vipInit\Win32\ReleasePE\VIPDll.obj' vipKernel.dll. ?RunGoal@Kernel@VIP@@YGIQ6AIXZ@Z 
[import] 'Obj\multithread_api.53CE32BC.obj' KERNEL32.dll. _GetThreadContext@8 
[import] '..\..\..\_intermediate\sourceVS\vipInit\Win32\ReleasePE\VIPMain.obj' vipKernel.dll. ?ExeTermination@Kernel@VIP@@YAXH@Z 
[import] 'Obj\gui_api.9DA8CF80.obj' USER32.dll. _GetUpdateRgn@12 
[import] '..\..\..\_intermediate\sourceVS\vipInit\Win32\ReleasePE\VIPDll.obj' vipKernel.dll. ?KernelUnitTermination@Kernel@VIP@@YAXPAX@Z 
[import] 'Obj\filesystem_api.EE6511E1.obj' vipRun.dll. __imp_?otherArrowTypeDescriptorVTBL_ptr@RunTime@VIP@@3PAXA 
[import] '..\..\..\_intermediate\sourceVS\vipInit\Win32\ReleasePE\VIPDll.obj' vipRun.dll. ?RunUnitInitialization@RunTime@VIP@@YGHPAX@Z 
[import] 'Obj\main.A22FE9BF.obj' vipRun.dll. __imp_?stringTypeDescriptorVTBL_ptr@RunTime@VIP@@3PAXA 
[import] '..\..\..\_intermediate\sourceVS\vipInit\Win32\ReleasePE\VIPDll.obj' vipRun.dll. ?InitializationDictionaries@RunTime@VIP@@YGHPBVdicofdic@12@@Z 
[import] 'Obj\math.8BE40BD3.obj' vipRun.dll. ?ConvertExRR@RunTime@VIP@@YGNPBV?$numericTypeDescriptor@N@12@0NH@Z 
[import] '..\..\..\_intermediate\sourceVS\vipInit\Win32\ReleasePE\VIPDll.obj' vipRun.dll. ?RunUnitTermination@RunTime@VIP@@YGXPAX@Z 
[import] 'Obj\filesystem_api.EE6511E1.obj' KERNEL32.dll. _GetLongPathNameW@12 
[import] 'Obj\gui_api.9DA8CF80.obj' USER32.dll. _SendInput@12 
[import] 'Obj\filesystem_api.EE6511E1.obj' KERNEL32.dll. _GetQueuedCompletionStatus@20 
[import] '..\..\..\_intermediate\sourceVS\vipInit\Win32\ReleasePE\VIPMain.obj' KERNEL32.dll. __imp__ExitProcess@4 
[import] 'Obj\registry_api.1F62FF31.obj' ADVAPI32.dll. _RegSetValueExW@24 
[import] '..\..\..\_intermediate\sourceVS\vipInit\Win32\ReleasePE\VIPDll.obj' vipKernel.dll. ?KernelUnitInitialization2@Kernel@VIP@@YGHPAX_N@Z 
[import] 'Obj\console_api.5E6636FD.obj' KERNEL32.dll. _SetConsoleOutputCP@4 
[import] 'Obj\exe.0BB6E1A4.obj' vipRun.dll. ?trimFront@RunTime@VIP@@YAPBGPBG@Z 
[import] 'Obj\gui_api.9DA8CF80.obj' USER32.dll. _BringWindowToTop@4 
[import] 'Obj\string.79FC483E.obj' vipRun.dll. ?trimLast@RunTime@VIP@@YAPBGPBG@Z 
[import] 'Obj\console.22208CC2.obj' KERNEL32.dll. _GetConsoleMode@8 
[import] 'Obj\time_api.3BF8D4E6.obj' vipRun.dll. ?mulUnsigned64_prolog@RunTime@VIP@@YG_K_K0@Z 
[import] 'Obj\gui_api.9DA8CF80.obj' USER32.dll. _SetWindowPlacement@8 
[import] 'Obj\string.79FC483E.obj' vipRun.dll. ?searchch@RunTime@VIP@@YG_NPBGGQAI@Z 
[import] '..\..\..\_intermediate\sourceVS\vipInit\Win32\ReleasePE\VIPPE.obj' USER32.dll. __imp__MessageBoxA@16 
[import] 'Obj\string.79FC483E.obj' USER32.dll. _IsCharAlphaW@4 
[import] 'Obj\multithread_api.53CE32BC.obj' KERNEL32.dll. _SetProcessAffinityMask@8 
--- Total Names =  4255 --------
--- Total Cnt   =  4255 --------
--------------------------------

